 extractfuncs

 Timestamp is 5c928d30 (Wed Mar 20 13:57:52 2019)

 Preferred load address is 00400000

 Start         Length     Name                   Class
 0001:00000000 000abf70H .text$mn                CODE
 0001:000abf70 000010e8H .text$x                 CODE
 0002:00000000 00000104H .CRT$XCA                DATA
 0002:00000104 00000104H .CRT$XCAA               DATA
 0002:00000208 00000104H .CRT$XCZ                DATA
 0002:0000030c 00000104H .CRT$XIA                DATA
 0002:00000410 00000104H .CRT$XIAA               DATA
 0002:00000514 00000104H .CRT$XIAC               DATA
 0002:00000618 00000114H .CRT$XIC                DATA
 0002:0000072c 00000104H .CRT$XIZ                DATA
 0002:00000830 00000104H .CRT$XPA                DATA
 0002:00000934 0000010cH .CRT$XPX                DATA
 0002:00000a40 00000104H .CRT$XPXA               DATA
 0002:00000b44 00000104H .CRT$XPZ                DATA
 0002:00000c48 00000104H .CRT$XTA                DATA
 0002:00000d4c 00000104H .CRT$XTZ                DATA
 0002:00000e50 000233ccH .rdata                  DATA
 0002:0002421c 00000444H .rdata$r                DATA
 0002:00024660 0000012cH .rdata$sxdata           DATA
 0002:0002478c 000001bcH .rdata$zzzdbg           DATA
 0002:00024948 00000104H .rtc$IAA                DATA
 0002:00024a4c 00000104H .rtc$IZZ                DATA
 0002:00024b50 00000104H .rtc$TAA                DATA
 0002:00024c54 00000104H .rtc$TZZ                DATA
 0002:00024d58 000010b4H .xdata$x                DATA
 0002:00025e0c 00000000H .edata                  DATA
 0003:00000000 00001128H .data                   DATA
 0003:00001128 00000258H .data$r                 DATA
 0003:00001380 000161c4H .bss                    DATA
 0004:00000000 000001ecH .idata$5                DATA
 0004:000001ec 00000014H .idata$2                DATA
 0004:00000200 00000014H .idata$3                DATA
 0004:00000214 000001ecH .idata$4                DATA
 0004:00000400 000008aaH .idata$6                DATA
 0005:00000000 0000020cH .gfids$x                DATA
 0005:0000020c 000001d6H .gfids$y                DATA
 0006:00000000 00000104H .00cfg                  DATA
 0007:00000000 00000170H .rsrc$01                DATA
 0007:00000170 000002ccH .rsrc$02                DATA

  Address         Publics by Value              Rva+Base       Lib:Object

 0000:00000000       __except_list              00000000     <absolute>
 0000:00000000       ___guard_iat_count         00000000     <absolute>
 0000:00000000       ___guard_fids_table        00000000     <absolute>
 0000:00000000       ___guard_iat_table         00000000     <absolute>
 0000:00000000       ___guard_longjmp_count     00000000     <absolute>
 0000:00000000       ___guard_fids_count        00000000     <absolute>
 0000:00000000       ___guard_longjmp_table     00000000     <absolute>
 0000:00000000       ___dynamic_value_reloc_table 00000000     <absolute>
 0000:00000009       ___safe_se_handler_count   00000009     <absolute>
 0000:00000100       ___guard_flags             00000100     <absolute>
 0000:00000000       ___ImageBase               00400000     <linker-defined>
 0001:00006b30       _AddFunctionName           00407b30 f   extractfuncs.obj
 0001:00006d10       _AddTokenToList            00407d10 f   extractfuncs.obj
 0001:00006d90       _ConcatDec                 00407d90 f   extractfuncs.obj
 0001:00006e00       _DumpReplaceFunctions      00407e00 f   extractfuncs.obj
 0001:00007610       _Error                     00408610 f   extractfuncs.obj
 0001:00007660       _FindFunctionName          00408660 f   extractfuncs.obj
 0001:000076c0       _GetFunctionNamesFromFile  004086c0 f   extractfuncs.obj
 0001:00007b10       _MayScrewUp                00408b10 f   extractfuncs.obj
 0001:00007b90       _ScrewUpFile               00408b90 f   extractfuncs.obj
 0001:00007d60       _StripTokenList            00408d60 f   extractfuncs.obj
 0001:00007df0       _WriteString               00408df0 f   extractfuncs.obj
 0001:00007e50       _WriteWhiteSpace           00408e50 f   extractfuncs.obj
 0001:00007ec0       ___local_stdio_printf_options 00408ec0 f i extractfuncs.obj
 0001:00007ee0       __vfprintf_l               00408ee0 f i extractfuncs.obj
 0001:00007f30       __vsnprintf_l              00408f30 f i extractfuncs.obj
 0001:00007fa0       __vsprintf_l               00408fa0 f i extractfuncs.obj
 0001:00007fe0       _main                      00408fe0 f   extractfuncs.obj
 0001:00008110       _printf                    00409110 f i extractfuncs.obj
 0001:00008160       _sprintf                   00409160 f i extractfuncs.obj
 0001:000081b0       _vprintf                   004091b0 f i extractfuncs.obj
 0001:000081f0       _Log_Close                 004091f0 f   l_log.obj
 0001:00008260       _Log_FileStruct            00409260 f   l_log.obj
 0001:00008280       _Log_Flush                 00409280 f   l_log.obj
 0001:000082b0       _Log_Open                  004092b0 f   l_log.obj
 0001:00008370       _Log_Print                 00409370 f   l_log.obj
 0001:00008400       _Log_Shutdown              00409400 f   l_log.obj
 0001:00008430       _Log_Write                 00409430 f   l_log.obj
 0001:00008490       _Log_WriteTimeStamped      00409490 f   l_log.obj
 0001:00008500       _vfprintf                  00409500 f i l_log.obj
 0001:00008530       _FreeMemory                00409530 f   l_memory.obj
 0001:00008570       _GetClearedHunkMemory      00409570 f   l_memory.obj
 0001:000085c0       _GetClearedMemory          004095c0 f   l_memory.obj
 0001:00008610       _GetHunkMemory             00409610 f   l_memory.obj
 0001:00008670       _GetMemory                 00409670 f   l_memory.obj
 0001:000086d0       _PrintMemoryLabels         004096d0 f   l_memory.obj
 0001:000086f0       _PrintUsedMemorySize       004096f0 f   l_memory.obj
 0001:00008710       _PC_Directive_include      00409710 f   l_precomp.obj
 0001:00008a20       _PC_Directive_undef        00409a20 f   l_precomp.obj
 0001:00008c30       _PC_Directive_define       00409c30 f   l_precomp.obj
 0001:000092a0       _PC_Directive_ifdef        0040a2a0 f   l_precomp.obj
 0001:000092d0       _PC_Directive_ifndef       0040a2d0 f   l_precomp.obj
 0001:00009300       _PC_Directive_else         0040a300 f   l_precomp.obj
 0001:000093b0       _PC_Directive_endif        0040a3b0 f   l_precomp.obj
 0001:00009410       _PC_Directive_elif         0040a410 f   l_precomp.obj
 0001:000094d0       _PC_Directive_if           0040a4d0 f   l_precomp.obj
 0001:00009550       _PC_Directive_line         0040a550 f   l_precomp.obj
 0001:00009580       _PC_Directive_error        0040a580 f   l_precomp.obj
 0001:00009610       _PC_Directive_pragma       0040a610 f   l_precomp.obj
 0001:00009680       _PC_Directive_eval         0040a680 f   l_precomp.obj
 0001:000097a0       _PC_Directive_evalfloat    0040a7a0 f   l_precomp.obj
 0001:000098d0       _PC_DollarDirective_evalint 0040a8d0 f   l_precomp.obj
 0001:00009a00       _PC_DollarDirective_evalfloat 0040aa00 f   l_precomp.obj
 0001:00009b40       _FreeSource                0040ab40 f   l_precomp.obj
 0001:00009d00       _LoadSourceFile            0040ad00 f   l_precomp.obj
 0001:00009e20       _LoadSourceMemory          0040ae20 f   l_precomp.obj
 0001:00009f40       _PC_AddBuiltinDefines      0040af40 f   l_precomp.obj
 0001:0000a0a0       _PC_AddDefine              0040b0a0 f   l_precomp.obj
 0001:0000a100       _PC_AddDefineToHash        0040b100 f   l_precomp.obj
 0001:0000a150       _PC_AddGlobalDefine        0040b150 f   l_precomp.obj
 0001:0000a1b0       _PC_AddGlobalDefinesToSource 0040b1b0 f   l_precomp.obj
 0001:0000a220       _PC_CheckTokenString       0040b220 f   l_precomp.obj
 0001:0000a2c0       _PC_CheckTokenType         0040b2c0 f   l_precomp.obj
 0001:0000a370       _PC_ClearTokenWhiteSpace   0040b370 f   l_precomp.obj
 0001:0000a3c0       _PC_ConvertPath            0040b3c0 f   l_precomp.obj
 0001:0000a490       _PC_CopyDefine             0040b490 f   l_precomp.obj
 0001:0000a650       _PC_CopyToken              0040b650 f   l_precomp.obj
 0001:0000a6e0       _PC_DefineFromString       0040b6e0 f   l_precomp.obj
 0001:0000a8e0       _PC_Directive_if_def       0040b8e0 f   l_precomp.obj
 0001:0000aa70       _PC_DollarEvaluate         0040ba70 f   l_precomp.obj
 0001:0000aee0       _PC_Evaluate               0040bee0 f   l_precomp.obj
 0001:0000b2b0       _PC_EvaluateTokens         0040c2b0 f   l_precomp.obj
 0001:0000c690       _PC_ExpandBuiltinDefine    0040d690 f   l_precomp.obj
 0001:0000ca00       _PC_ExpandDefine           0040da00 f   l_precomp.obj
 0001:0000d000       _PC_ExpandDefineIntoSource 0040e000 f   l_precomp.obj
 0001:0000d080       _PC_ExpectAnyToken         0040e080 f   l_precomp.obj
 0001:0000d0d0       _PC_ExpectTokenString      0040e0d0 f   l_precomp.obj
 0001:0000d190       _PC_ExpectTokenType        0040e190 f   l_precomp.obj
 0001:0000d4c0       _PC_FindDefine             0040e4c0 f   l_precomp.obj
 0001:0000d520       _PC_FindDefineParm         0040e520 f   l_precomp.obj
 0001:0000d5a0       _PC_FindHashedDefine       0040e5a0 f   l_precomp.obj
 0001:0000d620       _PC_FreeDefine             0040e620 f   l_precomp.obj
 0001:0000d6c0       _PC_FreeToken              0040e6c0 f   l_precomp.obj
 0001:0000d700       _PC_InitTokenHeap          0040e700 f   l_precomp.obj
 0001:0000d720       _PC_MergeTokens            0040e720 f   l_precomp.obj
 0001:0000d7e0       _PC_NameHash               0040e7e0 f   l_precomp.obj
 0001:0000d870       _PC_OperatorPriority       0040e870 f   l_precomp.obj
 0001:0000da30       _PC_PopIndent              0040ea30 f   l_precomp.obj
 0001:0000db00       _PC_PrintDefineHashTable   0040eb00 f   l_precomp.obj
 0001:0000dba0       _PC_PushIndent             0040eba0 f   l_precomp.obj
 0001:0000dc50       _PC_PushScript             0040ec50 f   l_precomp.obj
 0001:0000dcf0       _PC_ReadDefineParms        0040ecf0 f   l_precomp.obj
 0001:0000e120       _PC_ReadDirective          0040f120 f   l_precomp.obj
 0001:0000e270       _PC_ReadDollarDirective    0040f270 f   l_precomp.obj
 0001:0000e3e0       _PC_ReadLine               0040f3e0 f   l_precomp.obj
 0001:0000e470       _PC_ReadSourceToken        0040f470 f   l_precomp.obj
 0001:0000e610       _PC_ReadToken              0040f610 f   l_precomp.obj
 0001:0000e7b0       _PC_RemoveAllGlobalDefines 0040f7b0 f   l_precomp.obj
 0001:0000e810       _PC_RemoveGlobalDefine     0040f810 f   l_precomp.obj
 0001:0000e870       _PC_SetIncludePath         0040f870 f   l_precomp.obj
 0001:0000e920       _PC_SetPunctuations        0040f920 f   l_precomp.obj
 0001:0000e950       _PC_SkipUntilString        0040f950 f   l_precomp.obj
 0001:0000e9d0       _PC_StringizeTokens        0040f9d0 f   l_precomp.obj
 0001:0000ead0       _PC_UnreadLastToken        0040fad0 f   l_precomp.obj
 0001:0000eb00       _PC_UnreadSourceToken      0040fb00 f   l_precomp.obj
 0001:0000eb60       _PC_UnreadToken            0040fb60 f   l_precomp.obj
 0001:0000eb90       _PC_WhiteSpaceBeforeToken  0040fb90 f   l_precomp.obj
 0001:0000ebe0       _Q_stricmp                 0040fbe0 f   l_precomp.obj
 0001:0000ec10       _Q_stricmpn                0040fc10 f   l_precomp.obj
 0001:0000ecf0       _Q_strlwr                  0040fcf0 f   l_precomp.obj
 0001:0000ed50       _Q_strncmp                 0040fd50 f   l_precomp.obj
 0001:0000edf0       _Q_strncpyz                0040fdf0 f   l_precomp.obj
 0001:0000ee60       _Q_strupr                  0040fe60 f   l_precomp.obj
 0001:0000eec0       _SourceError               0040fec0 f   l_precomp.obj
 0001:0000ef30       _SourceWarning             0040ff30 f   l_precomp.obj
 0001:0000efa0       _UnreadSignToken           0040ffa0 f   l_precomp.obj
 0001:0000f0c0       _vsprintf                  004100c0 f i l_precomp.obj
 0001:0000f100       _EndOfScript               00410100 f   l_script.obj
 0001:0000f150       _FileLength                00410150 f   l_script.obj
 0001:0000f1c0       _FreeScript                004101c0 f   l_script.obj
 0001:0000f210       _GetScriptFlags            00410210 f   l_script.obj
 0001:0000f230       _LoadScriptFile            00410230 f   l_script.obj
 0001:0000f3f0       _LoadScriptMemory          004103f0 f   l_script.obj
 0001:0000f540       _NumLinesCrossed           00410540 f   l_script.obj
 0001:0000f570       _NumberValue               00410570 f   l_script.obj
 0001:0000f920       _PS_CheckTokenString       00410920 f   l_script.obj
 0001:0000f9c0       _PS_CheckTokenType         004109c0 f   l_script.obj
 0001:0000fa70       _PS_CreatePunctuationTable 00410a70 f   l_script.obj
 0001:0000fc30       _PS_ExpectAnyToken         00410c30 f   l_script.obj
 0001:0000fc80       _PS_ExpectTokenString      00410c80 f   l_script.obj
 0001:0000fd40       _PS_ExpectTokenType        00410d40 f   l_script.obj
 0001:000100b0       _PS_NextWhiteSpaceChar     004110b0 f   l_script.obj
 0001:00010120       _PS_ReadEscapeCharacter    00411120 f   l_script.obj
 0001:00010540       _PS_ReadLiteral            00411540 f   l_script.obj
 0001:00010780       _PS_ReadName               00411780 f   l_script.obj
 0001:000108b0       _PS_ReadNumber             004118b0 f   l_script.obj
 0001:00010f30       _PS_ReadPrimitive          00411f30 f   l_script.obj
 0001:00011020       _PS_ReadPunctuation        00412020 f   l_script.obj
 0001:00011140       _PS_ReadString             00412140 f   l_script.obj
 0001:00011470       _PS_ReadToken              00412470 f   l_script.obj
 0001:000117f0       _PS_ReadWhiteSpace         004127f0 f   l_script.obj
 0001:00011ad0       _PS_SkipUntilString        00412ad0 f   l_script.obj
 0001:00011b50       _PS_UnreadLastToken        00412b50 f   l_script.obj
 0001:00011b80       _PS_UnreadToken            00412b80 f   l_script.obj
 0001:00011bd0       _PunctuationFromNum        00412bd0 f   l_script.obj
 0001:00011c50       _ReadSignedFloat           00412c50 f   l_script.obj
 0001:00011d50       _ReadSignedInt             00412d50 f   l_script.obj
 0001:00011e30       _ResetScript               00412e30 f   l_script.obj
 0001:00011ee0       _ScriptError               00412ee0 f   l_script.obj
 0001:00011f60       _ScriptSkipTo              00412f60 f   l_script.obj
 0001:00012020       _ScriptWarning             00413020 f   l_script.obj
 0001:000120a0       _SetScriptFlags            004130a0 f   l_script.obj
 0001:000120d0       _SetScriptPunctuations     004130d0 f   l_script.obj
 0001:00012140       _StripDoubleQuotes         00413140 f   l_script.obj
 0001:000121c0       _StripSingleQuotes         004131c0 f   l_script.obj
 0001:00012232       _FindFirstFileA@8          00413232 f   kernel32:KERNEL32.dll
 0001:00012238       _FindNextFileA@8           00413238 f   kernel32:KERNEL32.dll
 0001:00012240       @__security_check_cookie@4 00413240 f   LIBCMTD:_secchk_.obj
 0001:00012260       __ftoui3                   00413260 f   LIBCMTD:_ftol3_.obj
 0001:0001226f       __ftoul3                   0041326f f   LIBCMTD:_ftol3_.obj
 0001:0001227e       __ftol3                    0041327e f   LIBCMTD:_ftol3_.obj
 0001:0001228b       __ftol3_NaN                0041328b f   LIBCMTD:_ftol3_.obj
 0001:000122a3       __ftol3_work               004132a3 f   LIBCMTD:_ftol3_.obj
 0001:00012329       __ftol3_common             00413329 f   LIBCMTD:_ftol3_.obj
 0001:000123eb       __ftol3_arg_error          004133eb f   LIBCMTD:_ftol3_.obj
 0001:000123fd       __ftol3_except             004133fd f   LIBCMTD:_ftol3_.obj
 0001:00012441       __dtoui3                   00413441 f   LIBCMTD:_ftol3_.obj
 0001:00012450       __dtoul3                   00413450 f   LIBCMTD:_ftol3_.obj
 0001:0001245f       __dtol3                    0041345f f   LIBCMTD:_ftol3_.obj
 0001:0001246c       __dtol3_NaN                0041346c f   LIBCMTD:_ftol3_.obj
 0001:00012489       __dtol3_work               00413489 f   LIBCMTD:_ftol3_.obj
 0001:00012570       __ultod3                   00413570 f   LIBCMTD:_ftol3_.obj
 0001:000125b0       __ltod3                    004135b0 f   LIBCMTD:_ftol3_.obj
 0001:00012a90       ?configure_argv@__scrt_narrow_argv_policy@@SAHXZ 00413a90 f i LIBCMTD:exe_main.obj
 0001:00012ab0       ?get_app_type@__scrt_main_policy@@SA?AW4_crt_app_type@@XZ 00413ab0 f i LIBCMTD:exe_main.obj
 0001:00012b00       _mainCRTStartup            00413b00 f   LIBCMTD:exe_main.obj
 0001:00012b10       ___raise_securityfailure   00413b10 f   LIBCMTD:gs_report.obj
 0001:00012b50       ___report_gsfailure        00413b50 f   LIBCMTD:gs_report.obj
 0001:00012ca0       ___report_rangecheckfailure 00413ca0 f   LIBCMTD:gs_report.obj
 0001:00012cb0       ___report_securityfailure  00413cb0 f   LIBCMTD:gs_report.obj
 0001:00012dc0       ___report_securityfailureEx 00413dc0 f   LIBCMTD:gs_report.obj
 0001:00012f30       ??$__crt_fast_decode_pointer@PAP6AXXZ@@YAPAP6AXXZQAP6AXXZ@Z 00413f30 f i LIBCMTD:utility.obj
 0001:00012f60       ??$__crt_fast_encode_pointer@PAP6AXXZ@@YAPAP6AXXZQAP6AXXZ@Z 00413f60 f i LIBCMTD:utility.obj
 0001:00012fa0       ?__crt_rotate_pointer_value@@YAIIH@Z 00413fa0 f i LIBCMTD:utility.obj
 0001:000130f0       _NtCurrentTeb              004140f0 f i LIBCMTD:utility.obj
 0001:00013100       ___scrt_acquire_startup_lock 00414100 f   LIBCMTD:utility.obj
 0001:00013160       ___scrt_dllmain_after_initialize_c 00414160 f   LIBCMTD:utility.obj
 0001:000131a0       ___scrt_dllmain_before_initialize_c 004141a0 f   LIBCMTD:utility.obj
 0001:000131d0       ___scrt_dllmain_crt_thread_attach 004141d0 f   LIBCMTD:utility.obj
 0001:00013210       ___scrt_dllmain_crt_thread_detach 00414210 f   LIBCMTD:utility.obj
 0001:00013230       ___scrt_dllmain_exception_filter 00414230 f   LIBCMTD:utility.obj
 0001:00013290       ___scrt_dllmain_uninitialize_c 00414290 f   LIBCMTD:utility.obj
 0001:000132d0       ___scrt_dllmain_uninitialize_critical 004142d0 f   LIBCMTD:utility.obj
 0001:000132f0       ___scrt_initialize_crt     004142f0 f   LIBCMTD:utility.obj
 0001:00013350       ___scrt_initialize_onexit_tables 00414350 f   LIBCMTD:utility.obj
 0001:00013450       ___scrt_is_nonwritable_in_current_image 00414450 f   LIBCMTD:utility.obj
 0001:000135d0       ___scrt_release_startup_lock 004145d0 f   LIBCMTD:utility.obj
 0001:00013600       ___scrt_uninitialize_crt   00414600 f   LIBCMTD:utility.obj
 0001:00013650       __onexit                   00414650 f   LIBCMTD:utility.obj
 0001:000136e0       _at_quick_exit             004146e0 f   LIBCMTD:utility.obj
 0001:00013740       _atexit                    00414740 f   LIBCMTD:utility.obj
 0001:00013780       ___security_init_cookie    00414780 f   LIBCMTD:gs_support.obj
 0001:000138a0       __matherr                  004148a0 f   LIBCMTD:matherr.obj
 0001:000138b0       __get_startup_argv_mode    004148b0 f   LIBCMTD:argv_mode.obj
 0001:000138c0       __get_startup_commit_mode  004148c0 f   LIBCMTD:commit_mode.obj
 0001:000138d0       __get_startup_file_mode    004148d0 f   LIBCMTD:file_mode.obj
 0001:000138e0       __get_startup_new_mode     004148e0 f   LIBCMTD:new_mode.obj
 0001:000138f0       __get_startup_thread_locale_mode 004148f0 f   LIBCMTD:thread_locale.obj
 0001:00013900       ?__scrt_initialize_type_info@@YAXXZ 00414900 f   LIBCMTD:tncleanup.obj
 0001:00013920       ?__scrt_uninitialize_type_info@@YAXXZ 00414920 f   LIBCMTD:tncleanup.obj
 0001:00013940       __should_initialize_environment 00414940 f   LIBCMTD:env_mode.obj
 0001:00013950       __initialize_default_precision 00414950 f   LIBCMTD:default_precision.obj
 0001:00013980       __initialize_invalid_parameter_handler 00414980 f   LIBCMTD:invalid_parameter_handler.obj
 0001:00013990       __initialize_denormal_control 00414990 f   LIBCMTD:denormal_control.obj
 0001:000139a0       ___local_stdio_scanf_options 004149a0 f i LIBCMTD:default_local_stdio_options.obj
 0001:000139b0       ___scrt_initialize_default_local_stdio_options 004149b0 f   LIBCMTD:default_local_stdio_options.obj
 0001:00013a00       ___scrt_is_user_matherr_present 00414a00 f   LIBCMTD:matherr_detection.obj
 0001:00013a30       ___scrt_get_dyn_tls_init_callback 00414a30 f   LIBCMTD:dyn_tls_init.obj
 0001:00013a40       ___scrt_get_dyn_tls_dtor_callback 00414a40 f   LIBCMTD:dyn_tls_dtor.obj
 0001:00013a50       ___scrt_fastfail           00414a50 f   LIBCMTD:utility_desktop.obj
 0001:00013be0       ___scrt_get_show_window_mode 00414be0 f   LIBCMTD:utility_desktop.obj
 0001:00013c30       ___scrt_initialize_winrt   00414c30 f   LIBCMTD:utility_desktop.obj
 0001:00013c40       ___scrt_is_managed_app     00414c40 f   LIBCMTD:utility_desktop.obj
 0001:00013cf0       ___scrt_set_unhandled_exception_filter 00414cf0 f   LIBCMTD:utility_desktop.obj
 0001:00013d10       ___scrt_unhandled_exception_filter@4 00414d10 f   LIBCMTD:utility_desktop.obj
 0001:00013d90       __crt_debugger_hook        00414d90 f   LIBCMTD:utility_desktop.obj
 0001:00013db0       __RTC_Initialize           00414db0 f   LIBCMTD:_initsect_.obj
 0001:00013df0       __RTC_Terminate            00414df0 f   LIBCMTD:_initsect_.obj
 0001:00013e30       @_guard_check_icall@4      00414e30 f i LIBCMTD:checkcfg.obj
 0001:00013e50       ___isa_available_init      00414e50 f   LIBCMTD:_cpu_disp_.obj
 0001:000141e0       ___scrt_is_ucrt_dll_in_use 004151e0 f   LIBCMTD:ucrt_detection.obj
 0001:00014210       @_guard_check_icall_nop@4  00415210 f i LIBCMTD:guard_support.obj
 0001:00014220       __guard_icall_checks_enforced 00415220 f i LIBCMTD:guard_support.obj
 0001:00014250       _memcpy                    00415250 f   libvcruntimed:memcpy.obj
 0001:00014930       _memset                    00415930 f   libvcruntimed:memset.obj
 0001:00014b60       __except_handler4          00415b60 f   libvcruntimed:_chandler4_.obj
 0001:00014db0       ___vcrt_initialize         00415db0 f   libvcruntimed:initialization.obj
 0001:00014e00       ___vcrt_thread_attach      00415e00 f   libvcruntimed:initialization.obj
 0001:00014e20       ___vcrt_thread_detach      00415e20 f   libvcruntimed:initialization.obj
 0001:00014e40       ___vcrt_uninitialize       00415e40 f   libvcruntimed:initialization.obj
 0001:00014e70       ___vcrt_uninitialize_critical 00415e70 f   libvcruntimed:initialization.obj
 0001:00014ed0       ??$?RD@__crt_internal_free_policy@@QBEXQBD@Z 00415ed0 f i libvcruntimed:std_type_info.obj
 0001:00014f00       ??$?RX@__crt_internal_free_policy@@QBEXQBX@Z 00415f00 f i libvcruntimed:std_type_info.obj
 0001:00014f30       ??$__crt_interlocked_compare_exchange_pointer@$$CBD$$T$$T@@YAPBDPDSBD$$T1@Z 00415f30 f i libvcruntimed:std_type_info.obj
 0001:00014f50       ??$__crt_interlocked_compare_exchange_pointer@$$CBDPAD$$T@@YAPBDPDSBDQAD$$T@Z 00415f50 f i libvcruntimed:std_type_info.obj
 0001:00014f70       ??$__crt_interlocked_read_pointer@$$CBD@@YAPBDPDSBD@Z 00415f70 f i libvcruntimed:std_type_info.obj
 0001:00014f90       ??0?$__crt_unique_heap_ptr@DU__crt_internal_free_policy@@@@QAE@QAD@Z 00415f90 f i libvcruntimed:std_type_info.obj
 0001:00014fb0       ??0?$__crt_unique_heap_ptr@XU__crt_internal_free_policy@@@@QAE@QAX@Z 00415fb0 f i libvcruntimed:std_type_info.obj
 0001:00014fd0       ??1?$__crt_unique_heap_ptr@DU__crt_internal_free_policy@@@@QAE@XZ 00415fd0 f i libvcruntimed:std_type_info.obj
 0001:00014ff0       ??1?$__crt_unique_heap_ptr@XU__crt_internal_free_policy@@@@QAE@XZ 00415ff0 f i libvcruntimed:std_type_info.obj
 0001:00015050       ??B?$__crt_unique_heap_ptr@DU__crt_internal_free_policy@@@@QBE_NXZ 00416050 f i libvcruntimed:std_type_info.obj
 0001:00015070       ??B?$__crt_unique_heap_ptr@XU__crt_internal_free_policy@@@@QBE_NXZ 00416070 f i libvcruntimed:std_type_info.obj
 0001:000150f0       ?detach@?$__crt_unique_heap_ptr@XU__crt_internal_free_policy@@@@QAEPAXXZ 004160f0 f i libvcruntimed:std_type_info.obj
 0001:00015120       ?get@?$__crt_unique_heap_ptr@DU__crt_internal_free_policy@@@@QBEPADXZ 00416120 f i libvcruntimed:std_type_info.obj
 0001:00015140       ?get@?$__crt_unique_heap_ptr@XU__crt_internal_free_policy@@@@QBEPAXXZ 00416140 f i libvcruntimed:std_type_info.obj
 0001:00015160       ?is_valid@?$__crt_unique_heap_ptr@DU__crt_internal_free_policy@@@@QBE_NXZ 00416160 f i libvcruntimed:std_type_info.obj
 0001:000151a0       ?is_valid@?$__crt_unique_heap_ptr@XU__crt_internal_free_policy@@@@QBE_NXZ 004161a0 f i libvcruntimed:std_type_info.obj
 0001:000151e0       ?release@?$__crt_unique_heap_ptr@DU__crt_internal_free_policy@@@@QAEXXZ 004161e0 f i libvcruntimed:std_type_info.obj
 0001:00015210       ?release@?$__crt_unique_heap_ptr@XU__crt_internal_free_policy@@@@QAEXXZ 00416210 f i libvcruntimed:std_type_info.obj
 0001:00015240       ___std_type_info_compare   00416240 f   libvcruntimed:std_type_info.obj
 0001:00015270       ___std_type_info_destroy_list 00416270 f   libvcruntimed:std_type_info.obj
 0001:000152c0       ___std_type_info_hash      004162c0 f   libvcruntimed:std_type_info.obj
 0001:00015330       ___std_type_info_name      00416330 f   libvcruntimed:std_type_info.obj
 0001:00015580       __local_unwind4            00416580 f   libvcruntimed:_exsup4_.obj
 0001:00015656       __seh_longjmp_unwind4@4    00416656 f   libvcruntimed:_exsup4_.obj
 0001:0001567e       @_EH4_CallFilterFunc@8     0041667e f   libvcruntimed:_exsup4_.obj
 0001:00015695       @_EH4_TransferToHandler@8  00416695 f   libvcruntimed:_exsup4_.obj
 0001:000156ae       @_EH4_GlobalUnwind2@8      004166ae f   libvcruntimed:_exsup4_.obj
 0001:000156c7       @_EH4_LocalUnwind@16       004166c7 f   libvcruntimed:_exsup4_.obj
 0001:00015740       ___except_validate_context_record 00416740 f   libvcruntimed:jbcxrval.obj
 0001:000157a0       ___except_validate_jump_buffer 004167a0 f   libvcruntimed:jbcxrval.obj
 0001:00015800       ??$?RU__vcrt_ptd@@@__crt_internal_free_policy@@QBEXQBU__vcrt_ptd@@@Z 00416800 f i libvcruntimed:per_thread_data.obj
 0001:00015830       ??0?$__crt_unique_heap_ptr@U__vcrt_ptd@@U__crt_internal_free_policy@@@@QAE@QAU__vcrt_ptd@@@Z 00416830 f i libvcruntimed:per_thread_data.obj
 0001:00015870       ??1?$__crt_unique_heap_ptr@U__vcrt_ptd@@U__crt_internal_free_policy@@@@QAE@XZ 00416870 f i libvcruntimed:per_thread_data.obj
 0001:000158b0       ??B?$__crt_unique_heap_ptr@U__vcrt_ptd@@U__crt_internal_free_policy@@@@QBE_NXZ 004168b0 f i libvcruntimed:per_thread_data.obj
 0001:000158d0       ?detach@?$__crt_unique_heap_ptr@U__vcrt_ptd@@U__crt_internal_free_policy@@@@QAEPAU__vcrt_ptd@@XZ 004168d0 f i libvcruntimed:per_thread_data.obj
 0001:00015900       ?get@?$__crt_unique_heap_ptr@U__vcrt_ptd@@U__crt_internal_free_policy@@@@QBEPAU__vcrt_ptd@@XZ 00416900 f i libvcruntimed:per_thread_data.obj
 0001:00015920       ?is_valid@?$__crt_unique_heap_ptr@U__vcrt_ptd@@U__crt_internal_free_policy@@@@QBE_NXZ 00416920 f i libvcruntimed:per_thread_data.obj
 0001:00015960       ?release@?$__crt_unique_heap_ptr@U__vcrt_ptd@@U__crt_internal_free_policy@@@@QAEXXZ 00416960 f i libvcruntimed:per_thread_data.obj
 0001:000159c0       ___vcrt_freefls@4          004169c0 f   libvcruntimed:per_thread_data.obj
 0001:000159f0       ___vcrt_freeptd            004169f0 f   libvcruntimed:per_thread_data.obj
 0001:00015a60       ___vcrt_getptd             00416a60 f   libvcruntimed:per_thread_data.obj
 0001:00015a90       ___vcrt_getptd_noexit      00416a90 f   libvcruntimed:per_thread_data.obj
 0001:00015c50       ___vcrt_initialize_ptd     00416c50 f   libvcruntimed:per_thread_data.obj
 0001:00015cb0       ___vcrt_uninitialize_ptd   00416cb0 f   libvcruntimed:per_thread_data.obj
 0001:00015cf0       ___vcrt_initialize_locks   00416cf0 f   libvcruntimed:locks.obj
 0001:00015d60       ___vcrt_lock               00416d60 f   libvcruntimed:locks.obj
 0001:00015d80       ___vcrt_uninitialize_locks 00416d80 f   libvcruntimed:locks.obj
 0001:00015de0       ___vcrt_unlock             00416de0 f   libvcruntimed:locks.obj
 0001:00015e00       ??$?BX@__crt_fast_encoded_nullptr_t@@QBEPAXXZ 00416e00 f i libvcruntimed:winapi_downlevel.obj
 0001:00015e20       ??$__crt_fast_decode_pointer@PAX@@YAPAXQAX@Z 00416e20 f i libvcruntimed:winapi_downlevel.obj
 0001:00015e50       ??$__crt_fast_encode_pointer@PAX@@YAPAXQAX@Z 00416e50 f i libvcruntimed:winapi_downlevel.obj
 0001:00015e90       ??$__crt_interlocked_compare_exchange_pointer@UHINSTANCE__@@$$T$$T@@YAPAUHINSTANCE__@@PDSAU0@$$T1@Z 00416e90 f i libvcruntimed:winapi_downlevel.obj
 0001:00015eb0       ??$__crt_interlocked_compare_exchange_pointer@X$$T$$T@@YAPAXPDSAX$$T1@Z 00416eb0 f i libvcruntimed:winapi_downlevel.obj
 0001:00015ed0       ??$__crt_interlocked_exchange_pointer@UHINSTANCE__@@PAU1@@@YAPAUHINSTANCE__@@PDSAU0@QAU0@@Z 00416ed0 f i libvcruntimed:winapi_downlevel.obj
 0001:00015ee0       ??$__crt_interlocked_exchange_pointer@UHINSTANCE__@@PAX@@YAPAUHINSTANCE__@@PDSAU0@QAX@Z 00416ee0 f i libvcruntimed:winapi_downlevel.obj
 0001:00015ef0       ??$__crt_interlocked_exchange_pointer@XPAX@@YAPAXPDSAXQAX@Z 00416ef0 f i libvcruntimed:winapi_downlevel.obj
 0001:00015f00       ??$__crt_interlocked_read_pointer@UHINSTANCE__@@@@YAPAUHINSTANCE__@@PDSAU0@@Z 00416f00 f i libvcruntimed:winapi_downlevel.obj
 0001:00015f20       ??$__crt_interlocked_read_pointer@X@@YAPAXPDSAX@Z 00416f20 f i libvcruntimed:winapi_downlevel.obj
 0001:00015f40       ?__crt_fast_encode_pointer@@YA?AU__crt_fast_encoded_nullptr_t@@$$T@Z 00416f40 f i libvcruntimed:winapi_downlevel.obj
 0001:000164d0       ___vcrt_EventRegister      004174d0 f   libvcruntimed:winapi_downlevel.obj
 0001:00016520       ___vcrt_EventSetInformation 00417520 f   libvcruntimed:winapi_downlevel.obj
 0001:00016580       ___vcrt_EventUnregister    00417580 f   libvcruntimed:winapi_downlevel.obj
 0001:000165d0       ___vcrt_EventWriteTransfer 004175d0 f   libvcruntimed:winapi_downlevel.obj
 0001:00016630       ___vcrt_FlsAlloc           00417630 f   libvcruntimed:winapi_downlevel.obj
 0001:00016680       ___vcrt_FlsFree            00417680 f   libvcruntimed:winapi_downlevel.obj
 0001:000166d0       ___vcrt_FlsGetValue        004176d0 f   libvcruntimed:winapi_downlevel.obj
 0001:00016720       ___vcrt_FlsSetValue        00417720 f   libvcruntimed:winapi_downlevel.obj
 0001:00016780       ___vcrt_InitializeCriticalSectionEx 00417780 f   libvcruntimed:winapi_downlevel.obj
 0001:000167e0       ___vcrt_initialize_winapi_thunks 004177e0 f   libvcruntimed:winapi_downlevel.obj
 0001:00016860       ___vcrt_uninitialize_winapi_thunks 00417860 f   libvcruntimed:winapi_downlevel.obj
 0001:000168f0       ??$?B$$A6AXXZ@__crt_fast_encoded_nullptr_t@@QBEP6AXXZXZ 004178f0 f i libvcruntimed:purevirt_data.obj
 0001:00016910       ??$__crt_fast_encode_pointer@P6AXXZ@@YAP6AXXZQ6AXXZ@Z 00417910 f i libvcruntimed:purevirt_data.obj
 0001:00016950       ___vcrt_initialize_pure_virtual_call_handler 00417950 f   libvcruntimed:purevirt_data.obj
 0001:00016980       ??$__vcrt_va_start_verify_argument_type@QBD@@YAXXZ 00417980 f i libvcruntimed:undname.obj
 0001:00016990       ??0Block@_HeapManager@@QAE@XZ 00417990 f i libvcruntimed:undname.obj
 0001:000169b0       ??0DName@@QAE@AAPBDD@Z     004179b0 f   libvcruntimed:undname.obj
 0001:00016d20       ??0DName@@QAE@ABV0@@Z      00417d20 f i libvcruntimed:undname.obj
 0001:00016d50       ??0DName@@QAE@D@Z          00417d50 f   libvcruntimed:undname.obj
 0001:00016e60       ??0DName@@QAE@PAV0@@Z      00417e60 f   libvcruntimed:undname.obj
 0001:00016fe0       ??0DName@@QAE@PBD@Z        00417fe0 f   libvcruntimed:undname.obj
 0001:00017110       ??0DName@@QAE@W4DNameStatus@@@Z 00418110 f   libvcruntimed:undname.obj
 0001:00017270       ??0DName@@QAE@XZ           00418270 f i libvcruntimed:undname.obj
 0001:00017360       ??0DName@@QAE@_J@Z         00418360 f   libvcruntimed:undname.obj
 0001:00017540       ??0DName@@QAE@_K@Z         00418540 f   libvcruntimed:undname.obj
 0001:000176d0       ??0DNameNode@@IAE@XZ       004186d0 f   libvcruntimed:undname.obj
 0001:000176f0       ??0DNameStatusNode@@AAE@W4DNameStatus@@@Z 004186f0 f   libvcruntimed:undname.obj
 0001:00017760       ??0Replicator@@QAE@XZ      00418760 f i libvcruntimed:undname.obj
 0001:00017780       ??0UnDecorator@@QAE@PADPBDHP6APADJ@ZK@Z 00418780 f i libvcruntimed:undname.obj
 0001:00017840       ??0charNode@@QAE@D@Z       00418840 f   libvcruntimed:undname.obj
 0001:00017880       ??0pDNameNode@@QAE@PAVDName@@@Z 00418880 f   libvcruntimed:undname.obj
 0001:00017900       ??0pairNode@@QAE@PAVDNameNode@@0@Z 00418900 f   libvcruntimed:undname.obj
 0001:00017950       ??0pcharNode@@QAE@PBDH@Z   00418950 f   libvcruntimed:undname.obj
 0001:00017a10       ??2@YAPAXIAAV_HeapManager@@H@Z 00418a10 f i libvcruntimed:undname.obj
 0001:00017a30       ??4DName@@QAEAAV0@ABV0@@Z  00418a30 f   libvcruntimed:undname.obj
 0001:00017a60       ??4DName@@QAEAAV0@D@Z      00418a60 f i libvcruntimed:undname.obj
 0001:00017b70       ??4DName@@QAEAAV0@PAV0@@Z  00418b70 f   libvcruntimed:undname.obj
 0001:00017cf0       ??4DName@@QAEAAV0@PBD@Z    00418cf0 f   libvcruntimed:undname.obj
 0001:00017e00       ??4DName@@QAEAAV0@W4DNameStatus@@@Z 00418e00 f   libvcruntimed:undname.obj
 0001:00017f40       ??AReplicator@@QBE?AVDName@@H@Z 00418f40 f   libvcruntimed:undname.obj
 0001:00017fc0       ??BUnDecorator@@QAEPADXZ   00418fc0 f i libvcruntimed:undname.obj
 0001:00018310       ??H@YA?AVDName@@DABV0@@Z   00419310 f i libvcruntimed:undname.obj
 0001:00018350       ??H@YA?AVDName@@PBDABV0@@Z 00419350 f i libvcruntimed:undname.obj
 0001:00018390       ??H@YA?AVDName@@W4DNameStatus@@ABV0@@Z 00419390 f i libvcruntimed:undname.obj
 0001:000183d0       ??HDName@@QBE?AV0@ABV0@@Z  004193d0 f   libvcruntimed:undname.obj
 0001:00018420       ??HDName@@QBE?AV0@D@Z      00419420 f   libvcruntimed:undname.obj
 0001:00018470       ??HDName@@QBE?AV0@PAV0@@Z  00419470 f   libvcruntimed:undname.obj
 0001:000184c0       ??HDName@@QBE?AV0@PBD@Z    004194c0 f   libvcruntimed:undname.obj
 0001:00018510       ??HDName@@QBE?AV0@W4DNameStatus@@@Z 00419510 f   libvcruntimed:undname.obj
 0001:00018560       ??YDName@@QAEAAV0@ABV0@@Z  00419560 f   libvcruntimed:undname.obj
 0001:000185e0       ??YDName@@QAEAAV0@D@Z      004195e0 f   libvcruntimed:undname.obj
 0001:00018680       ??YDName@@QAEAAV0@PAV0@@Z  00419680 f   libvcruntimed:undname.obj
 0001:00018760       ??YDName@@QAEAAV0@PBD@Z    00419760 f   libvcruntimed:undname.obj
 0001:00018820       ??YDName@@QAEAAV0@W4DNameStatus@@@Z 00419820 f   libvcruntimed:undname.obj
 0001:000188a0       ??YReplicator@@QAEAAV0@ABVDName@@@Z 004198a0 f   libvcruntimed:undname.obj
 0001:00018950       ??_5DName@@QAEAAV0@ABV0@@Z 00419950 f   libvcruntimed:undname.obj
 0001:000189c0       ?Constructor@_HeapManager@@QAEXP6APAXI@ZP6AXPAX@Z@Z 004199c0 f i libvcruntimed:undname.obj
 0001:00018a10       ?Destructor@_HeapManager@@QAEXXZ 00419a10 f i libvcruntimed:undname.obj
 0001:00018a80       ?UScore@UnDecorator@@SAPBDW4Tokens@@@Z 00419a80 f   libvcruntimed:undname.obj
 0001:00018ac0       ?append@DName@@AAEXPAVDNameNode@@@Z 00419ac0 f   libvcruntimed:undname.obj
 0001:00018b70       ?composeDeclaration@UnDecorator@@CA?AVDName@@ABV2@@Z 00419b70 f i libvcruntimed:undname.obj
 0001:0001af20       ?dbGetString@DName@@QBEPADXZ 0041bf20 f   libvcruntimed:undname.obj
 0001:0001af50       ?doAccessSpecifiers@UnDecorator@@SAHXZ 0041bf50 f i libvcruntimed:undname.obj
 0001:0001af80       ?doAllocationLanguage@UnDecorator@@SAHXZ 0041bf80 f i libvcruntimed:undname.obj
 0001:0001afb0       ?doAllocationModel@UnDecorator@@SAHXZ 0041bfb0 f i libvcruntimed:undname.obj
 0001:0001afe0       ?doEcsu@UnDecorator@@SAHXZ 0041bfe0 f i libvcruntimed:undname.obj
 0001:0001b010       ?doEllipsis@UnDecorator@@SAHXZ 0041c010 f i libvcruntimed:undname.obj
 0001:0001b040       ?doFunctionReturns@UnDecorator@@SAHXZ 0041c040 f i libvcruntimed:undname.obj
 0001:0001b070       ?doMSKeywords@UnDecorator@@SAHXZ 0041c070 f i libvcruntimed:undname.obj
 0001:0001b0a0       ?doMemberTypes@UnDecorator@@SAHXZ 0041c0a0 f i libvcruntimed:undname.obj
 0001:0001b0d0       ?doNameOnly@UnDecorator@@SAHXZ 0041c0d0 f i libvcruntimed:undname.obj
 0001:0001b0f0       ?doNoIdentCharCheck@UnDecorator@@SAHXZ 0041c0f0 f i libvcruntimed:undname.obj
 0001:0001b110       ?doPchar@DName@@AAEXPBDH@Z 0041c110 f   libvcruntimed:undname.obj
 0001:0001b2a0       ?doPtr64@UnDecorator@@SAHXZ 0041c2a0 f i libvcruntimed:undname.obj
 0001:0001b2d0       ?doRestrictionSpec@UnDecorator@@SAHXZ 0041c2d0 f i libvcruntimed:undname.obj
 0001:0001b300       ?doThisTypes@UnDecorator@@SAHXZ 0041c300 f i libvcruntimed:undname.obj
 0001:0001b340       ?doThrowTypes@UnDecorator@@SAHXZ 0041c340 f i libvcruntimed:undname.obj
 0001:0001b370       ?doTypeOnly@UnDecorator@@SAHXZ 0041c370 f i libvcruntimed:undname.obj
 0001:0001b390       ?doUnderScore@UnDecorator@@SAHXZ 0041c390 f i libvcruntimed:undname.obj
 0001:0001b3c0       ?getArgumentList@UnDecorator@@CA?AVDName@@XZ 0041c3c0 f   libvcruntimed:undname.obj
 0001:0001b560       ?getArgumentTypes@UnDecorator@@CA?AVDName@@XZ 0041c560 f   libvcruntimed:undname.obj
 0001:0001b710       ?getArrayType@UnDecorator@@CA?AVDName@@ABV2@@Z 0041c710 f i libvcruntimed:undname.obj
 0001:0001b9d0       ?getBasedType@UnDecorator@@CA?AVDName@@XZ 0041c9d0 f   libvcruntimed:undname.obj
 0001:0001bac0       ?getBasicDataType@UnDecorator@@CA?AVDName@@ABV2@@Z 0041cac0 f   libvcruntimed:undname.obj
 0001:0001c220       ?getCallIndex@UnDecorator@@CA?AVDName@@XZ 0041d220 f i libvcruntimed:undname.obj
 0001:0001c240       ?getCallingConvention@UnDecorator@@CA?AVDName@@XZ 0041d240 f   libvcruntimed:undname.obj
 0001:0001c430       ?getDataIndirectType@UnDecorator@@CA?AVDName@@ABV2@PBD0H@Z 0041d430 f   libvcruntimed:undname.obj
 0001:0001cde0       ?getDataIndirectType@UnDecorator@@CA?AVDName@@XZ 0041dde0 f i libvcruntimed:undname.obj
 0001:0001ce30       ?getDataType@UnDecorator@@CA?AVDName@@PAV2@@Z 0041de30 f   libvcruntimed:undname.obj
 0001:0001cf90       ?getDecoratedName@UnDecorator@@CA?AVDName@@XZ 0041df90 f   libvcruntimed:undname.obj
 0001:0001d380       ?getDimension@UnDecorator@@CA?AVDName@@_N@Z 0041e380 f   libvcruntimed:undname.obj
 0001:0001d6e0       ?getDispatchTarget@UnDecorator@@CA?AVDName@@XZ 0041e6e0 f   libvcruntimed:undname.obj
 0001:0001d7a0       ?getDisplacement@UnDecorator@@CA?AVDName@@XZ 0041e7a0 f i libvcruntimed:undname.obj
 0001:0001d7c0       ?getECSUDataType@UnDecorator@@CA?AVDName@@XZ 0041e7c0 f   libvcruntimed:undname.obj
 0001:0001da00       ?getECSUName@UnDecorator@@CA?AVDName@@XZ 0041ea00 f i libvcruntimed:undname.obj
 0001:0001da20       ?getEnumType@UnDecorator@@CA?AVDName@@XZ 0041ea20 f i libvcruntimed:undname.obj
 0001:0001dbc0       ?getExtendedDataIndirectType@UnDecorator@@CA?AVDName@@AAPBDAA_NH@Z 0041ebc0 f   libvcruntimed:undname.obj
 0001:0001dea0       ?getExternalDataType@UnDecorator@@CA?AVDName@@ABV2@@Z 0041eea0 f i libvcruntimed:undname.obj
 0001:0001df60       ?getFunctionIndirectType@UnDecorator@@CA?AVDName@@ABV2@@Z 0041ef60 f   libvcruntimed:undname.obj
 0001:0001e510       ?getGuardNumber@UnDecorator@@CA?AVDName@@XZ 0041f510 f i libvcruntimed:undname.obj
 0001:0001e530       ?getLastChar@DName@@QBEDXZ 0041f530 f i libvcruntimed:undname.obj
 0001:0001e580       ?getLastChar@DNameStatusNode@@UBEDXZ 0041f580 f i libvcruntimed:undname.obj
 0001:0001e5c0       ?getLastChar@charNode@@UBEDXZ 0041f5c0 f i libvcruntimed:undname.obj
 0001:0001e5e0       ?getLastChar@pDNameNode@@UBEDXZ 0041f5e0 f i libvcruntimed:undname.obj
 0001:0001e620       ?getLastChar@pairNode@@UBEDXZ 0041f620 f i libvcruntimed:undname.obj
 0001:0001e6a0       ?getLastChar@pcharNode@@UBEDXZ 0041f6a0 f i libvcruntimed:undname.obj
 0001:0001e6e0       ?getLexicalFrame@UnDecorator@@CA?AVDName@@XZ 0041f6e0 f i libvcruntimed:undname.obj
 0001:0001e730       ?getMemory@_HeapManager@@QAEPAXIH@Z 0041f730 f   libvcruntimed:undname.obj
 0001:0001e890       ?getNumberOfDimensions@UnDecorator@@CAHXZ 0041f890 f   libvcruntimed:undname.obj
 0001:0001e9d0       ?getOperatorName@UnDecorator@@CA?AVDName@@_NPA_N@Z 0041f9d0 f i libvcruntimed:undname.obj
 0001:0001f690       ?getPointerType@UnDecorator@@CA?AVDName@@ABV2@0@Z 00420690 f i libvcruntimed:undname.obj
 0001:0001f6d0       ?getPointerTypeArray@UnDecorator@@CA?AVDName@@ABV2@0@Z 004206d0 f i libvcruntimed:undname.obj
 0001:0001f710       ?getPrimaryDataType@UnDecorator@@CA?AVDName@@ABV2@@Z 00420710 f   libvcruntimed:undname.obj
 0001:0001fc00       ?getPtrRefDataType@UnDecorator@@CA?AVDName@@ABV2@H@Z 00420c00 f   libvcruntimed:undname.obj
 0001:0001fe00       ?getPtrRefType@UnDecorator@@CA?AVDName@@ABV2@0PBD@Z 00420e00 f   libvcruntimed:undname.obj
 0001:0001ffd0       ?getReferenceType@UnDecorator@@CA?AVDName@@ABV2@0PBD@Z 00420fd0 f i libvcruntimed:undname.obj
 0001:00020000       ?getRestrictionSpec@UnDecorator@@CA?AVDName@@XZ 00421000 f   libvcruntimed:undname.obj
 0001:000201a0       ?getReturnType@UnDecorator@@CA?AVDName@@PAV2@@Z 004211a0 f   libvcruntimed:undname.obj
 0001:00020200       ?getScope@UnDecorator@@CA?AVDName@@XZ 00421200 f   libvcruntimed:undname.obj
 0001:00020830       ?getScopedName@UnDecorator@@CA?AVDName@@XZ 00421830 f   libvcruntimed:undname.obj
 0001:00020990       ?getSignedDimension@UnDecorator@@CA?AVDName@@XZ 00421990 f   libvcruntimed:undname.obj
 0001:00020a30       ?getStorageConvention@UnDecorator@@CA?AVDName@@XZ 00421a30 f i libvcruntimed:undname.obj
 0001:00020a50       ?getString@DName@@QBEPADPAD0@Z 00421a50 f i libvcruntimed:undname.obj
 0001:00020ab0       ?getString@DName@@QBEPADPADH@Z 00421ab0 f i libvcruntimed:undname.obj
 0001:00020b60       ?getString@DNameStatusNode@@UBEPADPAD0@Z 00421b60 f i libvcruntimed:undname.obj
 0001:00020ba0       ?getString@charNode@@UBEPADPAD0@Z 00421ba0 f i libvcruntimed:undname.obj
 0001:00020be0       ?getString@pDNameNode@@UBEPADPAD0@Z 00421be0 f i libvcruntimed:undname.obj
 0001:00020c30       ?getString@pairNode@@UBEPADPAD0@Z 00421c30 f i libvcruntimed:undname.obj
 0001:00020cd0       ?getString@pcharNode@@UBEPADPAD0@Z 00421cd0 f i libvcruntimed:undname.obj
 0001:00020d10       ?getStringEncoding@UnDecorator@@CA?AVDName@@PADH@Z 00421d10 f   libvcruntimed:undname.obj
 0001:00020e60       ?getStringHelper@@YAPADPAD00H@Z 00421e60 f i libvcruntimed:undname.obj
 0001:00020eb0       ?getSymbolName@UnDecorator@@CA?AVDName@@XZ 00421eb0 f i libvcruntimed:undname.obj
 0001:00020f60       ?getTemplateArgumentList@UnDecorator@@CA?AVDName@@XZ 00421f60 f   libvcruntimed:undname.obj
 0001:00021440       ?getTemplateConstant@UnDecorator@@CA?AVDName@@XZ 00422440 f   libvcruntimed:undname.obj
 0001:00021b50       ?getTemplateName@UnDecorator@@CA?AVDName@@_N@Z 00422b50 f   libvcruntimed:undname.obj
 0001:00021d90       ?getThisType@UnDecorator@@CA?AVDName@@XZ 00422d90 f i libvcruntimed:undname.obj
 0001:00021de0       ?getThrowTypes@UnDecorator@@CA?AVDName@@XZ 00422de0 f   libvcruntimed:undname.obj
 0001:00021eb0       ?getTypeEncoding@UnDecorator@@CAHXZ 00422eb0 f i libvcruntimed:undname.obj
 0001:00022b80       ?getVCallThunkType@UnDecorator@@CA?AVDName@@XZ 00423b80 f i libvcruntimed:undname.obj
 0001:00022c00       ?getVbTableType@UnDecorator@@CA?AVDName@@ABV2@@Z 00423c00 f i libvcruntimed:undname.obj
 0001:00022c20       ?getVdispMapType@UnDecorator@@CA?AVDName@@ABV2@@Z 00423c20 f i libvcruntimed:undname.obj
 0001:00022cb0       ?getVfTableType@UnDecorator@@CA?AVDName@@ABV2@@Z 00423cb0 f i libvcruntimed:undname.obj
 0001:00022ee0       ?getZName@UnDecorator@@CA?AVDName@@_N0@Z 00423ee0 f   libvcruntimed:undname.obj
 0001:00023260       ?haveTemplateParameters@UnDecorator@@SAHXZ 00424260 f i libvcruntimed:undname.obj
 0001:00023280       ?isArray@DName@@QBEHXZ     00424280 f i libvcruntimed:undname.obj
 0001:000232a0       ?isComArray@DName@@QBEHXZ  004242a0 f i libvcruntimed:undname.obj
 0001:000232c0       ?isEmpty@DName@@QBEHXZ     004242c0 f i libvcruntimed:undname.obj
 0001:00023300       ?isFull@Replicator@@QBEHXZ 00424300 f i libvcruntimed:undname.obj
 0001:00023340       ?isNoTE@DName@@QBEHXZ      00424340 f i libvcruntimed:undname.obj
 0001:00023360       ?isPinPtr@DName@@QBEHXZ    00424360 f i libvcruntimed:undname.obj
 0001:00023380       ?isPtrRef@DName@@QBEHXZ    00424380 f i libvcruntimed:undname.obj
 0001:000233a0       ?isUDC@DName@@QBEHXZ       004243a0 f i libvcruntimed:undname.obj
 0001:000233f0       ?isUDTThunk@DName@@QBEHXZ  004243f0 f i libvcruntimed:undname.obj
 0001:00023440       ?isVCallThunk@DName@@QBEHXZ 00424440 f i libvcruntimed:undname.obj
 0001:00023460       ?isValid@DName@@QBEHXZ     00424460 f i libvcruntimed:undname.obj
 0001:000234a0       ?length@DName@@QBEHXZ      004244a0 f i libvcruntimed:undname.obj
 0001:000234f0       ?length@DNameStatusNode@@UBEHXZ 004244f0 f i libvcruntimed:undname.obj
 0001:00023510       ?length@charNode@@UBEHXZ   00424510 f i libvcruntimed:undname.obj
 0001:00023530       ?length@pDNameNode@@UBEHXZ 00424530 f i libvcruntimed:undname.obj
 0001:00023570       ?length@pairNode@@UBEHXZ   00424570 f i libvcruntimed:undname.obj
 0001:00023600       ?length@pcharNode@@UBEHXZ  00424600 f i libvcruntimed:undname.obj
 0001:00023620       ?make@DNameStatusNode@@SAPAV1@W4DNameStatus@@@Z 00424620 f i libvcruntimed:undname.obj
 0001:000236b0       ?setIsArray@DName@@QAEXXZ  004246b0 f i libvcruntimed:undname.obj
 0001:000236e0       ?setIsComArray@DName@@QAEXXZ 004246e0 f i libvcruntimed:undname.obj
 0001:00023710       ?setIsNoTE@DName@@QAEXXZ   00424710 f i libvcruntimed:undname.obj
 0001:00023740       ?setIsPinPtr@DName@@QAEXXZ 00424740 f i libvcruntimed:undname.obj
 0001:00023770       ?setIsUDC@DName@@QAEXXZ    00424770 f i libvcruntimed:undname.obj
 0001:000237b0       ?setIsVCallThunk@DName@@QAEXXZ 004247b0 f i libvcruntimed:undname.obj
 0001:000237e0       ?setPtrRef@DName@@QAEAAV1@XZ 004247e0 f i libvcruntimed:undname.obj
 0001:00023810       ?status@DName@@QBE?AW4DNameStatus@@XZ 00424810 f i libvcruntimed:undname.obj
 0001:00023930       ___unDName                 00424930 f   libvcruntimed:undname.obj
 0001:00023a30       ___unDNameEx               00424a30 f   libvcruntimed:undname.obj
 0001:00023b30       __vsprintf_s_l             00424b30 f i libvcruntimed:undname.obj
 0001:00023b90       _sprintf_s                 00424b90 f i libvcruntimed:undname.obj
 0001:00023be0       __global_unwind2           00424be0 f   libvcruntimed:_exsup_.obj
 0001:00023c45       __local_unwind2            00424c45 f   libvcruntimed:_exsup_.obj
 0001:00023cc9       __abnormal_termination     00424cc9 f   libvcruntimed:_exsup_.obj
 0001:00023cec       __NLG_Notify1              00424cec f   libvcruntimed:_exsup_.obj
 0001:00023cf5       __NLG_Notify               00424cf5 f   libvcruntimed:_exsup_.obj
 0001:00023d0c       __NLG_Dispatch2            00424d0c     libvcruntimed:_exsup_.obj
 0001:00023d0c       __NLG_Dispatch             00424d0c     libvcruntimed:_exsup_.obj
 0001:00023d14       __NLG_Call                 00424d14 f   libvcruntimed:_exsup_.obj
 0001:00023d16       __NLG_Return2              00424d16     libvcruntimed:_exsup_.obj
 0001:00023d70       ??$__crt_fast_decode_pointer@P6AXXZ@@YAP6AXXZQ6AXXZ@Z 00424d70 f i libvcruntimed:purevirt.obj
 0001:00023da0       ??$__crt_interlocked_compare_exchange_pointer@$$A6AXXZ$$T$$T@@YAP6AXXZPDS6AXXZ$$T1@Z 00424da0 f i libvcruntimed:purevirt.obj
 0001:00023dc0       ??$__crt_interlocked_exchange_pointer@$$A6AXXZP6AXXZ@@YAP6AXXZPDS6AXXZQ6AXXZ@Z 00424dc0 f i libvcruntimed:purevirt.obj
 0001:00023dd0       ??$__crt_interlocked_read_pointer@$$A6AXXZ@@YAP6AXXZPDS6AXXZ@Z 00424dd0 f i libvcruntimed:purevirt.obj
 0001:00023df0       __get_purecall_handler     00424df0 f   libvcruntimed:purevirt.obj
 0001:00023e20       __purecall                 00424e20 f   libvcruntimed:purevirt.obj
 0001:00023e60       __set_purecall_handler     00424e60 f   libvcruntimed:purevirt.obj
 0001:00023ea0       ??$?RPAU__crt_stdio_stream_data@@@__crt_internal_free_policy@@QBEXQBQAU__crt_stdio_stream_data@@@Z 00424ea0 f i libucrtd:_file.obj
 0001:00023ed0       ??0?$__crt_unique_heap_ptr@PAU__crt_stdio_stream_data@@U__crt_internal_free_policy@@@@QAE@QAPAU__crt_stdio_stream_data@@@Z 00424ed0 f i libucrtd:_file.obj
 0001:00023ef0       ??0__crt_stdio_stream@@QAE@QAU_iobuf@@@Z 00424ef0 f i libucrtd:_file.obj
 0001:00023f10       ??1?$__crt_unique_heap_ptr@PAU__crt_stdio_stream_data@@U__crt_internal_free_policy@@@@QAE@XZ 00424f10 f i libucrtd:_file.obj
 0001:00023f30       ??C__crt_stdio_stream@@QBEPAU__crt_stdio_stream_data@@XZ 00424f30 f i libucrtd:_file.obj
 0001:00023f50       ?detach@?$__crt_unique_heap_ptr@PAU__crt_stdio_stream_data@@U__crt_internal_free_policy@@@@QAEPAPAU__crt_stdio_stream_data@@XZ 00424f50 f i libucrtd:_file.obj
 0001:00023f80       ?release@?$__crt_unique_heap_ptr@PAU__crt_stdio_stream_data@@U__crt_internal_free_policy@@@@QAEXXZ 00424f80 f i libucrtd:_file.obj
 0001:00023fc0       ___acrt_initialize_stdio   00424fc0 f   libucrtd:_file.obj
 0001:00024190       ___acrt_iob_func           00425190 f   libucrtd:_file.obj
 0001:000241b0       ___acrt_uninitialize_stdio 004251b0 f   libucrtd:_file.obj
 0001:00024250       __get_stream_buffer_pointers 00425250 f   libucrtd:_file.obj
 0001:00024360       __lock_file                00425360 f   libucrtd:_file.obj
 0001:00024390       __unlock_file              00425390 f   libucrtd:_file.obj
 0001:000243c0       ??$__crt_interlocked_read@J@@YAJPDJ@Z 004253c0 f i libucrtd:fclose.obj
 0001:000243e0       ?__crt_interlocked_read_32@@YAHPDH@Z 004253e0 f i libucrtd:fclose.obj
 0001:00024400       ?get_flags@__crt_stdio_stream@@QBEJXZ 00425400 f i libucrtd:fclose.obj
 0001:00024430       ?is_in_use@__crt_stdio_stream@@QBE_NXZ 00425430 f i libucrtd:fclose.obj
 0001:00024470       ?is_string_backed@__crt_stdio_stream@@QBE_NXZ 00425470 f i libucrtd:fclose.obj
 0001:000244b0       ?public_stream@__crt_stdio_stream@@QBEPAU_iobuf@@XZ 004254b0 f i libucrtd:fclose.obj
 0001:000244d0       ?valid@__crt_stdio_stream@@QBE_NXZ 004254d0 f i libucrtd:fclose.obj
 0001:00024510       __fclose_nolock            00425510 f   libucrtd:fclose.obj
 0001:000246a0       _fclose                    004256a0 f   libucrtd:fclose.obj
 0001:00024fe0       ??$open_file@ABQBDABQBDABHPAU_iobuf@@@?$__crt_char_traits@D@@SAPAU_iobuf@@ABQBD0ABH$$QAPAU1@@Z 00425fe0 f i libucrtd:fopen.obj
 0001:00025010       ??$open_file@ABQB_WABQB_WABHPAU_iobuf@@@?$__crt_char_traits@_W@@SAPAU_iobuf@@ABQB_W0ABH$$QAPAU1@@Z 00426010 f i libucrtd:fopen.obj
 0001:00025040       ?unlock@__crt_stdio_stream@@QBEXXZ 00426040 f i libucrtd:fopen.obj
 0001:00025070       __fsopen                   00426070 f   libucrtd:fopen.obj
 0001:000250a0       __wfopen                   004260a0 f   libucrtd:fopen.obj
 0001:000250c0       __wfopen_s                 004260c0 f   libucrtd:fopen.obj
 0001:000250f0       __wfsopen                  004260f0 f   libucrtd:fopen.obj
 0001:00025120       _fopen                     00426120 f   libucrtd:fopen.obj
 0001:00025140       _fopen_s                   00426140 f   libucrtd:fopen.obj
 0001:00025170       __fputc_nolock             00426170 f   libucrtd:fputc.obj
 0001:00025220       __fputchar                 00426220 f   libucrtd:fputc.obj
 0001:00025250       __putc_nolock              00426250 f   libucrtd:fputc.obj
 0001:00025270       _fputc                     00426270 f   libucrtd:fputc.obj
 0001:00025540       _putc                      00426540 f   libucrtd:fputc.obj
 0001:00025560       _putchar                   00426560 f   libucrtd:fputc.obj
 0001:00025580       ?has_any_buffer@__crt_stdio_stream@@QBE_NXZ 00426580 f i libucrtd:fread.obj
 0001:000255a0       ?has_any_of@__crt_stdio_stream@@QBE_NJ@Z 004265a0 f i libucrtd:fread.obj
 0001:000255e0       ?set_flags@__crt_stdio_stream@@QBE_NJ@Z 004265e0 f i libucrtd:fread.obj
 0001:00025640       __fread_nolock             00426640 f   libucrtd:fread.obj
 0001:00025670       __fread_nolock_s           00426670 f   libucrtd:fread.obj
 0001:00025e80       _fread                     00426e80 f   libucrtd:fread.obj
 0001:00025eb0       _fread_s                   00426eb0 f   libucrtd:fread.obj
 0001:000261a0       ?LongLongSub@@YAJ_J0PA_J@Z 004271a0 f i libucrtd:fseek.obj
 0001:000262b0       ?__acrt_stdio_reset_buffer@@YAXV__crt_stdio_stream@@@Z 004272b0 f i libucrtd:fseek.obj
 0001:000268e0       ?has_all_of@__crt_stdio_stream@@QBE_NJ@Z 004278e0 f i libucrtd:fseek.obj
 0001:00026930       ?lowio_handle@__crt_stdio_stream@@QBEHXZ 00427930 f i libucrtd:fseek.obj
 0001:00026960       ?unset_flags@__crt_stdio_stream@@QBE_NJ@Z 00427960 f i libucrtd:fseek.obj
 0001:000269c0       __fseek_nolock             004279c0 f   libucrtd:fseek.obj
 0001:00026a00       __fseeki64                 00427a00 f   libucrtd:fseek.obj
 0001:00026a40       __fseeki64_nolock          00427a40 f   libucrtd:fseek.obj
 0001:00026a80       _fseek                     00427a80 f   libucrtd:fseek.obj
 0001:000278a0       ?ctrl_z@__crt_stdio_stream@@QBE_NXZ 004288a0 f i libucrtd:ftell.obj
 0001:000278c0       ?has_big_buffer@__crt_stdio_stream@@QBE_NXZ 004288c0 f i libucrtd:ftell.obj
 0001:000278e0       ?has_crt_buffer@__crt_stdio_stream@@QBE_NXZ 004288e0 f i libucrtd:ftell.obj
 0001:00027900       ?has_setvbuf_buffer@__crt_stdio_stream@@QBE_NXZ 00428900 f i libucrtd:ftell.obj
 0001:00027920       __ftell_nolock             00428920 f   libucrtd:ftell.obj
 0001:00027950       __ftelli64                 00428950 f   libucrtd:ftell.obj
 0001:00027980       __ftelli64_nolock          00428980 f   libucrtd:ftell.obj
 0001:000279b0       _ftell                     004289b0 f   libucrtd:ftell.obj
 0001:000279e0       ??$?R_W@__crt_internal_free_policy@@QBEXQB_W@Z 004289e0 f i libucrtd:unlink.obj
 0001:00027a10       ??0?$__crt_unique_heap_ptr@_WU__crt_internal_free_policy@@@@QAE@QA_W@Z 00428a10 f i libucrtd:unlink.obj
 0001:00027a30       ??1?$__crt_unique_heap_ptr@_WU__crt_internal_free_policy@@@@QAE@XZ 00428a30 f i libucrtd:unlink.obj
 0001:00027a50       ?get@?$__crt_unique_heap_ptr@_WU__crt_internal_free_policy@@@@QBEPA_WXZ 00428a50 f i libucrtd:unlink.obj
 0001:00027a70       ?get_address_of@?$__crt_unique_heap_ptr@_WU__crt_internal_free_policy@@@@QAEPAPA_WXZ 00428a70 f i libucrtd:unlink.obj
 0001:00027a90       ?release@?$__crt_unique_heap_ptr@_WU__crt_internal_free_policy@@@@QAEXXZ 00428a90 f i libucrtd:unlink.obj
 0001:00027ad0       __unlink                   00428ad0 f   libucrtd:unlink.obj
 0001:00027af0       _remove                    00428af0 f   libucrtd:unlink.obj
 0001:00027b90       _rename                    00428b90 f   libucrtd:rename.obj
 0001:00027d90       ??$?0ABV?$stream_output_adapter@D@__crt_stdio_output@@AB_KABQBDABQAU__crt_locale_pointers@@ABQAD@?$format_validation_base@DV?$stream_output_adapter@D@__crt_stdio_output@@@__crt_stdio_output@@IAE@ABV?$stream_output_adapter@D@1@AB_KABQBDABQAU__crt_locale_pointers@@ABQAD@Z 00428d90 f i libucrtd:output.obj
 0001:00027dd0       ??$?0ABV?$stream_output_adapter@D@__crt_stdio_output@@AB_KABQBDABQAU__crt_locale_pointers@@ABQAD@?$positional_parameter_base@DV?$stream_output_adapter@D@__crt_stdio_output@@@__crt_stdio_output@@IAE@ABV?$stream_output_adapter@D@1@AB_KABQBDABQAU__crt_locale_pointers@@ABQAD@Z 00428dd0 f i libucrtd:output.obj
 0001:00027e60       ??$?0ABV?$stream_output_adapter@D@__crt_stdio_output@@AB_KABQBDABQAU__crt_locale_pointers@@ABQAD@?$standard_base@DV?$stream_output_adapter@D@__crt_stdio_output@@@__crt_stdio_output@@IAE@ABV?$stream_output_adapter@D@1@AB_KABQBDABQAU__crt_locale_pointers@@ABQAD@Z 00428e60 f i libucrtd:output.obj
 0001:00027ec0       ??$?0ABV?$stream_output_adapter@_W@__crt_stdio_output@@AB_KABQB_WABQAU__crt_locale_pointers@@ABQAD@?$format_validation_base@_WV?$stream_output_adapter@_W@__crt_stdio_output@@@__crt_stdio_output@@IAE@ABV?$stream_output_adapter@_W@1@AB_KABQB_WABQAU__crt_locale_pointers@@ABQAD@Z 00428ec0 f i libucrtd:output.obj
 0001:00027f00       ??$?0ABV?$stream_output_adapter@_W@__crt_stdio_output@@AB_KABQB_WABQAU__crt_locale_pointers@@ABQAD@?$positional_parameter_base@_WV?$stream_output_adapter@_W@__crt_stdio_output@@@__crt_stdio_output@@IAE@ABV?$stream_output_adapter@_W@1@AB_KABQB_WABQAU__crt_locale_pointers@@ABQAD@Z 00428f00 f i libucrtd:output.obj
 0001:00027f90       ??$?0ABV?$stream_output_adapter@_W@__crt_stdio_output@@AB_KABQB_WABQAU__crt_locale_pointers@@ABQAD@?$standard_base@_WV?$stream_output_adapter@_W@__crt_stdio_output@@@__crt_stdio_output@@IAE@ABV?$stream_output_adapter@_W@1@AB_KABQB_WABQAU__crt_locale_pointers@@ABQAD@Z 00428f90 f i libucrtd:output.obj
 0001:00027ff0       ??$?0ABV?$string_output_adapter@D@__crt_stdio_output@@AB_KABQBDABQAU__crt_locale_pointers@@ABQAD@?$format_validation_base@DV?$string_output_adapter@D@__crt_stdio_output@@@__crt_stdio_output@@IAE@ABV?$string_output_adapter@D@1@AB_KABQBDABQAU__crt_locale_pointers@@ABQAD@Z 00428ff0 f i libucrtd:output.obj
 0001:00028030       ??$?0ABV?$string_output_adapter@D@__crt_stdio_output@@AB_KABQBDABQAU__crt_locale_pointers@@ABQAD@?$positional_parameter_base@DV?$string_output_adapter@D@__crt_stdio_output@@@__crt_stdio_output@@IAE@ABV?$string_output_adapter@D@1@AB_KABQBDABQAU__crt_locale_pointers@@ABQAD@Z 00429030 f i libucrtd:output.obj
 0001:000280c0       ??$?0ABV?$string_output_adapter@D@__crt_stdio_output@@AB_KABQBDABQAU__crt_locale_pointers@@ABQAD@?$standard_base@DV?$string_output_adapter@D@__crt_stdio_output@@@__crt_stdio_output@@IAE@ABV?$string_output_adapter@D@1@AB_KABQBDABQAU__crt_locale_pointers@@ABQAD@Z 004290c0 f i libucrtd:output.obj
 0001:00028120       ??$?0ABV?$string_output_adapter@_W@__crt_stdio_output@@AB_KABQB_WABQAU__crt_locale_pointers@@ABQAD@?$format_validation_base@_WV?$string_output_adapter@_W@__crt_stdio_output@@@__crt_stdio_output@@IAE@ABV?$string_output_adapter@_W@1@AB_KABQB_WABQAU__crt_locale_pointers@@ABQAD@Z 00429120 f i libucrtd:output.obj
 0001:00028160       ??$?0ABV?$string_output_adapter@_W@__crt_stdio_output@@AB_KABQB_WABQAU__crt_locale_pointers@@ABQAD@?$positional_parameter_base@_WV?$string_output_adapter@_W@__crt_stdio_output@@@__crt_stdio_output@@IAE@ABV?$string_output_adapter@_W@1@AB_KABQB_WABQAU__crt_locale_pointers@@ABQAD@Z 00429160 f i libucrtd:output.obj
 0001:000281f0       ??$?0ABV?$string_output_adapter@_W@__crt_stdio_output@@AB_KABQB_WABQAU__crt_locale_pointers@@ABQAD@?$standard_base@_WV?$string_output_adapter@_W@__crt_stdio_output@@@__crt_stdio_output@@IAE@ABV?$string_output_adapter@_W@1@AB_KABQB_WABQAU__crt_locale_pointers@@ABQAD@Z 004291f0 f i libucrtd:output.obj
 0001:00028250       ??$?RV<lambda_2293f24e3ce1ad6fe22ccfb9dec07671>@@AAV<lambda_2565fc715a641e539f44ad02d6823606>@@V<lambda_d3217f279b832965d9ca670dc2993570>@@@?$__crt_seh_guarded_call@H@@QAEH$$QAV<lambda_2293f24e3ce1ad6fe22ccfb9dec07671>@@AAV<lambda_2565fc715a641e539f44ad02d6823606>@@$$QAV<lambda_d3217f279b832965d9ca670dc2993570>@@@Z 00429250 f i libucrtd:output.obj
 0001:00028300       ??$?RV<lambda_4d4ac866be0fa3c441830420fabdd2cb>@@AAV<lambda_63a10c2dc8dbb9e4dd1890be52af7c93>@@V<lambda_002af9fa0f8fe472b648c51882d4fc32>@@@?$__crt_seh_guarded_call@H@@QAEH$$QAV<lambda_4d4ac866be0fa3c441830420fabdd2cb>@@AAV<lambda_63a10c2dc8dbb9e4dd1890be52af7c93>@@$$QAV<lambda_002af9fa0f8fe472b648c51882d4fc32>@@@Z 00429300 f i libucrtd:output.obj
 0001:000283b0       ??$?RV<lambda_5be909dfbae0a631386585770cd7b676>@@AAV<lambda_e516058a9c289d98c8ca9fea99247804>@@V<lambda_afe2e0cdc5e0ecf6f0d6f5e2f8985e38>@@@?$__crt_seh_guarded_call@H@@QAEH$$QAV<lambda_5be909dfbae0a631386585770cd7b676>@@AAV<lambda_e516058a9c289d98c8ca9fea99247804>@@$$QAV<lambda_afe2e0cdc5e0ecf6f0d6f5e2f8985e38>@@@Z 004293b0 f i libucrtd:output.obj
 0001:00028460       ??$?RV<lambda_823d65812123d985753d53e2a8c25d20>@@AAV<lambda_0a97c9e57da7be065955385c79108ff2>@@V<lambda_4d2973f3ad2d226f00468307185dca1b>@@@?$__crt_seh_guarded_call@H@@QAEH$$QAV<lambda_823d65812123d985753d53e2a8c25d20>@@AAV<lambda_0a97c9e57da7be065955385c79108ff2>@@$$QAV<lambda_4d2973f3ad2d226f00468307185dca1b>@@@Z 00429460 f i libucrtd:output.obj
 0001:00028510       ??$?RV<lambda_ab9923ffb5d694ec0d78876dd103e44f>@@AAV<lambda_481dd5778c961fbcd3b60b650e9b9dc4>@@V<lambda_7923d86c9e3f319b415918ec4b39749c>@@@?$__crt_seh_guarded_call@H@@QAEH$$QAV<lambda_ab9923ffb5d694ec0d78876dd103e44f>@@AAV<lambda_481dd5778c961fbcd3b60b650e9b9dc4>@@$$QAV<lambda_7923d86c9e3f319b415918ec4b39749c>@@@Z 00429510 f i libucrtd:output.obj
 0001:000285c0       ??$?RV<lambda_db08b09ef7aa9d4f8620ce68402612bc>@@AAV<lambda_4f2c1eaeead2a5fc776db5b62ea0fb9b>@@V<lambda_3ae262bc35d4ba6a3825c4f6bcaaf95c>@@@?$__crt_seh_guarded_call@H@@QAEH$$QAV<lambda_db08b09ef7aa9d4f8620ce68402612bc>@@AAV<lambda_4f2c1eaeead2a5fc776db5b62ea0fb9b>@@$$QAV<lambda_3ae262bc35d4ba6a3825c4f6bcaaf95c>@@@Z 004295c0 f i libucrtd:output.obj
 0001:00028670       ??$__acrt_lock_stream_and_call@V<lambda_0a97c9e57da7be065955385c79108ff2>@@@@YAHQAU_iobuf@@$$QAV<lambda_0a97c9e57da7be065955385c79108ff2>@@@Z 00429670 f i libucrtd:output.obj
 0001:000286c0       ??$__acrt_lock_stream_and_call@V<lambda_2565fc715a641e539f44ad02d6823606>@@@@YAHQAU_iobuf@@$$QAV<lambda_2565fc715a641e539f44ad02d6823606>@@@Z 004296c0 f i libucrtd:output.obj
 0001:00028710       ??$__acrt_lock_stream_and_call@V<lambda_481dd5778c961fbcd3b60b650e9b9dc4>@@@@YAHQAU_iobuf@@$$QAV<lambda_481dd5778c961fbcd3b60b650e9b9dc4>@@@Z 00429710 f i libucrtd:output.obj
 0001:00028760       ??$__acrt_lock_stream_and_call@V<lambda_4f2c1eaeead2a5fc776db5b62ea0fb9b>@@@@YAHQAU_iobuf@@$$QAV<lambda_4f2c1eaeead2a5fc776db5b62ea0fb9b>@@@Z 00429760 f i libucrtd:output.obj
 0001:000287b0       ??$__acrt_lock_stream_and_call@V<lambda_63a10c2dc8dbb9e4dd1890be52af7c93>@@@@YAHQAU_iobuf@@$$QAV<lambda_63a10c2dc8dbb9e4dd1890be52af7c93>@@@Z 004297b0 f i libucrtd:output.obj
 0001:00028800       ??$__acrt_lock_stream_and_call@V<lambda_e516058a9c289d98c8ca9fea99247804>@@@@YAHQAU_iobuf@@$$QAV<lambda_e516058a9c289d98c8ca9fea99247804>@@@Z 00429800 f i libucrtd:output.obj
 0001:0002c0d0       ??$count@D@formatting_buffer@__crt_stdio_output@@QBEIXZ 0042d0d0 f i libucrtd:output.obj
 0001:0002c120       ??$data@D@formatting_buffer@__crt_stdio_output@@QAEPADXZ 0042d120 f i libucrtd:output.obj
 0001:0002c170       ??$data@_W@formatting_buffer@__crt_stdio_output@@QAEPA_WXZ 0042d170 f i libucrtd:output.obj
 0001:0002c1c0       ??$ensure_buffer_is_big_enough@D@formatting_buffer@__crt_stdio_output@@QAE_NI@Z 0042d1c0 f i libucrtd:output.obj
 0001:0002c2e0       ??$extract_argument_from_va_list@C_J@?$positional_parameter_base@DV?$stream_output_adapter@D@__crt_stdio_output@@@__crt_stdio_output@@IAE_NAA_J@Z 0042d2e0 f i libucrtd:output.obj
 0001:0002c460       ??$extract_argument_from_va_list@C_J@?$positional_parameter_base@DV?$string_output_adapter@D@__crt_stdio_output@@@__crt_stdio_output@@IAE_NAA_J@Z 0042d460 f i libucrtd:output.obj
 0001:0002c5e0       ??$extract_argument_from_va_list@C_J@?$positional_parameter_base@_WV?$stream_output_adapter@_W@__crt_stdio_output@@@__crt_stdio_output@@IAE_NAA_J@Z 0042d5e0 f i libucrtd:output.obj
 0001:0002c760       ??$extract_argument_from_va_list@C_J@?$positional_parameter_base@_WV?$string_output_adapter@_W@__crt_stdio_output@@@__crt_stdio_output@@IAE_NAA_J@Z 0042d760 f i libucrtd:output.obj
 0001:0002c8e0       ??$extract_argument_from_va_list@C_J@?$standard_base@DV?$stream_output_adapter@D@__crt_stdio_output@@@__crt_stdio_output@@IAE_NAA_J@Z 0042d8e0 f i libucrtd:output.obj
 0001:0002c920       ??$extract_argument_from_va_list@C_J@?$standard_base@DV?$string_output_adapter@D@__crt_stdio_output@@@__crt_stdio_output@@IAE_NAA_J@Z 0042d920 f i libucrtd:output.obj
 0001:0002c960       ??$extract_argument_from_va_list@C_J@?$standard_base@_WV?$stream_output_adapter@_W@__crt_stdio_output@@@__crt_stdio_output@@IAE_NAA_J@Z 0042d960 f i libucrtd:output.obj
 0001:0002c9a0       ??$extract_argument_from_va_list@C_J@?$standard_base@_WV?$string_output_adapter@_W@__crt_stdio_output@@@__crt_stdio_output@@IAE_NAA_J@Z 0042d9a0 f i libucrtd:output.obj
 0001:0002c9e0       ??$extract_argument_from_va_list@E_J@?$positional_parameter_base@DV?$stream_output_adapter@D@__crt_stdio_output@@@__crt_stdio_output@@IAE_NAA_J@Z 0042d9e0 f i libucrtd:output.obj
 0001:0002cb60       ??$extract_argument_from_va_list@E_J@?$positional_parameter_base@DV?$string_output_adapter@D@__crt_stdio_output@@@__crt_stdio_output@@IAE_NAA_J@Z 0042db60 f i libucrtd:output.obj
 0001:0002cce0       ??$extract_argument_from_va_list@E_J@?$positional_parameter_base@_WV?$stream_output_adapter@_W@__crt_stdio_output@@@__crt_stdio_output@@IAE_NAA_J@Z 0042dce0 f i libucrtd:output.obj
 0001:0002ce60       ??$extract_argument_from_va_list@E_J@?$positional_parameter_base@_WV?$string_output_adapter@_W@__crt_stdio_output@@@__crt_stdio_output@@IAE_NAA_J@Z 0042de60 f i libucrtd:output.obj
 0001:0002cfe0       ??$extract_argument_from_va_list@E_J@?$standard_base@DV?$stream_output_adapter@D@__crt_stdio_output@@@__crt_stdio_output@@IAE_NAA_J@Z 0042dfe0 f i libucrtd:output.obj
 0001:0002d020       ??$extract_argument_from_va_list@E_J@?$standard_base@DV?$string_output_adapter@D@__crt_stdio_output@@@__crt_stdio_output@@IAE_NAA_J@Z 0042e020 f i libucrtd:output.obj
 0001:0002d060       ??$extract_argument_from_va_list@E_J@?$standard_base@_WV?$stream_output_adapter@_W@__crt_stdio_output@@@__crt_stdio_output@@IAE_NAA_J@Z 0042e060 f i libucrtd:output.obj
 0001:0002d0a0       ??$extract_argument_from_va_list@E_J@?$standard_base@_WV?$string_output_adapter@_W@__crt_stdio_output@@@__crt_stdio_output@@IAE_NAA_J@Z 0042e0a0 f i libucrtd:output.obj
 0001:0002d0e0       ??$extract_argument_from_va_list@F_J@?$positional_parameter_base@DV?$stream_output_adapter@D@__crt_stdio_output@@@__crt_stdio_output@@IAE_NAA_J@Z 0042e0e0 f i libucrtd:output.obj
 0001:0002d260       ??$extract_argument_from_va_list@F_J@?$positional_parameter_base@DV?$string_output_adapter@D@__crt_stdio_output@@@__crt_stdio_output@@IAE_NAA_J@Z 0042e260 f i libucrtd:output.obj
 0001:0002d3e0       ??$extract_argument_from_va_list@F_J@?$positional_parameter_base@_WV?$stream_output_adapter@_W@__crt_stdio_output@@@__crt_stdio_output@@IAE_NAA_J@Z 0042e3e0 f i libucrtd:output.obj
 0001:0002d560       ??$extract_argument_from_va_list@F_J@?$positional_parameter_base@_WV?$string_output_adapter@_W@__crt_stdio_output@@@__crt_stdio_output@@IAE_NAA_J@Z 0042e560 f i libucrtd:output.obj
 0001:0002d6e0       ??$extract_argument_from_va_list@F_J@?$standard_base@DV?$stream_output_adapter@D@__crt_stdio_output@@@__crt_stdio_output@@IAE_NAA_J@Z 0042e6e0 f i libucrtd:output.obj
 0001:0002d720       ??$extract_argument_from_va_list@F_J@?$standard_base@DV?$string_output_adapter@D@__crt_stdio_output@@@__crt_stdio_output@@IAE_NAA_J@Z 0042e720 f i libucrtd:output.obj
 0001:0002d760       ??$extract_argument_from_va_list@F_J@?$standard_base@_WV?$stream_output_adapter@_W@__crt_stdio_output@@@__crt_stdio_output@@IAE_NAA_J@Z 0042e760 f i libucrtd:output.obj
 0001:0002d7a0       ??$extract_argument_from_va_list@F_J@?$standard_base@_WV?$string_output_adapter@_W@__crt_stdio_output@@@__crt_stdio_output@@IAE_NAA_J@Z 0042e7a0 f i libucrtd:output.obj
 0001:0002d7e0       ??$extract_argument_from_va_list@GD@?$positional_parameter_base@DV?$stream_output_adapter@D@__crt_stdio_output@@@__crt_stdio_output@@IAE_NAAD@Z 0042e7e0 f i libucrtd:output.obj
 0001:0002d960       ??$extract_argument_from_va_list@GD@?$positional_parameter_base@DV?$string_output_adapter@D@__crt_stdio_output@@@__crt_stdio_output@@IAE_NAAD@Z 0042e960 f i libucrtd:output.obj
 0001:0002dae0       ??$extract_argument_from_va_list@GD@?$standard_base@DV?$stream_output_adapter@D@__crt_stdio_output@@@__crt_stdio_output@@IAE_NAAD@Z 0042eae0 f i libucrtd:output.obj
 0001:0002db10       ??$extract_argument_from_va_list@GD@?$standard_base@DV?$string_output_adapter@D@__crt_stdio_output@@@__crt_stdio_output@@IAE_NAAD@Z 0042eb10 f i libucrtd:output.obj
 0001:0002db40       ??$extract_argument_from_va_list@G_J@?$positional_parameter_base@DV?$stream_output_adapter@D@__crt_stdio_output@@@__crt_stdio_output@@IAE_NAA_J@Z 0042eb40 f i libucrtd:output.obj
 0001:0002dcc0       ??$extract_argument_from_va_list@G_J@?$positional_parameter_base@DV?$string_output_adapter@D@__crt_stdio_output@@@__crt_stdio_output@@IAE_NAA_J@Z 0042ecc0 f i libucrtd:output.obj
 0001:0002de40       ??$extract_argument_from_va_list@G_J@?$positional_parameter_base@_WV?$stream_output_adapter@_W@__crt_stdio_output@@@__crt_stdio_output@@IAE_NAA_J@Z 0042ee40 f i libucrtd:output.obj
 0001:0002dfc0       ??$extract_argument_from_va_list@G_J@?$positional_parameter_base@_WV?$string_output_adapter@_W@__crt_stdio_output@@@__crt_stdio_output@@IAE_NAA_J@Z 0042efc0 f i libucrtd:output.obj
 0001:0002e140       ??$extract_argument_from_va_list@G_J@?$standard_base@DV?$stream_output_adapter@D@__crt_stdio_output@@@__crt_stdio_output@@IAE_NAA_J@Z 0042f140 f i libucrtd:output.obj
 0001:0002e180       ??$extract_argument_from_va_list@G_J@?$standard_base@DV?$string_output_adapter@D@__crt_stdio_output@@@__crt_stdio_output@@IAE_NAA_J@Z 0042f180 f i libucrtd:output.obj
 0001:0002e1c0       ??$extract_argument_from_va_list@G_J@?$standard_base@_WV?$stream_output_adapter@_W@__crt_stdio_output@@@__crt_stdio_output@@IAE_NAA_J@Z 0042f1c0 f i libucrtd:output.obj
 0001:0002e200       ??$extract_argument_from_va_list@G_J@?$standard_base@_WV?$string_output_adapter@_W@__crt_stdio_output@@@__crt_stdio_output@@IAE_NAA_J@Z 0042f200 f i libucrtd:output.obj
 0001:0002e240       ??$extract_argument_from_va_list@H_J@?$positional_parameter_base@DV?$stream_output_adapter@D@__crt_stdio_output@@@__crt_stdio_output@@IAE_NAA_J@Z 0042f240 f i libucrtd:output.obj
 0001:0002e3c0       ??$extract_argument_from_va_list@H_J@?$positional_parameter_base@DV?$string_output_adapter@D@__crt_stdio_output@@@__crt_stdio_output@@IAE_NAA_J@Z 0042f3c0 f i libucrtd:output.obj
 0001:0002e540       ??$extract_argument_from_va_list@H_J@?$positional_parameter_base@_WV?$stream_output_adapter@_W@__crt_stdio_output@@@__crt_stdio_output@@IAE_NAA_J@Z 0042f540 f i libucrtd:output.obj
 0001:0002e6c0       ??$extract_argument_from_va_list@H_J@?$positional_parameter_base@_WV?$string_output_adapter@_W@__crt_stdio_output@@@__crt_stdio_output@@IAE_NAA_J@Z 0042f6c0 f i libucrtd:output.obj
 0001:0002e840       ??$extract_argument_from_va_list@H_J@?$standard_base@DV?$stream_output_adapter@D@__crt_stdio_output@@@__crt_stdio_output@@IAE_NAA_J@Z 0042f840 f i libucrtd:output.obj
 0001:0002e880       ??$extract_argument_from_va_list@H_J@?$standard_base@DV?$string_output_adapter@D@__crt_stdio_output@@@__crt_stdio_output@@IAE_NAA_J@Z 0042f880 f i libucrtd:output.obj
 0001:0002e8c0       ??$extract_argument_from_va_list@H_J@?$standard_base@_WV?$stream_output_adapter@_W@__crt_stdio_output@@@__crt_stdio_output@@IAE_NAA_J@Z 0042f8c0 f i libucrtd:output.obj
 0001:0002e900       ??$extract_argument_from_va_list@H_J@?$standard_base@_WV?$string_output_adapter@_W@__crt_stdio_output@@@__crt_stdio_output@@IAE_NAA_J@Z 0042f900 f i libucrtd:output.obj
 0001:0002e940       ??$extract_argument_from_va_list@I_J@?$positional_parameter_base@DV?$stream_output_adapter@D@__crt_stdio_output@@@__crt_stdio_output@@IAE_NAA_J@Z 0042f940 f i libucrtd:output.obj
 0001:0002eac0       ??$extract_argument_from_va_list@I_J@?$positional_parameter_base@DV?$string_output_adapter@D@__crt_stdio_output@@@__crt_stdio_output@@IAE_NAA_J@Z 0042fac0 f i libucrtd:output.obj
 0001:0002ec40       ??$extract_argument_from_va_list@I_J@?$positional_parameter_base@_WV?$stream_output_adapter@_W@__crt_stdio_output@@@__crt_stdio_output@@IAE_NAA_J@Z 0042fc40 f i libucrtd:output.obj
 0001:0002edc0       ??$extract_argument_from_va_list@I_J@?$positional_parameter_base@_WV?$string_output_adapter@_W@__crt_stdio_output@@@__crt_stdio_output@@IAE_NAA_J@Z 0042fdc0 f i libucrtd:output.obj
 0001:0002ef40       ??$extract_argument_from_va_list@I_J@?$standard_base@DV?$stream_output_adapter@D@__crt_stdio_output@@@__crt_stdio_output@@IAE_NAA_J@Z 0042ff40 f i libucrtd:output.obj
 0001:0002ef80       ??$extract_argument_from_va_list@I_J@?$standard_base@DV?$string_output_adapter@D@__crt_stdio_output@@@__crt_stdio_output@@IAE_NAA_J@Z 0042ff80 f i libucrtd:output.obj
 0001:0002efc0       ??$extract_argument_from_va_list@I_J@?$standard_base@_WV?$stream_output_adapter@_W@__crt_stdio_output@@@__crt_stdio_output@@IAE_NAA_J@Z 0042ffc0 f i libucrtd:output.obj
 0001:0002f000       ??$extract_argument_from_va_list@I_J@?$standard_base@_WV?$string_output_adapter@_W@__crt_stdio_output@@@__crt_stdio_output@@IAE_NAA_J@Z 00430000 f i libucrtd:output.obj
 0001:0002f040       ??$extract_argument_from_va_list@PADPAD@?$positional_parameter_base@DV?$stream_output_adapter@D@__crt_stdio_output@@@__crt_stdio_output@@IAE_NAAPAD@Z 00430040 f i libucrtd:output.obj
 0001:0002f1c0       ??$extract_argument_from_va_list@PADPAD@?$positional_parameter_base@DV?$string_output_adapter@D@__crt_stdio_output@@@__crt_stdio_output@@IAE_NAAPAD@Z 004301c0 f i libucrtd:output.obj
 0001:0002f340       ??$extract_argument_from_va_list@PADPAD@?$positional_parameter_base@_WV?$stream_output_adapter@_W@__crt_stdio_output@@@__crt_stdio_output@@IAE_NAAPAD@Z 00430340 f i libucrtd:output.obj
 0001:0002f4c0       ??$extract_argument_from_va_list@PADPAD@?$positional_parameter_base@_WV?$string_output_adapter@_W@__crt_stdio_output@@@__crt_stdio_output@@IAE_NAAPAD@Z 004304c0 f i libucrtd:output.obj
 0001:0002f640       ??$extract_argument_from_va_list@PADPAD@?$standard_base@DV?$stream_output_adapter@D@__crt_stdio_output@@@__crt_stdio_output@@IAE_NAAPAD@Z 00430640 f i libucrtd:output.obj
 0001:0002f670       ??$extract_argument_from_va_list@PADPAD@?$standard_base@DV?$string_output_adapter@D@__crt_stdio_output@@@__crt_stdio_output@@IAE_NAAPAD@Z 00430670 f i libucrtd:output.obj
 0001:0002f6a0       ??$extract_argument_from_va_list@PADPAD@?$standard_base@_WV?$stream_output_adapter@_W@__crt_stdio_output@@@__crt_stdio_output@@IAE_NAAPAD@Z 004306a0 f i libucrtd:output.obj
 0001:0002f6d0       ??$extract_argument_from_va_list@PADPAD@?$standard_base@_WV?$string_output_adapter@_W@__crt_stdio_output@@@__crt_stdio_output@@IAE_NAAPAD@Z 004306d0 f i libucrtd:output.obj
 0001:0002f700       ??$extract_argument_from_va_list@PAUansi_string@?1??type_case_Z@?$output_processor@DV?$stream_output_adapter@D@__crt_stdio_output@@V?$format_validation_base@DV?$stream_output_adapter@D@__crt_stdio_output@@@2@@__crt_stdio_output@@AAE_NXZ@PAU1?1??234@AAE_NXZ@@?$standard_base@DV?$stream_output_adapter@D@__crt_stdio_output@@@__crt_stdio_output@@IAE_NAAPAUansi_string@?1??type_case_Z@?$output_processor@DV?$stream_output_adapter@D@__crt_stdio_output@@V?$format_validation_base@DV?$stream_output_adapter@D@__crt_stdio_output@@@2@@1@AAE_NXZ@@Z 00430700 f i libucrtd:output.obj
 0001:0002f730       ??$extract_argument_from_va_list@PAUansi_string@?1??type_case_Z@?$output_processor@DV?$stream_output_adapter@D@__crt_stdio_output@@V?$positional_parameter_base@DV?$stream_output_adapter@D@__crt_stdio_output@@@2@@__crt_stdio_output@@AAE_NXZ@PAU1?1??234@AAE_NXZ@@?$positional_parameter_base@DV?$stream_output_adapter@D@__crt_stdio_output@@@__crt_stdio_output@@IAE_NAAPAUansi_string@?1??type_case_Z@?$output_processor@DV?$stream_output_adapter@D@__crt_stdio_output@@V?$positional_parameter_base@DV?$stream_output_adapter@D@__crt_stdio_output@@@2@@1@AAE_NXZ@@Z 00430730 f i libucrtd:output.obj
 0001:0002f8b0       ??$extract_argument_from_va_list@PAUansi_string@?1??type_case_Z@?$output_processor@DV?$stream_output_adapter@D@__crt_stdio_output@@V?$positional_parameter_base@DV?$stream_output_adapter@D@__crt_stdio_output@@@2@@__crt_stdio_output@@AAE_NXZ@PAU1?1??234@AAE_NXZ@@?$standard_base@DV?$stream_output_adapter@D@__crt_stdio_output@@@__crt_stdio_output@@IAE_NAAPAUansi_string@?1??type_case_Z@?$output_processor@DV?$stream_output_adapter@D@__crt_stdio_output@@V?$positional_parameter_base@DV?$stream_output_adapter@D@__crt_stdio_output@@@2@@1@AAE_NXZ@@Z 004308b0 f i libucrtd:output.obj
 0001:0002f8e0       ??$extract_argument_from_va_list@PAUansi_string@?1??type_case_Z@?$output_processor@DV?$stream_output_adapter@D@__crt_stdio_output@@V?$standard_base@DV?$stream_output_adapter@D@__crt_stdio_output@@@2@@__crt_stdio_output@@AAE_NXZ@PAU1?1??234@AAE_NXZ@@?$standard_base@DV?$stream_output_adapter@D@__crt_stdio_output@@@__crt_stdio_output@@IAE_NAAPAUansi_string@?1??type_case_Z@?$output_processor@DV?$stream_output_adapter@D@__crt_stdio_output@@V?$standard_base@DV?$stream_output_adapter@D@__crt_stdio_output@@@2@@1@AAE_NXZ@@Z 004308e0 f i libucrtd:output.obj
 0001:0002f910       ??$extract_argument_from_va_list@PAUansi_string@?1??type_case_Z@?$output_processor@DV?$string_output_adapter@D@__crt_stdio_output@@V?$format_validation_base@DV?$string_output_adapter@D@__crt_stdio_output@@@2@@__crt_stdio_output@@AAE_NXZ@PAU1?1??234@AAE_NXZ@@?$standard_base@DV?$string_output_adapter@D@__crt_stdio_output@@@__crt_stdio_output@@IAE_NAAPAUansi_string@?1??type_case_Z@?$output_processor@DV?$string_output_adapter@D@__crt_stdio_output@@V?$format_validation_base@DV?$string_output_adapter@D@__crt_stdio_output@@@2@@1@AAE_NXZ@@Z 00430910 f i libucrtd:output.obj
 0001:0002f940       ??$extract_argument_from_va_list@PAUansi_string@?1??type_case_Z@?$output_processor@DV?$string_output_adapter@D@__crt_stdio_output@@V?$positional_parameter_base@DV?$string_output_adapter@D@__crt_stdio_output@@@2@@__crt_stdio_output@@AAE_NXZ@PAU1?1??234@AAE_NXZ@@?$positional_parameter_base@DV?$string_output_adapter@D@__crt_stdio_output@@@__crt_stdio_output@@IAE_NAAPAUansi_string@?1??type_case_Z@?$output_processor@DV?$string_output_adapter@D@__crt_stdio_output@@V?$positional_parameter_base@DV?$string_output_adapter@D@__crt_stdio_output@@@2@@1@AAE_NXZ@@Z 00430940 f i libucrtd:output.obj
 0001:0002fac0       ??$extract_argument_from_va_list@PAUansi_string@?1??type_case_Z@?$output_processor@DV?$string_output_adapter@D@__crt_stdio_output@@V?$positional_parameter_base@DV?$string_output_adapter@D@__crt_stdio_output@@@2@@__crt_stdio_output@@AAE_NXZ@PAU1?1??234@AAE_NXZ@@?$standard_base@DV?$string_output_adapter@D@__crt_stdio_output@@@__crt_stdio_output@@IAE_NAAPAUansi_string@?1??type_case_Z@?$output_processor@DV?$string_output_adapter@D@__crt_stdio_output@@V?$positional_parameter_base@DV?$string_output_adapter@D@__crt_stdio_output@@@2@@1@AAE_NXZ@@Z 00430ac0 f i libucrtd:output.obj
 0001:0002faf0       ??$extract_argument_from_va_list@PAUansi_string@?1??type_case_Z@?$output_processor@DV?$string_output_adapter@D@__crt_stdio_output@@V?$standard_base@DV?$string_output_adapter@D@__crt_stdio_output@@@2@@__crt_stdio_output@@AAE_NXZ@PAU1?1??234@AAE_NXZ@@?$standard_base@DV?$string_output_adapter@D@__crt_stdio_output@@@__crt_stdio_output@@IAE_NAAPAUansi_string@?1??type_case_Z@?$output_processor@DV?$string_output_adapter@D@__crt_stdio_output@@V?$standard_base@DV?$string_output_adapter@D@__crt_stdio_output@@@2@@1@AAE_NXZ@@Z 00430af0 f i libucrtd:output.obj
 0001:0002fb20       ??$extract_argument_from_va_list@PAUansi_string@?1??type_case_Z@?$output_processor@_WV?$stream_output_adapter@_W@__crt_stdio_output@@V?$format_validation_base@_WV?$stream_output_adapter@_W@__crt_stdio_output@@@2@@__crt_stdio_output@@AAE_NXZ@PAU1?1??234@AAE_NXZ@@?$standard_base@_WV?$stream_output_adapter@_W@__crt_stdio_output@@@__crt_stdio_output@@IAE_NAAPAUansi_string@?1??type_case_Z@?$output_processor@_WV?$stream_output_adapter@_W@__crt_stdio_output@@V?$format_validation_base@_WV?$stream_output_adapter@_W@__crt_stdio_output@@@2@@1@AAE_NXZ@@Z 00430b20 f i libucrtd:output.obj
 0001:0002fb50       ??$extract_argument_from_va_list@PAUansi_string@?1??type_case_Z@?$output_processor@_WV?$stream_output_adapter@_W@__crt_stdio_output@@V?$positional_parameter_base@_WV?$stream_output_adapter@_W@__crt_stdio_output@@@2@@__crt_stdio_output@@AAE_NXZ@PAU1?1??234@AAE_NXZ@@?$positional_parameter_base@_WV?$stream_output_adapter@_W@__crt_stdio_output@@@__crt_stdio_output@@IAE_NAAPAUansi_string@?1??type_case_Z@?$output_processor@_WV?$stream_output_adapter@_W@__crt_stdio_output@@V?$positional_parameter_base@_WV?$stream_output_adapter@_W@__crt_stdio_output@@@2@@1@AAE_NXZ@@Z 00430b50 f i libucrtd:output.obj
 0001:0002fcd0       ??$extract_argument_from_va_list@PAUansi_string@?1??type_case_Z@?$output_processor@_WV?$stream_output_adapter@_W@__crt_stdio_output@@V?$positional_parameter_base@_WV?$stream_output_adapter@_W@__crt_stdio_output@@@2@@__crt_stdio_output@@AAE_NXZ@PAU1?1??234@AAE_NXZ@@?$standard_base@_WV?$stream_output_adapter@_W@__crt_stdio_output@@@__crt_stdio_output@@IAE_NAAPAUansi_string@?1??type_case_Z@?$output_processor@_WV?$stream_output_adapter@_W@__crt_stdio_output@@V?$positional_parameter_base@_WV?$stream_output_adapter@_W@__crt_stdio_output@@@2@@1@AAE_NXZ@@Z 00430cd0 f i libucrtd:output.obj
 0001:0002fd00       ??$extract_argument_from_va_list@PAUansi_string@?1??type_case_Z@?$output_processor@_WV?$stream_output_adapter@_W@__crt_stdio_output@@V?$standard_base@_WV?$stream_output_adapter@_W@__crt_stdio_output@@@2@@__crt_stdio_output@@AAE_NXZ@PAU1?1??234@AAE_NXZ@@?$standard_base@_WV?$stream_output_adapter@_W@__crt_stdio_output@@@__crt_stdio_output@@IAE_NAAPAUansi_string@?1??type_case_Z@?$output_processor@_WV?$stream_output_adapter@_W@__crt_stdio_output@@V?$standard_base@_WV?$stream_output_adapter@_W@__crt_stdio_output@@@2@@1@AAE_NXZ@@Z 00430d00 f i libucrtd:output.obj
 0001:0002fd30       ??$extract_argument_from_va_list@PAUansi_string@?1??type_case_Z@?$output_processor@_WV?$string_output_adapter@_W@__crt_stdio_output@@V?$format_validation_base@_WV?$string_output_adapter@_W@__crt_stdio_output@@@2@@__crt_stdio_output@@AAE_NXZ@PAU1?1??234@AAE_NXZ@@?$standard_base@_WV?$string_output_adapter@_W@__crt_stdio_output@@@__crt_stdio_output@@IAE_NAAPAUansi_string@?1??type_case_Z@?$output_processor@_WV?$string_output_adapter@_W@__crt_stdio_output@@V?$format_validation_base@_WV?$string_output_adapter@_W@__crt_stdio_output@@@2@@1@AAE_NXZ@@Z 00430d30 f i libucrtd:output.obj
 0001:0002fd60       ??$extract_argument_from_va_list@PAUansi_string@?1??type_case_Z@?$output_processor@_WV?$string_output_adapter@_W@__crt_stdio_output@@V?$positional_parameter_base@_WV?$string_output_adapter@_W@__crt_stdio_output@@@2@@__crt_stdio_output@@AAE_NXZ@PAU1?1??234@AAE_NXZ@@?$positional_parameter_base@_WV?$string_output_adapter@_W@__crt_stdio_output@@@__crt_stdio_output@@IAE_NAAPAUansi_string@?1??type_case_Z@?$output_processor@_WV?$string_output_adapter@_W@__crt_stdio_output@@V?$positional_parameter_base@_WV?$string_output_adapter@_W@__crt_stdio_output@@@2@@1@AAE_NXZ@@Z 00430d60 f i libucrtd:output.obj
 0001:0002fee0       ??$extract_argument_from_va_list@PAUansi_string@?1??type_case_Z@?$output_processor@_WV?$string_output_adapter@_W@__crt_stdio_output@@V?$positional_parameter_base@_WV?$string_output_adapter@_W@__crt_stdio_output@@@2@@__crt_stdio_output@@AAE_NXZ@PAU1?1??234@AAE_NXZ@@?$standard_base@_WV?$string_output_adapter@_W@__crt_stdio_output@@@__crt_stdio_output@@IAE_NAAPAUansi_string@?1??type_case_Z@?$output_processor@_WV?$string_output_adapter@_W@__crt_stdio_output@@V?$positional_parameter_base@_WV?$string_output_adapter@_W@__crt_stdio_output@@@2@@1@AAE_NXZ@@Z 00430ee0 f i libucrtd:output.obj
 0001:0002ff10       ??$extract_argument_from_va_list@PAUansi_string@?1??type_case_Z@?$output_processor@_WV?$string_output_adapter@_W@__crt_stdio_output@@V?$standard_base@_WV?$string_output_adapter@_W@__crt_stdio_output@@@2@@__crt_stdio_output@@AAE_NXZ@PAU1?1??234@AAE_NXZ@@?$standard_base@_WV?$string_output_adapter@_W@__crt_stdio_output@@@__crt_stdio_output@@IAE_NAAPAUansi_string@?1??type_case_Z@?$output_processor@_WV?$string_output_adapter@_W@__crt_stdio_output@@V?$standard_base@_WV?$string_output_adapter@_W@__crt_stdio_output@@@2@@1@AAE_NXZ@@Z 00430f10 f i libucrtd:output.obj
 0001:0002ff40       ??$extract_argument_from_va_list@PAXPAX@?$positional_parameter_base@DV?$stream_output_adapter@D@__crt_stdio_output@@@__crt_stdio_output@@IAE_NAAPAX@Z 00430f40 f i libucrtd:output.obj
 0001:000300c0       ??$extract_argument_from_va_list@PAXPAX@?$positional_parameter_base@DV?$string_output_adapter@D@__crt_stdio_output@@@__crt_stdio_output@@IAE_NAAPAX@Z 004310c0 f i libucrtd:output.obj
 0001:00030240       ??$extract_argument_from_va_list@PAXPAX@?$positional_parameter_base@_WV?$stream_output_adapter@_W@__crt_stdio_output@@@__crt_stdio_output@@IAE_NAAPAX@Z 00431240 f i libucrtd:output.obj
 0001:000303c0       ??$extract_argument_from_va_list@PAXPAX@?$positional_parameter_base@_WV?$string_output_adapter@_W@__crt_stdio_output@@@__crt_stdio_output@@IAE_NAAPAX@Z 004313c0 f i libucrtd:output.obj
 0001:00030540       ??$extract_argument_from_va_list@PAXPAX@?$standard_base@DV?$stream_output_adapter@D@__crt_stdio_output@@@__crt_stdio_output@@IAE_NAAPAX@Z 00431540 f i libucrtd:output.obj
 0001:00030570       ??$extract_argument_from_va_list@PAXPAX@?$standard_base@DV?$string_output_adapter@D@__crt_stdio_output@@@__crt_stdio_output@@IAE_NAAPAX@Z 00431570 f i libucrtd:output.obj
 0001:000305a0       ??$extract_argument_from_va_list@PAXPAX@?$standard_base@_WV?$stream_output_adapter@_W@__crt_stdio_output@@@__crt_stdio_output@@IAE_NAAPAX@Z 004315a0 f i libucrtd:output.obj
 0001:000305d0       ??$extract_argument_from_va_list@PAXPAX@?$standard_base@_WV?$string_output_adapter@_W@__crt_stdio_output@@@__crt_stdio_output@@IAE_NAAPAX@Z 004315d0 f i libucrtd:output.obj
 0001:00030600       ??$extract_argument_from_va_list@U_CRT_DOUBLE@@U1@@?$positional_parameter_base@DV?$stream_output_adapter@D@__crt_stdio_output@@@__crt_stdio_output@@IAE_NAAU_CRT_DOUBLE@@@Z 00431600 f i libucrtd:output.obj
 0001:000307b0       ??$extract_argument_from_va_list@U_CRT_DOUBLE@@U1@@?$positional_parameter_base@DV?$string_output_adapter@D@__crt_stdio_output@@@__crt_stdio_output@@IAE_NAAU_CRT_DOUBLE@@@Z 004317b0 f i libucrtd:output.obj
 0001:00030960       ??$extract_argument_from_va_list@U_CRT_DOUBLE@@U1@@?$positional_parameter_base@_WV?$stream_output_adapter@_W@__crt_stdio_output@@@__crt_stdio_output@@IAE_NAAU_CRT_DOUBLE@@@Z 00431960 f i libucrtd:output.obj
 0001:00030b10       ??$extract_argument_from_va_list@U_CRT_DOUBLE@@U1@@?$positional_parameter_base@_WV?$string_output_adapter@_W@__crt_stdio_output@@@__crt_stdio_output@@IAE_NAAU_CRT_DOUBLE@@@Z 00431b10 f i libucrtd:output.obj
 0001:00030cc0       ??$extract_argument_from_va_list@U_CRT_DOUBLE@@U1@@?$standard_base@DV?$stream_output_adapter@D@__crt_stdio_output@@@__crt_stdio_output@@IAE_NAAU_CRT_DOUBLE@@@Z 00431cc0 f i libucrtd:output.obj
 0001:00030d20       ??$extract_argument_from_va_list@U_CRT_DOUBLE@@U1@@?$standard_base@DV?$string_output_adapter@D@__crt_stdio_output@@@__crt_stdio_output@@IAE_NAAU_CRT_DOUBLE@@@Z 00431d20 f i libucrtd:output.obj
 0001:00030d80       ??$extract_argument_from_va_list@U_CRT_DOUBLE@@U1@@?$standard_base@_WV?$stream_output_adapter@_W@__crt_stdio_output@@@__crt_stdio_output@@IAE_NAAU_CRT_DOUBLE@@@Z 00431d80 f i libucrtd:output.obj
 0001:00030de0       ??$extract_argument_from_va_list@U_CRT_DOUBLE@@U1@@?$standard_base@_WV?$string_output_adapter@_W@__crt_stdio_output@@@__crt_stdio_output@@IAE_NAAU_CRT_DOUBLE@@@Z 00431de0 f i libucrtd:output.obj
 0001:00030e40       ??$extract_argument_from_va_list@_J_J@?$positional_parameter_base@DV?$stream_output_adapter@D@__crt_stdio_output@@@__crt_stdio_output@@IAE_NAA_J@Z 00431e40 f i libucrtd:output.obj
 0001:00030fc0       ??$extract_argument_from_va_list@_J_J@?$positional_parameter_base@DV?$string_output_adapter@D@__crt_stdio_output@@@__crt_stdio_output@@IAE_NAA_J@Z 00431fc0 f i libucrtd:output.obj
 0001:00031140       ??$extract_argument_from_va_list@_J_J@?$positional_parameter_base@_WV?$stream_output_adapter@_W@__crt_stdio_output@@@__crt_stdio_output@@IAE_NAA_J@Z 00432140 f i libucrtd:output.obj
 0001:000312c0       ??$extract_argument_from_va_list@_J_J@?$positional_parameter_base@_WV?$string_output_adapter@_W@__crt_stdio_output@@@__crt_stdio_output@@IAE_NAA_J@Z 004322c0 f i libucrtd:output.obj
 0001:00031440       ??$extract_argument_from_va_list@_J_J@?$standard_base@DV?$stream_output_adapter@D@__crt_stdio_output@@@__crt_stdio_output@@IAE_NAA_J@Z 00432440 f i libucrtd:output.obj
 0001:00031480       ??$extract_argument_from_va_list@_J_J@?$standard_base@DV?$string_output_adapter@D@__crt_stdio_output@@@__crt_stdio_output@@IAE_NAA_J@Z 00432480 f i libucrtd:output.obj
 0001:000314c0       ??$extract_argument_from_va_list@_J_J@?$standard_base@_WV?$stream_output_adapter@_W@__crt_stdio_output@@@__crt_stdio_output@@IAE_NAA_J@Z 004324c0 f i libucrtd:output.obj
 0001:00031500       ??$extract_argument_from_va_list@_J_J@?$standard_base@_WV?$string_output_adapter@_W@__crt_stdio_output@@@__crt_stdio_output@@IAE_NAA_J@Z 00432500 f i libucrtd:output.obj
 0001:00031540       ??$extract_argument_from_va_list@_K_J@?$positional_parameter_base@DV?$stream_output_adapter@D@__crt_stdio_output@@@__crt_stdio_output@@IAE_NAA_J@Z 00432540 f i libucrtd:output.obj
 0001:000316c0       ??$extract_argument_from_va_list@_K_J@?$positional_parameter_base@DV?$string_output_adapter@D@__crt_stdio_output@@@__crt_stdio_output@@IAE_NAA_J@Z 004326c0 f i libucrtd:output.obj
 0001:00031840       ??$extract_argument_from_va_list@_K_J@?$positional_parameter_base@_WV?$stream_output_adapter@_W@__crt_stdio_output@@@__crt_stdio_output@@IAE_NAA_J@Z 00432840 f i libucrtd:output.obj
 0001:000319c0       ??$extract_argument_from_va_list@_K_J@?$positional_parameter_base@_WV?$string_output_adapter@_W@__crt_stdio_output@@@__crt_stdio_output@@IAE_NAA_J@Z 004329c0 f i libucrtd:output.obj
 0001:00031b40       ??$extract_argument_from_va_list@_K_J@?$standard_base@DV?$stream_output_adapter@D@__crt_stdio_output@@@__crt_stdio_output@@IAE_NAA_J@Z 00432b40 f i libucrtd:output.obj
 0001:00031b80       ??$extract_argument_from_va_list@_K_J@?$standard_base@DV?$string_output_adapter@D@__crt_stdio_output@@@__crt_stdio_output@@IAE_NAA_J@Z 00432b80 f i libucrtd:output.obj
 0001:00031bc0       ??$extract_argument_from_va_list@_K_J@?$standard_base@_WV?$stream_output_adapter@_W@__crt_stdio_output@@@__crt_stdio_output@@IAE_NAA_J@Z 00432bc0 f i libucrtd:output.obj
 0001:00031c00       ??$extract_argument_from_va_list@_K_J@?$standard_base@_WV?$string_output_adapter@_W@__crt_stdio_output@@@__crt_stdio_output@@IAE_NAA_J@Z 00432c00 f i libucrtd:output.obj
 0001:00031c40       ??$extract_argument_from_va_list@_W_W@?$positional_parameter_base@DV?$stream_output_adapter@D@__crt_stdio_output@@@__crt_stdio_output@@IAE_NAA_W@Z 00432c40 f i libucrtd:output.obj
 0001:00031dc0       ??$extract_argument_from_va_list@_W_W@?$positional_parameter_base@DV?$string_output_adapter@D@__crt_stdio_output@@@__crt_stdio_output@@IAE_NAA_W@Z 00432dc0 f i libucrtd:output.obj
 0001:00031f40       ??$extract_argument_from_va_list@_W_W@?$positional_parameter_base@_WV?$stream_output_adapter@_W@__crt_stdio_output@@@__crt_stdio_output@@IAE_NAA_W@Z 00432f40 f i libucrtd:output.obj
 0001:000320c0       ??$extract_argument_from_va_list@_W_W@?$positional_parameter_base@_WV?$string_output_adapter@_W@__crt_stdio_output@@@__crt_stdio_output@@IAE_NAA_W@Z 004330c0 f i libucrtd:output.obj
 0001:00032240       ??$extract_argument_from_va_list@_W_W@?$standard_base@DV?$stream_output_adapter@D@__crt_stdio_output@@@__crt_stdio_output@@IAE_NAA_W@Z 00433240 f i libucrtd:output.obj
 0001:00032270       ??$extract_argument_from_va_list@_W_W@?$standard_base@DV?$string_output_adapter@D@__crt_stdio_output@@@__crt_stdio_output@@IAE_NAA_W@Z 00433270 f i libucrtd:output.obj
 0001:000322a0       ??$extract_argument_from_va_list@_W_W@?$standard_base@_WV?$stream_output_adapter@_W@__crt_stdio_output@@@__crt_stdio_output@@IAE_NAA_W@Z 004332a0 f i libucrtd:output.obj
 0001:000322d0       ??$extract_argument_from_va_list@_W_W@?$standard_base@_WV?$string_output_adapter@_W@__crt_stdio_output@@@__crt_stdio_output@@IAE_NAA_W@Z 004332d0 f i libucrtd:output.obj
 0001:00032300       ??$get_parameter_type@D@?$positional_parameter_base@DV?$stream_output_adapter@D@__crt_stdio_output@@@__crt_stdio_output@@CA?AW4parameter_type@01@PAD@Z 00433300 f i libucrtd:output.obj
 0001:00032310       ??$get_parameter_type@D@?$positional_parameter_base@DV?$string_output_adapter@D@__crt_stdio_output@@@__crt_stdio_output@@CA?AW4parameter_type@01@PAD@Z 00433310 f i libucrtd:output.obj
 0001:00032320       ??$get_parameter_type@D@?$positional_parameter_base@_WV?$stream_output_adapter@_W@__crt_stdio_output@@@__crt_stdio_output@@CA?AW4parameter_type@01@PAD@Z 00433320 f i libucrtd:output.obj
 0001:00032330       ??$get_parameter_type@D@?$positional_parameter_base@_WV?$string_output_adapter@_W@__crt_stdio_output@@@__crt_stdio_output@@CA?AW4parameter_type@01@PAD@Z 00433330 f i libucrtd:output.obj
 0001:00032340       ??$get_parameter_type@Uansi_string@?1??type_case_Z@?$output_processor@DV?$stream_output_adapter@D@__crt_stdio_output@@V?$positional_parameter_base@DV?$stream_output_adapter@D@__crt_stdio_output@@@2@@__crt_stdio_output@@AAE_NXZ@@?$positional_parameter_base@DV?$stream_output_adapter@D@__crt_stdio_output@@@__crt_stdio_output@@CA?AW4parameter_type@01@PAUansi_string@?1??type_case_Z@?$output_processor@DV?$stream_output_adapter@D@__crt_stdio_output@@V?$positional_parameter_base@DV?$stream_output_adapter@D@__crt_stdio_output@@@2@@1@AAE_NXZ@@Z 00433340 f i libucrtd:output.obj
 0001:00032350       ??$get_parameter_type@Uansi_string@?1??type_case_Z@?$output_processor@DV?$string_output_adapter@D@__crt_stdio_output@@V?$positional_parameter_base@DV?$string_output_adapter@D@__crt_stdio_output@@@2@@__crt_stdio_output@@AAE_NXZ@@?$positional_parameter_base@DV?$string_output_adapter@D@__crt_stdio_output@@@__crt_stdio_output@@CA?AW4parameter_type@01@PAUansi_string@?1??type_case_Z@?$output_processor@DV?$string_output_adapter@D@__crt_stdio_output@@V?$positional_parameter_base@DV?$string_output_adapter@D@__crt_stdio_output@@@2@@1@AAE_NXZ@@Z 00433350 f i libucrtd:output.obj
 0001:00032360       ??$get_parameter_type@Uansi_string@?1??type_case_Z@?$output_processor@_WV?$stream_output_adapter@_W@__crt_stdio_output@@V?$positional_parameter_base@_WV?$stream_output_adapter@_W@__crt_stdio_output@@@2@@__crt_stdio_output@@AAE_NXZ@@?$positional_parameter_base@_WV?$stream_output_adapter@_W@__crt_stdio_output@@@__crt_stdio_output@@CA?AW4parameter_type@01@PAUansi_string@?1??type_case_Z@?$output_processor@_WV?$stream_output_adapter@_W@__crt_stdio_output@@V?$positional_parameter_base@_WV?$stream_output_adapter@_W@__crt_stdio_output@@@2@@1@AAE_NXZ@@Z 00433360 f i libucrtd:output.obj
 0001:00032370       ??$get_parameter_type@Uansi_string@?1??type_case_Z@?$output_processor@_WV?$string_output_adapter@_W@__crt_stdio_output@@V?$positional_parameter_base@_WV?$string_output_adapter@_W@__crt_stdio_output@@@2@@__crt_stdio_output@@AAE_NXZ@@?$positional_parameter_base@_WV?$string_output_adapter@_W@__crt_stdio_output@@@__crt_stdio_output@@CA?AW4parameter_type@01@PAUansi_string@?1??type_case_Z@?$output_processor@_WV?$string_output_adapter@_W@__crt_stdio_output@@V?$positional_parameter_base@_WV?$string_output_adapter@_W@__crt_stdio_output@@@2@@1@AAE_NXZ@@Z 00433370 f i libucrtd:output.obj
 0001:00032380       ??$get_parameter_type@X@?$positional_parameter_base@DV?$stream_output_adapter@D@__crt_stdio_output@@@__crt_stdio_output@@CA?AW4parameter_type@01@PAX@Z 00433380 f i libucrtd:output.obj
 0001:00032390       ??$get_parameter_type@X@?$positional_parameter_base@DV?$string_output_adapter@D@__crt_stdio_output@@@__crt_stdio_output@@CA?AW4parameter_type@01@PAX@Z 00433390 f i libucrtd:output.obj
 0001:000323a0       ??$get_parameter_type@X@?$positional_parameter_base@_WV?$stream_output_adapter@_W@__crt_stdio_output@@@__crt_stdio_output@@CA?AW4parameter_type@01@PAX@Z 004333a0 f i libucrtd:output.obj
 0001:000323b0       ??$get_parameter_type@X@?$positional_parameter_base@_WV?$string_output_adapter@_W@__crt_stdio_output@@@__crt_stdio_output@@CA?AW4parameter_type@01@PAX@Z 004333b0 f i libucrtd:output.obj
 0001:000323c0       ??$is_character_specifier@D@?$positional_parameter_base@DV?$stream_output_adapter@D@__crt_stdio_output@@@__crt_stdio_output@@CA_ND@Z 004333c0 f i libucrtd:output.obj
 0001:00032400       ??$is_character_specifier@D@?$positional_parameter_base@DV?$string_output_adapter@D@__crt_stdio_output@@@__crt_stdio_output@@CA_ND@Z 00433400 f i libucrtd:output.obj
 0001:00032440       ??$is_character_specifier@_W@?$positional_parameter_base@_WV?$stream_output_adapter@_W@__crt_stdio_output@@@__crt_stdio_output@@CA_N_W@Z 00433440 f i libucrtd:output.obj
 0001:00032480       ??$is_character_specifier@_W@?$positional_parameter_base@_WV?$string_output_adapter@_W@__crt_stdio_output@@@__crt_stdio_output@@CA_N_W@Z 00433480 f i libucrtd:output.obj
 0001:000324c0       ??$is_integral_specifier@D@?$positional_parameter_base@DV?$stream_output_adapter@D@__crt_stdio_output@@@__crt_stdio_output@@CA_ND@Z 004334c0 f i libucrtd:output.obj
 0001:00032540       ??$is_integral_specifier@D@?$positional_parameter_base@DV?$string_output_adapter@D@__crt_stdio_output@@@__crt_stdio_output@@CA_ND@Z 00433540 f i libucrtd:output.obj
 0001:000325c0       ??$is_integral_specifier@_W@?$positional_parameter_base@_WV?$stream_output_adapter@_W@__crt_stdio_output@@@__crt_stdio_output@@CA_N_W@Z 004335c0 f i libucrtd:output.obj
 0001:00032640       ??$is_integral_specifier@_W@?$positional_parameter_base@_WV?$string_output_adapter@_W@__crt_stdio_output@@@__crt_stdio_output@@CA_N_W@Z 00433640 f i libucrtd:output.obj
 0001:000326c0       ??$is_pointer_specifier@D@?$positional_parameter_base@DV?$stream_output_adapter@D@__crt_stdio_output@@@__crt_stdio_output@@CA_ND@Z 004336c0 f i libucrtd:output.obj
 0001:000326f0       ??$is_pointer_specifier@D@?$positional_parameter_base@DV?$string_output_adapter@D@__crt_stdio_output@@@__crt_stdio_output@@CA_ND@Z 004336f0 f i libucrtd:output.obj
 0001:00032720       ??$is_pointer_specifier@_W@?$positional_parameter_base@_WV?$stream_output_adapter@_W@__crt_stdio_output@@@__crt_stdio_output@@CA_N_W@Z 00433720 f i libucrtd:output.obj
 0001:00032750       ??$is_pointer_specifier@_W@?$positional_parameter_base@_WV?$string_output_adapter@_W@__crt_stdio_output@@@__crt_stdio_output@@CA_N_W@Z 00433750 f i libucrtd:output.obj
 0001:00032780       ??$is_string_specifier@D@?$positional_parameter_base@DV?$stream_output_adapter@D@__crt_stdio_output@@@__crt_stdio_output@@CA_ND@Z 00433780 f i libucrtd:output.obj
 0001:000327c0       ??$is_string_specifier@D@?$positional_parameter_base@DV?$string_output_adapter@D@__crt_stdio_output@@@__crt_stdio_output@@CA_ND@Z 004337c0 f i libucrtd:output.obj
 0001:00032800       ??$is_string_specifier@_W@?$positional_parameter_base@_WV?$stream_output_adapter@_W@__crt_stdio_output@@@__crt_stdio_output@@CA_N_W@Z 00433800 f i libucrtd:output.obj
 0001:00032840       ??$is_string_specifier@_W@?$positional_parameter_base@_WV?$string_output_adapter@_W@__crt_stdio_output@@@__crt_stdio_output@@CA_N_W@Z 00433840 f i libucrtd:output.obj
 0001:00032880       ??$is_wide_character_specifier@D@__crt_stdio_output@@YA_N_KDW4length_modifier@0@@Z 00433880 f i libucrtd:output.obj
 0001:00032920       ??$is_wide_character_specifier@_W@__crt_stdio_output@@YA_N_K_WW4length_modifier@0@@Z 00433920 f i libucrtd:output.obj
 0001:00032a10       ??$peek_va_arg@C@__crt_stdio_output@@YACPAD@Z 00433a10 f i libucrtd:output.obj
 0001:00032a30       ??$peek_va_arg@E@__crt_stdio_output@@YAEPAD@Z 00433a30 f i libucrtd:output.obj
 0001:00032a50       ??$peek_va_arg@F@__crt_stdio_output@@YAFPAD@Z 00433a50 f i libucrtd:output.obj
 0001:00032a70       ??$peek_va_arg@G@__crt_stdio_output@@YAGPAD@Z 00433a70 f i libucrtd:output.obj
 0001:00032a90       ??$peek_va_arg@H@__crt_stdio_output@@YAHPAD@Z 00433a90 f i libucrtd:output.obj
 0001:00032ab0       ??$peek_va_arg@I@__crt_stdio_output@@YAIPAD@Z 00433ab0 f i libucrtd:output.obj
 0001:00032ad0       ??$peek_va_arg@PAD@__crt_stdio_output@@YAPADPAD@Z 00433ad0 f i libucrtd:output.obj
 0001:00032af0       ??$peek_va_arg@PAUansi_string@?1??type_case_Z@?$output_processor@DV?$stream_output_adapter@D@__crt_stdio_output@@V?$positional_parameter_base@DV?$stream_output_adapter@D@__crt_stdio_output@@@2@@__crt_stdio_output@@AAE_NXZ@@__crt_stdio_output@@YAPAUansi_string@?1??type_case_Z@?$output_processor@DV?$stream_output_adapter@D@__crt_stdio_output@@V?$positional_parameter_base@DV?$stream_output_adapter@D@__crt_stdio_output@@@2@@0@AAE_NXZ@PAD@Z 00433af0 f i libucrtd:output.obj
 0001:00032b10       ??$peek_va_arg@PAUansi_string@?1??type_case_Z@?$output_processor@DV?$string_output_adapter@D@__crt_stdio_output@@V?$positional_parameter_base@DV?$string_output_adapter@D@__crt_stdio_output@@@2@@__crt_stdio_output@@AAE_NXZ@@__crt_stdio_output@@YAPAUansi_string@?1??type_case_Z@?$output_processor@DV?$string_output_adapter@D@__crt_stdio_output@@V?$positional_parameter_base@DV?$string_output_adapter@D@__crt_stdio_output@@@2@@0@AAE_NXZ@PAD@Z 00433b10 f i libucrtd:output.obj
 0001:00032b30       ??$peek_va_arg@PAUansi_string@?1??type_case_Z@?$output_processor@_WV?$stream_output_adapter@_W@__crt_stdio_output@@V?$positional_parameter_base@_WV?$stream_output_adapter@_W@__crt_stdio_output@@@2@@__crt_stdio_output@@AAE_NXZ@@__crt_stdio_output@@YAPAUansi_string@?1??type_case_Z@?$output_processor@_WV?$stream_output_adapter@_W@__crt_stdio_output@@V?$positional_parameter_base@_WV?$stream_output_adapter@_W@__crt_stdio_output@@@2@@0@AAE_NXZ@PAD@Z 00433b30 f i libucrtd:output.obj
 0001:00032b50       ??$peek_va_arg@PAUansi_string@?1??type_case_Z@?$output_processor@_WV?$string_output_adapter@_W@__crt_stdio_output@@V?$positional_parameter_base@_WV?$string_output_adapter@_W@__crt_stdio_output@@@2@@__crt_stdio_output@@AAE_NXZ@@__crt_stdio_output@@YAPAUansi_string@?1??type_case_Z@?$output_processor@_WV?$string_output_adapter@_W@__crt_stdio_output@@V?$positional_parameter_base@_WV?$string_output_adapter@_W@__crt_stdio_output@@@2@@0@AAE_NXZ@PAD@Z 00433b50 f i libucrtd:output.obj
 0001:00032b70       ??$peek_va_arg@PAX@__crt_stdio_output@@YAPAXPAD@Z 00433b70 f i libucrtd:output.obj
 0001:00032b90       ??$peek_va_arg@U_CRT_DOUBLE@@@__crt_stdio_output@@YA?AU_CRT_DOUBLE@@PAD@Z 00433b90 f i libucrtd:output.obj
 0001:00032bb0       ??$peek_va_arg@_J@__crt_stdio_output@@YA_JPAD@Z 00433bb0 f i libucrtd:output.obj
 0001:00032bd0       ??$peek_va_arg@_K@__crt_stdio_output@@YA_KPAD@Z 00433bd0 f i libucrtd:output.obj
 0001:00032bf0       ??$peek_va_arg@_W@__crt_stdio_output@@YA_WPAD@Z 00433bf0 f i libucrtd:output.obj
 0001:00032c10       ??$puttc_nolock@ABDPAU_iobuf@@@?$__crt_char_traits@D@@SAHABD$$QAPAU_iobuf@@@Z 00433c10 f i libucrtd:output.obj
 0001:00032c40       ??$puttc_nolock@AB_WPAU_iobuf@@@?$__crt_char_traits@_W@@SAGAB_W$$QAPAU_iobuf@@@Z 00433c40 f i libucrtd:output.obj
 0001:00032c70       ??$read_va_arg@C@__crt_stdio_output@@YACAAPAD@Z 00433c70 f i libucrtd:output.obj
 0001:00032ca0       ??$read_va_arg@E@__crt_stdio_output@@YAEAAPAD@Z 00433ca0 f i libucrtd:output.obj
 0001:00032cd0       ??$read_va_arg@F@__crt_stdio_output@@YAFAAPAD@Z 00433cd0 f i libucrtd:output.obj
 0001:00032d00       ??$read_va_arg@G@__crt_stdio_output@@YAGAAPAD@Z 00433d00 f i libucrtd:output.obj
 0001:00032d30       ??$read_va_arg@H@__crt_stdio_output@@YAHAAPAD@Z 00433d30 f i libucrtd:output.obj
 0001:00032d60       ??$read_va_arg@I@__crt_stdio_output@@YAIAAPAD@Z 00433d60 f i libucrtd:output.obj
 0001:00032d90       ??$read_va_arg@PAD@__crt_stdio_output@@YAPADAAPAD@Z 00433d90 f i libucrtd:output.obj
 0001:00032dc0       ??$read_va_arg@PAUansi_string@?1??type_case_Z@?$output_processor@DV?$stream_output_adapter@D@__crt_stdio_output@@V?$format_validation_base@DV?$stream_output_adapter@D@__crt_stdio_output@@@2@@__crt_stdio_output@@AAE_NXZ@@__crt_stdio_output@@YAPAUansi_string@?1??type_case_Z@?$output_processor@DV?$stream_output_adapter@D@__crt_stdio_output@@V?$format_validation_base@DV?$stream_output_adapter@D@__crt_stdio_output@@@2@@0@AAE_NXZ@AAPAD@Z 00433dc0 f i libucrtd:output.obj
 0001:00032df0       ??$read_va_arg@PAUansi_string@?1??type_case_Z@?$output_processor@DV?$stream_output_adapter@D@__crt_stdio_output@@V?$positional_parameter_base@DV?$stream_output_adapter@D@__crt_stdio_output@@@2@@__crt_stdio_output@@AAE_NXZ@@__crt_stdio_output@@YAPAUansi_string@?1??type_case_Z@?$output_processor@DV?$stream_output_adapter@D@__crt_stdio_output@@V?$positional_parameter_base@DV?$stream_output_adapter@D@__crt_stdio_output@@@2@@0@AAE_NXZ@AAPAD@Z 00433df0 f i libucrtd:output.obj
 0001:00032e20       ??$read_va_arg@PAUansi_string@?1??type_case_Z@?$output_processor@DV?$stream_output_adapter@D@__crt_stdio_output@@V?$standard_base@DV?$stream_output_adapter@D@__crt_stdio_output@@@2@@__crt_stdio_output@@AAE_NXZ@@__crt_stdio_output@@YAPAUansi_string@?1??type_case_Z@?$output_processor@DV?$stream_output_adapter@D@__crt_stdio_output@@V?$standard_base@DV?$stream_output_adapter@D@__crt_stdio_output@@@2@@0@AAE_NXZ@AAPAD@Z 00433e20 f i libucrtd:output.obj
 0001:00032e50       ??$read_va_arg@PAUansi_string@?1??type_case_Z@?$output_processor@DV?$string_output_adapter@D@__crt_stdio_output@@V?$format_validation_base@DV?$string_output_adapter@D@__crt_stdio_output@@@2@@__crt_stdio_output@@AAE_NXZ@@__crt_stdio_output@@YAPAUansi_string@?1??type_case_Z@?$output_processor@DV?$string_output_adapter@D@__crt_stdio_output@@V?$format_validation_base@DV?$string_output_adapter@D@__crt_stdio_output@@@2@@0@AAE_NXZ@AAPAD@Z 00433e50 f i libucrtd:output.obj
 0001:00032e80       ??$read_va_arg@PAUansi_string@?1??type_case_Z@?$output_processor@DV?$string_output_adapter@D@__crt_stdio_output@@V?$positional_parameter_base@DV?$string_output_adapter@D@__crt_stdio_output@@@2@@__crt_stdio_output@@AAE_NXZ@@__crt_stdio_output@@YAPAUansi_string@?1??type_case_Z@?$output_processor@DV?$string_output_adapter@D@__crt_stdio_output@@V?$positional_parameter_base@DV?$string_output_adapter@D@__crt_stdio_output@@@2@@0@AAE_NXZ@AAPAD@Z 00433e80 f i libucrtd:output.obj
 0001:00032eb0       ??$read_va_arg@PAUansi_string@?1??type_case_Z@?$output_processor@DV?$string_output_adapter@D@__crt_stdio_output@@V?$standard_base@DV?$string_output_adapter@D@__crt_stdio_output@@@2@@__crt_stdio_output@@AAE_NXZ@@__crt_stdio_output@@YAPAUansi_string@?1??type_case_Z@?$output_processor@DV?$string_output_adapter@D@__crt_stdio_output@@V?$standard_base@DV?$string_output_adapter@D@__crt_stdio_output@@@2@@0@AAE_NXZ@AAPAD@Z 00433eb0 f i libucrtd:output.obj
 0001:00032ee0       ??$read_va_arg@PAUansi_string@?1??type_case_Z@?$output_processor@_WV?$stream_output_adapter@_W@__crt_stdio_output@@V?$format_validation_base@_WV?$stream_output_adapter@_W@__crt_stdio_output@@@2@@__crt_stdio_output@@AAE_NXZ@@__crt_stdio_output@@YAPAUansi_string@?1??type_case_Z@?$output_processor@_WV?$stream_output_adapter@_W@__crt_stdio_output@@V?$format_validation_base@_WV?$stream_output_adapter@_W@__crt_stdio_output@@@2@@0@AAE_NXZ@AAPAD@Z 00433ee0 f i libucrtd:output.obj
 0001:00032f10       ??$read_va_arg@PAUansi_string@?1??type_case_Z@?$output_processor@_WV?$stream_output_adapter@_W@__crt_stdio_output@@V?$positional_parameter_base@_WV?$stream_output_adapter@_W@__crt_stdio_output@@@2@@__crt_stdio_output@@AAE_NXZ@@__crt_stdio_output@@YAPAUansi_string@?1??type_case_Z@?$output_processor@_WV?$stream_output_adapter@_W@__crt_stdio_output@@V?$positional_parameter_base@_WV?$stream_output_adapter@_W@__crt_stdio_output@@@2@@0@AAE_NXZ@AAPAD@Z 00433f10 f i libucrtd:output.obj
 0001:00032f40       ??$read_va_arg@PAUansi_string@?1??type_case_Z@?$output_processor@_WV?$stream_output_adapter@_W@__crt_stdio_output@@V?$standard_base@_WV?$stream_output_adapter@_W@__crt_stdio_output@@@2@@__crt_stdio_output@@AAE_NXZ@@__crt_stdio_output@@YAPAUansi_string@?1??type_case_Z@?$output_processor@_WV?$stream_output_adapter@_W@__crt_stdio_output@@V?$standard_base@_WV?$stream_output_adapter@_W@__crt_stdio_output@@@2@@0@AAE_NXZ@AAPAD@Z 00433f40 f i libucrtd:output.obj
 0001:00032f70       ??$read_va_arg@PAUansi_string@?1??type_case_Z@?$output_processor@_WV?$string_output_adapter@_W@__crt_stdio_output@@V?$format_validation_base@_WV?$string_output_adapter@_W@__crt_stdio_output@@@2@@__crt_stdio_output@@AAE_NXZ@@__crt_stdio_output@@YAPAUansi_string@?1??type_case_Z@?$output_processor@_WV?$string_output_adapter@_W@__crt_stdio_output@@V?$format_validation_base@_WV?$string_output_adapter@_W@__crt_stdio_output@@@2@@0@AAE_NXZ@AAPAD@Z 00433f70 f i libucrtd:output.obj
 0001:00032fa0       ??$read_va_arg@PAUansi_string@?1??type_case_Z@?$output_processor@_WV?$string_output_adapter@_W@__crt_stdio_output@@V?$positional_parameter_base@_WV?$string_output_adapter@_W@__crt_stdio_output@@@2@@__crt_stdio_output@@AAE_NXZ@@__crt_stdio_output@@YAPAUansi_string@?1??type_case_Z@?$output_processor@_WV?$string_output_adapter@_W@__crt_stdio_output@@V?$positional_parameter_base@_WV?$string_output_adapter@_W@__crt_stdio_output@@@2@@0@AAE_NXZ@AAPAD@Z 00433fa0 f i libucrtd:output.obj
 0001:00032fd0       ??$read_va_arg@PAUansi_string@?1??type_case_Z@?$output_processor@_WV?$string_output_adapter@_W@__crt_stdio_output@@V?$standard_base@_WV?$string_output_adapter@_W@__crt_stdio_output@@@2@@__crt_stdio_output@@AAE_NXZ@@__crt_stdio_output@@YAPAUansi_string@?1??type_case_Z@?$output_processor@_WV?$string_output_adapter@_W@__crt_stdio_output@@V?$standard_base@_WV?$string_output_adapter@_W@__crt_stdio_output@@@2@@0@AAE_NXZ@AAPAD@Z 00433fd0 f i libucrtd:output.obj
 0001:00033000       ??$read_va_arg@PAX@__crt_stdio_output@@YAPAXAAPAD@Z 00434000 f i libucrtd:output.obj
 0001:00033030       ??$read_va_arg@U_CRT_DOUBLE@@@__crt_stdio_output@@YA?AU_CRT_DOUBLE@@AAPAD@Z 00434030 f i libucrtd:output.obj
 0001:00033060       ??$read_va_arg@_J@__crt_stdio_output@@YA_JAAPAD@Z 00434060 f i libucrtd:output.obj
 0001:00033090       ??$read_va_arg@_K@__crt_stdio_output@@YA_KAAPAD@Z 00434090 f i libucrtd:output.obj
 0001:000330c0       ??$read_va_arg@_W@__crt_stdio_output@@YA_WAAPAD@Z 004340c0 f i libucrtd:output.obj
 0001:000330f0       ??$scratch_count@D@formatting_buffer@__crt_stdio_output@@QBEIXZ 004340f0 f i libucrtd:output.obj
 0001:00033110       ??$scratch_data@D@formatting_buffer@__crt_stdio_output@@QAEPADXZ 00434110 f i libucrtd:output.obj
 0001:00033170       ??$tcstol@AAPBDPAPADH@?$__crt_char_traits@D@@SAJAAPBD$$QAPAPAD$$QAH@Z 00434170 f i libucrtd:output.obj
 0001:000331a0       ??$tcstol@AAPB_WPAPA_WH@?$__crt_char_traits@_W@@SAJAAPB_W$$QAPAPA_W$$QAH@Z 004341a0 f i libucrtd:output.obj
 0001:000331d0       ??$tcstol@PBDPAPADH@?$__crt_char_traits@D@@SAJ$$QAPBD$$QAPAPAD$$QAH@Z 004341d0 f i libucrtd:output.obj
 0001:00033200       ??$tcstol@PB_WPAPA_WH@?$__crt_char_traits@_W@@SAJ$$QAPB_W$$QAPAPA_W$$QAH@Z 00434200 f i libucrtd:output.obj
 0001:00033230       ??$type_case_integer_parse_into_buffer@I@?$output_processor@DV?$stream_output_adapter@D@__crt_stdio_output@@V?$format_validation_base@DV?$stream_output_adapter@D@__crt_stdio_output@@@2@@__crt_stdio_output@@AAEXII_N@Z 00434230 f i libucrtd:output.obj
 0001:00033330       ??$type_case_integer_parse_into_buffer@I@?$output_processor@DV?$stream_output_adapter@D@__crt_stdio_output@@V?$positional_parameter_base@DV?$stream_output_adapter@D@__crt_stdio_output@@@2@@__crt_stdio_output@@AAEXII_N@Z 00434330 f i libucrtd:output.obj
 0001:00033430       ??$type_case_integer_parse_into_buffer@I@?$output_processor@DV?$stream_output_adapter@D@__crt_stdio_output@@V?$standard_base@DV?$stream_output_adapter@D@__crt_stdio_output@@@2@@__crt_stdio_output@@AAEXII_N@Z 00434430 f i libucrtd:output.obj
 0001:00033530       ??$type_case_integer_parse_into_buffer@I@?$output_processor@DV?$string_output_adapter@D@__crt_stdio_output@@V?$format_validation_base@DV?$string_output_adapter@D@__crt_stdio_output@@@2@@__crt_stdio_output@@AAEXII_N@Z 00434530 f i libucrtd:output.obj
 0001:00033630       ??$type_case_integer_parse_into_buffer@I@?$output_processor@DV?$string_output_adapter@D@__crt_stdio_output@@V?$positional_parameter_base@DV?$string_output_adapter@D@__crt_stdio_output@@@2@@__crt_stdio_output@@AAEXII_N@Z 00434630 f i libucrtd:output.obj
 0001:00033730       ??$type_case_integer_parse_into_buffer@I@?$output_processor@DV?$string_output_adapter@D@__crt_stdio_output@@V?$standard_base@DV?$string_output_adapter@D@__crt_stdio_output@@@2@@__crt_stdio_output@@AAEXII_N@Z 00434730 f i libucrtd:output.obj
 0001:00033830       ??$type_case_integer_parse_into_buffer@I@?$output_processor@_WV?$stream_output_adapter@_W@__crt_stdio_output@@V?$format_validation_base@_WV?$stream_output_adapter@_W@__crt_stdio_output@@@2@@__crt_stdio_output@@AAEXII_N@Z 00434830 f i libucrtd:output.obj
 0001:00033940       ??$type_case_integer_parse_into_buffer@I@?$output_processor@_WV?$stream_output_adapter@_W@__crt_stdio_output@@V?$positional_parameter_base@_WV?$stream_output_adapter@_W@__crt_stdio_output@@@2@@__crt_stdio_output@@AAEXII_N@Z 00434940 f i libucrtd:output.obj
 0001:00033a50       ??$type_case_integer_parse_into_buffer@I@?$output_processor@_WV?$stream_output_adapter@_W@__crt_stdio_output@@V?$standard_base@_WV?$stream_output_adapter@_W@__crt_stdio_output@@@2@@__crt_stdio_output@@AAEXII_N@Z 00434a50 f i libucrtd:output.obj
 0001:00033b60       ??$type_case_integer_parse_into_buffer@I@?$output_processor@_WV?$string_output_adapter@_W@__crt_stdio_output@@V?$format_validation_base@_WV?$string_output_adapter@_W@__crt_stdio_output@@@2@@__crt_stdio_output@@AAEXII_N@Z 00434b60 f i libucrtd:output.obj
 0001:00033c70       ??$type_case_integer_parse_into_buffer@I@?$output_processor@_WV?$string_output_adapter@_W@__crt_stdio_output@@V?$positional_parameter_base@_WV?$string_output_adapter@_W@__crt_stdio_output@@@2@@__crt_stdio_output@@AAEXII_N@Z 00434c70 f i libucrtd:output.obj
 0001:00033d80       ??$type_case_integer_parse_into_buffer@I@?$output_processor@_WV?$string_output_adapter@_W@__crt_stdio_output@@V?$standard_base@_WV?$string_output_adapter@_W@__crt_stdio_output@@@2@@__crt_stdio_output@@AAEXII_N@Z 00434d80 f i libucrtd:output.obj
 0001:00033e90       ??$type_case_integer_parse_into_buffer@_K@?$output_processor@DV?$stream_output_adapter@D@__crt_stdio_output@@V?$format_validation_base@DV?$stream_output_adapter@D@__crt_stdio_output@@@2@@__crt_stdio_output@@AAEX_KI_N@Z 00434e90 f i libucrtd:output.obj
 0001:00033fc0       ??$type_case_integer_parse_into_buffer@_K@?$output_processor@DV?$stream_output_adapter@D@__crt_stdio_output@@V?$positional_parameter_base@DV?$stream_output_adapter@D@__crt_stdio_output@@@2@@__crt_stdio_output@@AAEX_KI_N@Z 00434fc0 f i libucrtd:output.obj
 0001:000340f0       ??$type_case_integer_parse_into_buffer@_K@?$output_processor@DV?$stream_output_adapter@D@__crt_stdio_output@@V?$standard_base@DV?$stream_output_adapter@D@__crt_stdio_output@@@2@@__crt_stdio_output@@AAEX_KI_N@Z 004350f0 f i libucrtd:output.obj
 0001:00034220       ??$type_case_integer_parse_into_buffer@_K@?$output_processor@DV?$string_output_adapter@D@__crt_stdio_output@@V?$format_validation_base@DV?$string_output_adapter@D@__crt_stdio_output@@@2@@__crt_stdio_output@@AAEX_KI_N@Z 00435220 f i libucrtd:output.obj
 0001:00034350       ??$type_case_integer_parse_into_buffer@_K@?$output_processor@DV?$string_output_adapter@D@__crt_stdio_output@@V?$positional_parameter_base@DV?$string_output_adapter@D@__crt_stdio_output@@@2@@__crt_stdio_output@@AAEX_KI_N@Z 00435350 f i libucrtd:output.obj
 0001:00034480       ??$type_case_integer_parse_into_buffer@_K@?$output_processor@DV?$string_output_adapter@D@__crt_stdio_output@@V?$standard_base@DV?$string_output_adapter@D@__crt_stdio_output@@@2@@__crt_stdio_output@@AAEX_KI_N@Z 00435480 f i libucrtd:output.obj
 0001:000345b0       ??$type_case_integer_parse_into_buffer@_K@?$output_processor@_WV?$stream_output_adapter@_W@__crt_stdio_output@@V?$format_validation_base@_WV?$stream_output_adapter@_W@__crt_stdio_output@@@2@@__crt_stdio_output@@AAEX_KI_N@Z 004355b0 f i libucrtd:output.obj
 0001:000346f0       ??$type_case_integer_parse_into_buffer@_K@?$output_processor@_WV?$stream_output_adapter@_W@__crt_stdio_output@@V?$positional_parameter_base@_WV?$stream_output_adapter@_W@__crt_stdio_output@@@2@@__crt_stdio_output@@AAEX_KI_N@Z 004356f0 f i libucrtd:output.obj
 0001:00034830       ??$type_case_integer_parse_into_buffer@_K@?$output_processor@_WV?$stream_output_adapter@_W@__crt_stdio_output@@V?$standard_base@_WV?$stream_output_adapter@_W@__crt_stdio_output@@@2@@__crt_stdio_output@@AAEX_KI_N@Z 00435830 f i libucrtd:output.obj
 0001:00034970       ??$type_case_integer_parse_into_buffer@_K@?$output_processor@_WV?$string_output_adapter@_W@__crt_stdio_output@@V?$format_validation_base@_WV?$string_output_adapter@_W@__crt_stdio_output@@@2@@__crt_stdio_output@@AAEX_KI_N@Z 00435970 f i libucrtd:output.obj
 0001:00034ab0       ??$type_case_integer_parse_into_buffer@_K@?$output_processor@_WV?$string_output_adapter@_W@__crt_stdio_output@@V?$positional_parameter_base@_WV?$string_output_adapter@_W@__crt_stdio_output@@@2@@__crt_stdio_output@@AAEX_KI_N@Z 00435ab0 f i libucrtd:output.obj
 0001:00034bf0       ??$type_case_integer_parse_into_buffer@_K@?$output_processor@_WV?$string_output_adapter@_W@__crt_stdio_output@@V?$standard_base@_WV?$string_output_adapter@_W@__crt_stdio_output@@@2@@__crt_stdio_output@@AAEX_KI_N@Z 00435bf0 f i libucrtd:output.obj
 0001:00034d30       ??$write_multiple_characters@V?$stream_output_adapter@D@__crt_stdio_output@@D@__crt_stdio_output@@YAXABV?$stream_output_adapter@D@0@DHQAH@Z 00435d30 f i libucrtd:output.obj
 0001:00034d90       ??$write_multiple_characters@V?$stream_output_adapter@_W@__crt_stdio_output@@D@__crt_stdio_output@@YAXABV?$stream_output_adapter@_W@0@DHQAH@Z 00435d90 f i libucrtd:output.obj
 0001:00034df0       ??$write_multiple_characters@V?$string_output_adapter@D@__crt_stdio_output@@D@__crt_stdio_output@@YAXABV?$string_output_adapter@D@0@DHQAH@Z 00435df0 f i libucrtd:output.obj
 0001:00034e50       ??$write_multiple_characters@V?$string_output_adapter@_W@__crt_stdio_output@@D@__crt_stdio_output@@YAXABV?$string_output_adapter@_W@0@DHQAH@Z 00435e50 f i libucrtd:output.obj
 0001:000352d0       ??0?$common_data@D@__crt_stdio_output@@IAE@XZ 004362d0 f i libucrtd:output.obj
 0001:000353a0       ??0?$common_data@_W@__crt_stdio_output@@IAE@XZ 004363a0 f i libucrtd:output.obj
 0001:00035470       ??0?$output_adapter_data@DV?$stream_output_adapter@D@__crt_stdio_output@@@__crt_stdio_output@@IAE@ABV?$stream_output_adapter@D@1@_KQBDQAU__crt_locale_pointers@@QAD@Z 00436470 f i libucrtd:output.obj
 0001:000354e0       ??0?$output_adapter_data@DV?$string_output_adapter@D@__crt_stdio_output@@@__crt_stdio_output@@IAE@ABV?$string_output_adapter@D@1@_KQBDQAU__crt_locale_pointers@@QAD@Z 004364e0 f i libucrtd:output.obj
 0001:00035550       ??0?$output_adapter_data@_WV?$stream_output_adapter@_W@__crt_stdio_output@@@__crt_stdio_output@@IAE@ABV?$stream_output_adapter@_W@1@_KQB_WQAU__crt_locale_pointers@@QAD@Z 00436550 f i libucrtd:output.obj
 0001:000355c0       ??0?$output_adapter_data@_WV?$string_output_adapter@_W@__crt_stdio_output@@@__crt_stdio_output@@IAE@ABV?$string_output_adapter@_W@1@_KQB_WQAU__crt_locale_pointers@@QAD@Z 004365c0 f i libucrtd:output.obj
 0001:00035630       ??0?$output_processor@DV?$stream_output_adapter@D@__crt_stdio_output@@V?$format_validation_base@DV?$stream_output_adapter@D@__crt_stdio_output@@@2@@__crt_stdio_output@@QAE@ABV?$stream_output_adapter@D@1@_KQBDQAU__crt_locale_pointers@@QAD@Z 00436630 f i libucrtd:output.obj
 0001:00035680       ??0?$output_processor@DV?$stream_output_adapter@D@__crt_stdio_output@@V?$positional_parameter_base@DV?$stream_output_adapter@D@__crt_stdio_output@@@2@@__crt_stdio_output@@QAE@ABV?$stream_output_adapter@D@1@_KQBDQAU__crt_locale_pointers@@QAD@Z 00436680 f i libucrtd:output.obj
 0001:000356d0       ??0?$output_processor@DV?$stream_output_adapter@D@__crt_stdio_output@@V?$standard_base@DV?$stream_output_adapter@D@__crt_stdio_output@@@2@@__crt_stdio_output@@QAE@ABV?$stream_output_adapter@D@1@_KQBDQAU__crt_locale_pointers@@QAD@Z 004366d0 f i libucrtd:output.obj
 0001:00035720       ??0?$output_processor@DV?$string_output_adapter@D@__crt_stdio_output@@V?$format_validation_base@DV?$string_output_adapter@D@__crt_stdio_output@@@2@@__crt_stdio_output@@QAE@ABV?$string_output_adapter@D@1@_KQBDQAU__crt_locale_pointers@@QAD@Z 00436720 f i libucrtd:output.obj
 0001:00035770       ??0?$output_processor@DV?$string_output_adapter@D@__crt_stdio_output@@V?$positional_parameter_base@DV?$string_output_adapter@D@__crt_stdio_output@@@2@@__crt_stdio_output@@QAE@ABV?$string_output_adapter@D@1@_KQBDQAU__crt_locale_pointers@@QAD@Z 00436770 f i libucrtd:output.obj
 0001:000357c0       ??0?$output_processor@DV?$string_output_adapter@D@__crt_stdio_output@@V?$standard_base@DV?$string_output_adapter@D@__crt_stdio_output@@@2@@__crt_stdio_output@@QAE@ABV?$string_output_adapter@D@1@_KQBDQAU__crt_locale_pointers@@QAD@Z 004367c0 f i libucrtd:output.obj
 0001:00035810       ??0?$output_processor@_WV?$stream_output_adapter@_W@__crt_stdio_output@@V?$format_validation_base@_WV?$stream_output_adapter@_W@__crt_stdio_output@@@2@@__crt_stdio_output@@QAE@ABV?$stream_output_adapter@_W@1@_KQB_WQAU__crt_locale_pointers@@QAD@Z 00436810 f i libucrtd:output.obj
 0001:00035860       ??0?$output_processor@_WV?$stream_output_adapter@_W@__crt_stdio_output@@V?$positional_parameter_base@_WV?$stream_output_adapter@_W@__crt_stdio_output@@@2@@__crt_stdio_output@@QAE@ABV?$stream_output_adapter@_W@1@_KQB_WQAU__crt_locale_pointers@@QAD@Z 00436860 f i libucrtd:output.obj
 0001:000358b0       ??0?$output_processor@_WV?$stream_output_adapter@_W@__crt_stdio_output@@V?$standard_base@_WV?$stream_output_adapter@_W@__crt_stdio_output@@@2@@__crt_stdio_output@@QAE@ABV?$stream_output_adapter@_W@1@_KQB_WQAU__crt_locale_pointers@@QAD@Z 004368b0 f i libucrtd:output.obj
 0001:00035900       ??0?$output_processor@_WV?$string_output_adapter@_W@__crt_stdio_output@@V?$format_validation_base@_WV?$string_output_adapter@_W@__crt_stdio_output@@@2@@__crt_stdio_output@@QAE@ABV?$string_output_adapter@_W@1@_KQB_WQAU__crt_locale_pointers@@QAD@Z 00436900 f i libucrtd:output.obj
 0001:00035950       ??0?$output_processor@_WV?$string_output_adapter@_W@__crt_stdio_output@@V?$positional_parameter_base@_WV?$string_output_adapter@_W@__crt_stdio_output@@@2@@__crt_stdio_output@@QAE@ABV?$string_output_adapter@_W@1@_KQB_WQAU__crt_locale_pointers@@QAD@Z 00436950 f i libucrtd:output.obj
 0001:000359a0       ??0?$output_processor@_WV?$string_output_adapter@_W@__crt_stdio_output@@V?$standard_base@_WV?$string_output_adapter@_W@__crt_stdio_output@@@2@@__crt_stdio_output@@QAE@ABV?$string_output_adapter@_W@1@_KQB_WQAU__crt_locale_pointers@@QAD@Z 004369a0 f i libucrtd:output.obj
 0001:000359f0       ??0?$stream_output_adapter@D@__crt_stdio_output@@QAE@QAU_iobuf@@@Z 004369f0 f i libucrtd:output.obj
 0001:00035a20       ??0?$stream_output_adapter@_W@__crt_stdio_output@@QAE@QAU_iobuf@@@Z 00436a20 f i libucrtd:output.obj
 0001:00035a50       ??0?$string_output_adapter@D@__crt_stdio_output@@QAE@QAU?$string_output_adapter_context@D@1@@Z 00436a50 f i libucrtd:output.obj
 0001:00035a70       ??0?$string_output_adapter@_W@__crt_stdio_output@@QAE@QAU?$string_output_adapter_context@_W@1@@Z 00436a70 f i libucrtd:output.obj
 0001:00035a90       ??0_LocaleUpdate@@QAE@QAU__crt_locale_pointers@@@Z 00436a90 f i libucrtd:output.obj
 0001:00035bb0       ??0__acrt_stdio_temporary_buffering_guard@@QAE@QAU_iobuf@@@Z 00436bb0 f i libucrtd:output.obj
 0001:00035bf0       ??0__crt_errno_guard@@QAE@QAH@Z 00436bf0 f i libucrtd:output.obj
 0001:00035c30       ??0formatting_buffer@__crt_stdio_output@@QAE@XZ 00436c30 f i libucrtd:output.obj
 0001:00035c70       ??1?$common_data@D@__crt_stdio_output@@QAE@XZ 00436c70 f i libucrtd:output.obj
 0001:00035c90       ??1?$common_data@_W@__crt_stdio_output@@QAE@XZ 00436c90 f i libucrtd:output.obj
 0001:00035cb0       ??1?$format_validation_base@DV?$stream_output_adapter@D@__crt_stdio_output@@@__crt_stdio_output@@QAE@XZ 00436cb0 f i libucrtd:output.obj
 0001:00035cd0       ??1?$format_validation_base@DV?$string_output_adapter@D@__crt_stdio_output@@@__crt_stdio_output@@QAE@XZ 00436cd0 f i libucrtd:output.obj
 0001:00035cf0       ??1?$format_validation_base@_WV?$stream_output_adapter@_W@__crt_stdio_output@@@__crt_stdio_output@@QAE@XZ 00436cf0 f i libucrtd:output.obj
 0001:00035d10       ??1?$format_validation_base@_WV?$string_output_adapter@_W@__crt_stdio_output@@@__crt_stdio_output@@QAE@XZ 00436d10 f i libucrtd:output.obj
 0001:00035d30       ??1?$output_adapter_data@DV?$stream_output_adapter@D@__crt_stdio_output@@@__crt_stdio_output@@QAE@XZ 00436d30 f i libucrtd:output.obj
 0001:00035d50       ??1?$output_adapter_data@DV?$string_output_adapter@D@__crt_stdio_output@@@__crt_stdio_output@@QAE@XZ 00436d50 f i libucrtd:output.obj
 0001:00035d70       ??1?$output_adapter_data@_WV?$stream_output_adapter@_W@__crt_stdio_output@@@__crt_stdio_output@@QAE@XZ 00436d70 f i libucrtd:output.obj
 0001:00035d90       ??1?$output_adapter_data@_WV?$string_output_adapter@_W@__crt_stdio_output@@@__crt_stdio_output@@QAE@XZ 00436d90 f i libucrtd:output.obj
 0001:00035db0       ??1?$output_processor@DV?$stream_output_adapter@D@__crt_stdio_output@@V?$format_validation_base@DV?$stream_output_adapter@D@__crt_stdio_output@@@2@@__crt_stdio_output@@QAE@XZ 00436db0 f i libucrtd:output.obj
 0001:00035dd0       ??1?$output_processor@DV?$stream_output_adapter@D@__crt_stdio_output@@V?$positional_parameter_base@DV?$stream_output_adapter@D@__crt_stdio_output@@@2@@__crt_stdio_output@@QAE@XZ 00436dd0 f i libucrtd:output.obj
 0001:00035df0       ??1?$output_processor@DV?$stream_output_adapter@D@__crt_stdio_output@@V?$standard_base@DV?$stream_output_adapter@D@__crt_stdio_output@@@2@@__crt_stdio_output@@QAE@XZ 00436df0 f i libucrtd:output.obj
 0001:00035e10       ??1?$output_processor@DV?$string_output_adapter@D@__crt_stdio_output@@V?$format_validation_base@DV?$string_output_adapter@D@__crt_stdio_output@@@2@@__crt_stdio_output@@QAE@XZ 00436e10 f i libucrtd:output.obj
 0001:00035e30       ??1?$output_processor@DV?$string_output_adapter@D@__crt_stdio_output@@V?$positional_parameter_base@DV?$string_output_adapter@D@__crt_stdio_output@@@2@@__crt_stdio_output@@QAE@XZ 00436e30 f i libucrtd:output.obj
 0001:00035e50       ??1?$output_processor@DV?$string_output_adapter@D@__crt_stdio_output@@V?$standard_base@DV?$string_output_adapter@D@__crt_stdio_output@@@2@@__crt_stdio_output@@QAE@XZ 00436e50 f i libucrtd:output.obj
 0001:00035e70       ??1?$output_processor@_WV?$stream_output_adapter@_W@__crt_stdio_output@@V?$format_validation_base@_WV?$stream_output_adapter@_W@__crt_stdio_output@@@2@@__crt_stdio_output@@QAE@XZ 00436e70 f i libucrtd:output.obj
 0001:00035e90       ??1?$output_processor@_WV?$stream_output_adapter@_W@__crt_stdio_output@@V?$positional_parameter_base@_WV?$stream_output_adapter@_W@__crt_stdio_output@@@2@@__crt_stdio_output@@QAE@XZ 00436e90 f i libucrtd:output.obj
 0001:00035eb0       ??1?$output_processor@_WV?$stream_output_adapter@_W@__crt_stdio_output@@V?$standard_base@_WV?$stream_output_adapter@_W@__crt_stdio_output@@@2@@__crt_stdio_output@@QAE@XZ 00436eb0 f i libucrtd:output.obj
 0001:00035ed0       ??1?$output_processor@_WV?$string_output_adapter@_W@__crt_stdio_output@@V?$format_validation_base@_WV?$string_output_adapter@_W@__crt_stdio_output@@@2@@__crt_stdio_output@@QAE@XZ 00436ed0 f i libucrtd:output.obj
 0001:00035ef0       ??1?$output_processor@_WV?$string_output_adapter@_W@__crt_stdio_output@@V?$positional_parameter_base@_WV?$string_output_adapter@_W@__crt_stdio_output@@@2@@__crt_stdio_output@@QAE@XZ 00436ef0 f i libucrtd:output.obj
 0001:00035f10       ??1?$output_processor@_WV?$string_output_adapter@_W@__crt_stdio_output@@V?$standard_base@_WV?$string_output_adapter@_W@__crt_stdio_output@@@2@@__crt_stdio_output@@QAE@XZ 00436f10 f i libucrtd:output.obj
 0001:00035f30       ??1?$positional_parameter_base@DV?$stream_output_adapter@D@__crt_stdio_output@@@__crt_stdio_output@@QAE@XZ 00436f30 f i libucrtd:output.obj
 0001:00035f50       ??1?$positional_parameter_base@DV?$string_output_adapter@D@__crt_stdio_output@@@__crt_stdio_output@@QAE@XZ 00436f50 f i libucrtd:output.obj
 0001:00035f70       ??1?$positional_parameter_base@_WV?$stream_output_adapter@_W@__crt_stdio_output@@@__crt_stdio_output@@QAE@XZ 00436f70 f i libucrtd:output.obj
 0001:00035f90       ??1?$positional_parameter_base@_WV?$string_output_adapter@_W@__crt_stdio_output@@@__crt_stdio_output@@QAE@XZ 00436f90 f i libucrtd:output.obj
 0001:00035fb0       ??1?$standard_base@DV?$stream_output_adapter@D@__crt_stdio_output@@@__crt_stdio_output@@QAE@XZ 00436fb0 f i libucrtd:output.obj
 0001:00035fd0       ??1?$standard_base@DV?$string_output_adapter@D@__crt_stdio_output@@@__crt_stdio_output@@QAE@XZ 00436fd0 f i libucrtd:output.obj
 0001:00035ff0       ??1?$standard_base@_WV?$stream_output_adapter@_W@__crt_stdio_output@@@__crt_stdio_output@@QAE@XZ 00436ff0 f i libucrtd:output.obj
 0001:00036010       ??1?$standard_base@_WV?$string_output_adapter@_W@__crt_stdio_output@@@__crt_stdio_output@@QAE@XZ 00437010 f i libucrtd:output.obj
 0001:00036030       ??1_LocaleUpdate@@QAE@XZ   00437030 f i libucrtd:output.obj
 0001:00036070       ??1__acrt_stdio_temporary_buffering_guard@@QAE@XZ 00437070 f i libucrtd:output.obj
 0001:000360a0       ??1__crt_errno_guard@@QAE@XZ 004370a0 f i libucrtd:output.obj
 0001:000360e0       ??1formatting_buffer@__crt_stdio_output@@QAE@XZ 004370e0 f i libucrtd:output.obj
 0001:00036110       ??4?$__crt_unique_heap_ptr@DU__crt_internal_free_policy@@@@QAEAAV0@$$QAV0@@Z 00437110 f i libucrtd:output.obj
 0001:00036a50       ?GetLocaleT@_LocaleUpdate@@QAEPAU__crt_locale_pointers@@XZ 00437a50 f i libucrtd:output.obj
 0001:00036a70       ?adjust_hexit@?$output_processor@DV?$stream_output_adapter@D@__crt_stdio_output@@V?$format_validation_base@DV?$stream_output_adapter@D@__crt_stdio_output@@@2@@__crt_stdio_output@@CADH_N@Z 00437a70 f i libucrtd:output.obj
 0001:00036ac0       ?adjust_hexit@?$output_processor@DV?$stream_output_adapter@D@__crt_stdio_output@@V?$positional_parameter_base@DV?$stream_output_adapter@D@__crt_stdio_output@@@2@@__crt_stdio_output@@CADH_N@Z 00437ac0 f i libucrtd:output.obj
 0001:00036b10       ?adjust_hexit@?$output_processor@DV?$stream_output_adapter@D@__crt_stdio_output@@V?$standard_base@DV?$stream_output_adapter@D@__crt_stdio_output@@@2@@__crt_stdio_output@@CADH_N@Z 00437b10 f i libucrtd:output.obj
 0001:00036b60       ?adjust_hexit@?$output_processor@DV?$string_output_adapter@D@__crt_stdio_output@@V?$format_validation_base@DV?$string_output_adapter@D@__crt_stdio_output@@@2@@__crt_stdio_output@@CADH_N@Z 00437b60 f i libucrtd:output.obj
 0001:00036bb0       ?adjust_hexit@?$output_processor@DV?$string_output_adapter@D@__crt_stdio_output@@V?$positional_parameter_base@DV?$string_output_adapter@D@__crt_stdio_output@@@2@@__crt_stdio_output@@CADH_N@Z 00437bb0 f i libucrtd:output.obj
 0001:00036c00       ?adjust_hexit@?$output_processor@DV?$string_output_adapter@D@__crt_stdio_output@@V?$standard_base@DV?$string_output_adapter@D@__crt_stdio_output@@@2@@__crt_stdio_output@@CADH_N@Z 00437c00 f i libucrtd:output.obj
 0001:00036c50       ?adjust_hexit@?$output_processor@_WV?$stream_output_adapter@_W@__crt_stdio_output@@V?$format_validation_base@_WV?$stream_output_adapter@_W@__crt_stdio_output@@@2@@__crt_stdio_output@@CADH_N@Z 00437c50 f i libucrtd:output.obj
 0001:00036ca0       ?adjust_hexit@?$output_processor@_WV?$stream_output_adapter@_W@__crt_stdio_output@@V?$positional_parameter_base@_WV?$stream_output_adapter@_W@__crt_stdio_output@@@2@@__crt_stdio_output@@CADH_N@Z 00437ca0 f i libucrtd:output.obj
 0001:00036cf0       ?adjust_hexit@?$output_processor@_WV?$stream_output_adapter@_W@__crt_stdio_output@@V?$standard_base@_WV?$stream_output_adapter@_W@__crt_stdio_output@@@2@@__crt_stdio_output@@CADH_N@Z 00437cf0 f i libucrtd:output.obj
 0001:00036d40       ?adjust_hexit@?$output_processor@_WV?$string_output_adapter@_W@__crt_stdio_output@@V?$format_validation_base@_WV?$string_output_adapter@_W@__crt_stdio_output@@@2@@__crt_stdio_output@@CADH_N@Z 00437d40 f i libucrtd:output.obj
 0001:00036d90       ?adjust_hexit@?$output_processor@_WV?$string_output_adapter@_W@__crt_stdio_output@@V?$positional_parameter_base@_WV?$string_output_adapter@_W@__crt_stdio_output@@@2@@__crt_stdio_output@@CADH_N@Z 00437d90 f i libucrtd:output.obj
 0001:00036de0       ?adjust_hexit@?$output_processor@_WV?$string_output_adapter@_W@__crt_stdio_output@@V?$standard_base@_WV?$string_output_adapter@_W@__crt_stdio_output@@@2@@__crt_stdio_output@@CADH_N@Z 00437de0 f i libucrtd:output.obj
 0001:00036e30       ?advance_to_next_pass@?$positional_parameter_base@DV?$stream_output_adapter@D@__crt_stdio_output@@@__crt_stdio_output@@IAE_NXZ 00437e30 f i libucrtd:output.obj
 0001:00036ef0       ?advance_to_next_pass@?$positional_parameter_base@DV?$string_output_adapter@D@__crt_stdio_output@@@__crt_stdio_output@@IAE_NXZ 00437ef0 f i libucrtd:output.obj
 0001:00036fb0       ?advance_to_next_pass@?$positional_parameter_base@_WV?$stream_output_adapter@_W@__crt_stdio_output@@@__crt_stdio_output@@IAE_NXZ 00437fb0 f i libucrtd:output.obj
 0001:00037070       ?advance_to_next_pass@?$positional_parameter_base@_WV?$string_output_adapter@_W@__crt_stdio_output@@@__crt_stdio_output@@IAE_NXZ 00438070 f i libucrtd:output.obj
 0001:00037130       ?advance_to_next_pass@?$standard_base@DV?$stream_output_adapter@D@__crt_stdio_output@@@__crt_stdio_output@@IAE_NXZ 00438130 f i libucrtd:output.obj
 0001:00037190       ?advance_to_next_pass@?$standard_base@DV?$string_output_adapter@D@__crt_stdio_output@@@__crt_stdio_output@@IAE_NXZ 00438190 f i libucrtd:output.obj
 0001:000371f0       ?advance_to_next_pass@?$standard_base@_WV?$stream_output_adapter@_W@__crt_stdio_output@@@__crt_stdio_output@@IAE_NXZ 004381f0 f i libucrtd:output.obj
 0001:00037250       ?advance_to_next_pass@?$standard_base@_WV?$string_output_adapter@_W@__crt_stdio_output@@@__crt_stdio_output@@IAE_NXZ 00438250 f i libucrtd:output.obj
 0001:000372b0       ?crop_zeroes@__crt_stdio_output@@YAXPADQAU__crt_locale_pointers@@@Z 004382b0 f i libucrtd:output.obj
 0001:000373e0       ?find_next_state@?$output_processor@DV?$stream_output_adapter@D@__crt_stdio_output@@V?$format_validation_base@DV?$stream_output_adapter@D@__crt_stdio_output@@@2@@__crt_stdio_output@@ABE?AW4state@2@DW432@@Z 004383e0 f i libucrtd:output.obj
 0001:00037470       ?find_next_state@?$output_processor@DV?$stream_output_adapter@D@__crt_stdio_output@@V?$positional_parameter_base@DV?$stream_output_adapter@D@__crt_stdio_output@@@2@@__crt_stdio_output@@ABE?AW4state@2@DW432@@Z 00438470 f i libucrtd:output.obj
 0001:00037500       ?find_next_state@?$output_processor@DV?$stream_output_adapter@D@__crt_stdio_output@@V?$standard_base@DV?$stream_output_adapter@D@__crt_stdio_output@@@2@@__crt_stdio_output@@ABE?AW4state@2@DW432@@Z 00438500 f i libucrtd:output.obj
 0001:00037590       ?find_next_state@?$output_processor@DV?$string_output_adapter@D@__crt_stdio_output@@V?$format_validation_base@DV?$string_output_adapter@D@__crt_stdio_output@@@2@@__crt_stdio_output@@ABE?AW4state@2@DW432@@Z 00438590 f i libucrtd:output.obj
 0001:00037620       ?find_next_state@?$output_processor@DV?$string_output_adapter@D@__crt_stdio_output@@V?$positional_parameter_base@DV?$string_output_adapter@D@__crt_stdio_output@@@2@@__crt_stdio_output@@ABE?AW4state@2@DW432@@Z 00438620 f i libucrtd:output.obj
 0001:000376b0       ?find_next_state@?$output_processor@DV?$string_output_adapter@D@__crt_stdio_output@@V?$standard_base@DV?$string_output_adapter@D@__crt_stdio_output@@@2@@__crt_stdio_output@@ABE?AW4state@2@DW432@@Z 004386b0 f i libucrtd:output.obj
 0001:00037740       ?find_next_state@?$output_processor@_WV?$stream_output_adapter@_W@__crt_stdio_output@@V?$format_validation_base@_WV?$stream_output_adapter@_W@__crt_stdio_output@@@2@@__crt_stdio_output@@ABE?AW4state@2@_WW432@@Z 00438740 f i libucrtd:output.obj
 0001:000377d0       ?find_next_state@?$output_processor@_WV?$stream_output_adapter@_W@__crt_stdio_output@@V?$positional_parameter_base@_WV?$stream_output_adapter@_W@__crt_stdio_output@@@2@@__crt_stdio_output@@ABE?AW4state@2@_WW432@@Z 004387d0 f i libucrtd:output.obj
 0001:00037860       ?find_next_state@?$output_processor@_WV?$stream_output_adapter@_W@__crt_stdio_output@@V?$standard_base@_WV?$stream_output_adapter@_W@__crt_stdio_output@@@2@@__crt_stdio_output@@ABE?AW4state@2@_WW432@@Z 00438860 f i libucrtd:output.obj
 0001:000378f0       ?find_next_state@?$output_processor@_WV?$string_output_adapter@_W@__crt_stdio_output@@V?$format_validation_base@_WV?$string_output_adapter@_W@__crt_stdio_output@@@2@@__crt_stdio_output@@ABE?AW4state@2@_WW432@@Z 004388f0 f i libucrtd:output.obj
 0001:00037980       ?find_next_state@?$output_processor@_WV?$string_output_adapter@_W@__crt_stdio_output@@V?$positional_parameter_base@_WV?$string_output_adapter@_W@__crt_stdio_output@@@2@@__crt_stdio_output@@ABE?AW4state@2@_WW432@@Z 00438980 f i libucrtd:output.obj
 0001:00037a10       ?find_next_state@?$output_processor@_WV?$string_output_adapter@_W@__crt_stdio_output@@V?$standard_base@_WV?$string_output_adapter@_W@__crt_stdio_output@@@2@@__crt_stdio_output@@ABE?AW4state@2@_WW432@@Z 00438a10 f i libucrtd:output.obj
 0001:00037aa0       ?force_decimal_point@__crt_stdio_output@@YAXPADQAU__crt_locale_pointers@@@Z 00438aa0 f i libucrtd:output.obj
 0001:00037b80       ?get_parameter_type@?$positional_parameter_base@DV?$stream_output_adapter@D@__crt_stdio_output@@@__crt_stdio_output@@CA?AW4parameter_type@12@F@Z 00438b80 f i libucrtd:output.obj
 0001:00037b90       ?get_parameter_type@?$positional_parameter_base@DV?$stream_output_adapter@D@__crt_stdio_output@@@__crt_stdio_output@@CA?AW4parameter_type@12@G@Z 00438b90 f i libucrtd:output.obj
 0001:00037ba0       ?get_parameter_type@?$positional_parameter_base@DV?$stream_output_adapter@D@__crt_stdio_output@@@__crt_stdio_output@@CA?AW4parameter_type@12@H@Z 00438ba0 f i libucrtd:output.obj
 0001:00037bb0       ?get_parameter_type@?$positional_parameter_base@DV?$stream_output_adapter@D@__crt_stdio_output@@@__crt_stdio_output@@CA?AW4parameter_type@12@I@Z 00438bb0 f i libucrtd:output.obj
 0001:00037bc0       ?get_parameter_type@?$positional_parameter_base@DV?$stream_output_adapter@D@__crt_stdio_output@@@__crt_stdio_output@@CA?AW4parameter_type@12@U_CRT_DOUBLE@@@Z 00438bc0 f i libucrtd:output.obj
 0001:00037bd0       ?get_parameter_type@?$positional_parameter_base@DV?$stream_output_adapter@D@__crt_stdio_output@@@__crt_stdio_output@@CA?AW4parameter_type@12@_J@Z 00438bd0 f i libucrtd:output.obj
 0001:00037be0       ?get_parameter_type@?$positional_parameter_base@DV?$stream_output_adapter@D@__crt_stdio_output@@@__crt_stdio_output@@CA?AW4parameter_type@12@_K@Z 00438be0 f i libucrtd:output.obj
 0001:00037bf0       ?get_parameter_type@?$positional_parameter_base@DV?$stream_output_adapter@D@__crt_stdio_output@@@__crt_stdio_output@@CA?AW4parameter_type@12@_W@Z 00438bf0 f i libucrtd:output.obj
 0001:00037c00       ?get_parameter_type@?$positional_parameter_base@DV?$string_output_adapter@D@__crt_stdio_output@@@__crt_stdio_output@@CA?AW4parameter_type@12@F@Z 00438c00 f i libucrtd:output.obj
 0001:00037c10       ?get_parameter_type@?$positional_parameter_base@DV?$string_output_adapter@D@__crt_stdio_output@@@__crt_stdio_output@@CA?AW4parameter_type@12@G@Z 00438c10 f i libucrtd:output.obj
 0001:00037c20       ?get_parameter_type@?$positional_parameter_base@DV?$string_output_adapter@D@__crt_stdio_output@@@__crt_stdio_output@@CA?AW4parameter_type@12@H@Z 00438c20 f i libucrtd:output.obj
 0001:00037c30       ?get_parameter_type@?$positional_parameter_base@DV?$string_output_adapter@D@__crt_stdio_output@@@__crt_stdio_output@@CA?AW4parameter_type@12@I@Z 00438c30 f i libucrtd:output.obj
 0001:00037c40       ?get_parameter_type@?$positional_parameter_base@DV?$string_output_adapter@D@__crt_stdio_output@@@__crt_stdio_output@@CA?AW4parameter_type@12@U_CRT_DOUBLE@@@Z 00438c40 f i libucrtd:output.obj
 0001:00037c50       ?get_parameter_type@?$positional_parameter_base@DV?$string_output_adapter@D@__crt_stdio_output@@@__crt_stdio_output@@CA?AW4parameter_type@12@_J@Z 00438c50 f i libucrtd:output.obj
 0001:00037c60       ?get_parameter_type@?$positional_parameter_base@DV?$string_output_adapter@D@__crt_stdio_output@@@__crt_stdio_output@@CA?AW4parameter_type@12@_K@Z 00438c60 f i libucrtd:output.obj
 0001:00037c70       ?get_parameter_type@?$positional_parameter_base@DV?$string_output_adapter@D@__crt_stdio_output@@@__crt_stdio_output@@CA?AW4parameter_type@12@_W@Z 00438c70 f i libucrtd:output.obj
 0001:00037c80       ?get_parameter_type@?$positional_parameter_base@_WV?$stream_output_adapter@_W@__crt_stdio_output@@@__crt_stdio_output@@CA?AW4parameter_type@12@F@Z 00438c80 f i libucrtd:output.obj
 0001:00037c90       ?get_parameter_type@?$positional_parameter_base@_WV?$stream_output_adapter@_W@__crt_stdio_output@@@__crt_stdio_output@@CA?AW4parameter_type@12@G@Z 00438c90 f i libucrtd:output.obj
 0001:00037ca0       ?get_parameter_type@?$positional_parameter_base@_WV?$stream_output_adapter@_W@__crt_stdio_output@@@__crt_stdio_output@@CA?AW4parameter_type@12@H@Z 00438ca0 f i libucrtd:output.obj
 0001:00037cb0       ?get_parameter_type@?$positional_parameter_base@_WV?$stream_output_adapter@_W@__crt_stdio_output@@@__crt_stdio_output@@CA?AW4parameter_type@12@I@Z 00438cb0 f i libucrtd:output.obj
 0001:00037cc0       ?get_parameter_type@?$positional_parameter_base@_WV?$stream_output_adapter@_W@__crt_stdio_output@@@__crt_stdio_output@@CA?AW4parameter_type@12@U_CRT_DOUBLE@@@Z 00438cc0 f i libucrtd:output.obj
 0001:00037cd0       ?get_parameter_type@?$positional_parameter_base@_WV?$stream_output_adapter@_W@__crt_stdio_output@@@__crt_stdio_output@@CA?AW4parameter_type@12@_J@Z 00438cd0 f i libucrtd:output.obj
 0001:00037ce0       ?get_parameter_type@?$positional_parameter_base@_WV?$stream_output_adapter@_W@__crt_stdio_output@@@__crt_stdio_output@@CA?AW4parameter_type@12@_K@Z 00438ce0 f i libucrtd:output.obj
 0001:00037cf0       ?get_parameter_type@?$positional_parameter_base@_WV?$stream_output_adapter@_W@__crt_stdio_output@@@__crt_stdio_output@@CA?AW4parameter_type@12@_W@Z 00438cf0 f i libucrtd:output.obj
 0001:00037d00       ?get_parameter_type@?$positional_parameter_base@_WV?$string_output_adapter@_W@__crt_stdio_output@@@__crt_stdio_output@@CA?AW4parameter_type@12@F@Z 00438d00 f i libucrtd:output.obj
 0001:00037d10       ?get_parameter_type@?$positional_parameter_base@_WV?$string_output_adapter@_W@__crt_stdio_output@@@__crt_stdio_output@@CA?AW4parameter_type@12@G@Z 00438d10 f i libucrtd:output.obj
 0001:00037d20       ?get_parameter_type@?$positional_parameter_base@_WV?$string_output_adapter@_W@__crt_stdio_output@@@__crt_stdio_output@@CA?AW4parameter_type@12@H@Z 00438d20 f i libucrtd:output.obj
 0001:00037d30       ?get_parameter_type@?$positional_parameter_base@_WV?$string_output_adapter@_W@__crt_stdio_output@@@__crt_stdio_output@@CA?AW4parameter_type@12@I@Z 00438d30 f i libucrtd:output.obj
 0001:00037d40       ?get_parameter_type@?$positional_parameter_base@_WV?$string_output_adapter@_W@__crt_stdio_output@@@__crt_stdio_output@@CA?AW4parameter_type@12@U_CRT_DOUBLE@@@Z 00438d40 f i libucrtd:output.obj
 0001:00037d50       ?get_parameter_type@?$positional_parameter_base@_WV?$string_output_adapter@_W@__crt_stdio_output@@@__crt_stdio_output@@CA?AW4parameter_type@12@_J@Z 00438d50 f i libucrtd:output.obj
 0001:00037d60       ?get_parameter_type@?$positional_parameter_base@_WV?$string_output_adapter@_W@__crt_stdio_output@@@__crt_stdio_output@@CA?AW4parameter_type@12@_K@Z 00438d60 f i libucrtd:output.obj
 0001:00037d70       ?get_parameter_type@?$positional_parameter_base@_WV?$string_output_adapter@_W@__crt_stdio_output@@@__crt_stdio_output@@CA?AW4parameter_type@12@_W@Z 00438d70 f i libucrtd:output.obj
 0001:00037d80       ?has_flag@?$output_processor@DV?$stream_output_adapter@D@__crt_stdio_output@@V?$format_validation_base@DV?$stream_output_adapter@D@__crt_stdio_output@@@2@@__crt_stdio_output@@ABE_NI@Z 00438d80 f i libucrtd:output.obj
 0001:00037dc0       ?has_flag@?$output_processor@DV?$stream_output_adapter@D@__crt_stdio_output@@V?$positional_parameter_base@DV?$stream_output_adapter@D@__crt_stdio_output@@@2@@__crt_stdio_output@@ABE_NI@Z 00438dc0 f i libucrtd:output.obj
 0001:00037e00       ?has_flag@?$output_processor@DV?$stream_output_adapter@D@__crt_stdio_output@@V?$standard_base@DV?$stream_output_adapter@D@__crt_stdio_output@@@2@@__crt_stdio_output@@ABE_NI@Z 00438e00 f i libucrtd:output.obj
 0001:00037e40       ?has_flag@?$output_processor@DV?$string_output_adapter@D@__crt_stdio_output@@V?$format_validation_base@DV?$string_output_adapter@D@__crt_stdio_output@@@2@@__crt_stdio_output@@ABE_NI@Z 00438e40 f i libucrtd:output.obj
 0001:00037e80       ?has_flag@?$output_processor@DV?$string_output_adapter@D@__crt_stdio_output@@V?$positional_parameter_base@DV?$string_output_adapter@D@__crt_stdio_output@@@2@@__crt_stdio_output@@ABE_NI@Z 00438e80 f i libucrtd:output.obj
 0001:00037ec0       ?has_flag@?$output_processor@DV?$string_output_adapter@D@__crt_stdio_output@@V?$standard_base@DV?$string_output_adapter@D@__crt_stdio_output@@@2@@__crt_stdio_output@@ABE_NI@Z 00438ec0 f i libucrtd:output.obj
 0001:00037f00       ?has_flag@?$output_processor@_WV?$stream_output_adapter@_W@__crt_stdio_output@@V?$format_validation_base@_WV?$stream_output_adapter@_W@__crt_stdio_output@@@2@@__crt_stdio_output@@ABE_NI@Z 00438f00 f i libucrtd:output.obj
 0001:00037f40       ?has_flag@?$output_processor@_WV?$stream_output_adapter@_W@__crt_stdio_output@@V?$positional_parameter_base@_WV?$stream_output_adapter@_W@__crt_stdio_output@@@2@@__crt_stdio_output@@ABE_NI@Z 00438f40 f i libucrtd:output.obj
 0001:00037f80       ?has_flag@?$output_processor@_WV?$stream_output_adapter@_W@__crt_stdio_output@@V?$standard_base@_WV?$stream_output_adapter@_W@__crt_stdio_output@@@2@@__crt_stdio_output@@ABE_NI@Z 00438f80 f i libucrtd:output.obj
 0001:00037fc0       ?has_flag@?$output_processor@_WV?$string_output_adapter@_W@__crt_stdio_output@@V?$format_validation_base@_WV?$string_output_adapter@_W@__crt_stdio_output@@@2@@__crt_stdio_output@@ABE_NI@Z 00438fc0 f i libucrtd:output.obj
 0001:00038000       ?has_flag@?$output_processor@_WV?$string_output_adapter@_W@__crt_stdio_output@@V?$positional_parameter_base@_WV?$string_output_adapter@_W@__crt_stdio_output@@@2@@__crt_stdio_output@@ABE_NI@Z 00439000 f i libucrtd:output.obj
 0001:00038040       ?has_flag@?$output_processor@_WV?$string_output_adapter@_W@__crt_stdio_output@@V?$standard_base@_WV?$string_output_adapter@_W@__crt_stdio_output@@@2@@__crt_stdio_output@@ABE_NI@Z 00439040 f i libucrtd:output.obj
 0001:00038080       ?is_positional_parameter_reappearance_consistent@?$positional_parameter_base@DV?$stream_output_adapter@D@__crt_stdio_output@@@__crt_stdio_output@@AAE_NABUparameter_data@12@W4parameter_type@12@DW4length_modifier@2@@Z 00439080 f i libucrtd:output.obj
 0001:00038330       ?is_positional_parameter_reappearance_consistent@?$positional_parameter_base@DV?$string_output_adapter@D@__crt_stdio_output@@@__crt_stdio_output@@AAE_NABUparameter_data@12@W4parameter_type@12@DW4length_modifier@2@@Z 00439330 f i libucrtd:output.obj
 0001:000385e0       ?is_positional_parameter_reappearance_consistent@?$positional_parameter_base@_WV?$stream_output_adapter@_W@__crt_stdio_output@@@__crt_stdio_output@@AAE_NABUparameter_data@12@W4parameter_type@12@_WW4length_modifier@2@@Z 004395e0 f i libucrtd:output.obj
 0001:00038890       ?is_positional_parameter_reappearance_consistent@?$positional_parameter_base@_WV?$string_output_adapter@_W@__crt_stdio_output@@@__crt_stdio_output@@AAE_NABUparameter_data@12@W4parameter_type@12@_WW4length_modifier@2@@Z 00439890 f i libucrtd:output.obj
 0001:00038b40       ?narrow_null_string@?$output_processor@DV?$stream_output_adapter@D@__crt_stdio_output@@V?$format_validation_base@DV?$stream_output_adapter@D@__crt_stdio_output@@@2@@__crt_stdio_output@@CAPADXZ 00439b40 f i libucrtd:output.obj
 0001:00038b50       ?narrow_null_string@?$output_processor@DV?$stream_output_adapter@D@__crt_stdio_output@@V?$positional_parameter_base@DV?$stream_output_adapter@D@__crt_stdio_output@@@2@@__crt_stdio_output@@CAPADXZ 00439b50 f i libucrtd:output.obj
 0001:00038b60       ?narrow_null_string@?$output_processor@DV?$stream_output_adapter@D@__crt_stdio_output@@V?$standard_base@DV?$stream_output_adapter@D@__crt_stdio_output@@@2@@__crt_stdio_output@@CAPADXZ 00439b60 f i libucrtd:output.obj
 0001:00038b70       ?narrow_null_string@?$output_processor@DV?$string_output_adapter@D@__crt_stdio_output@@V?$format_validation_base@DV?$string_output_adapter@D@__crt_stdio_output@@@2@@__crt_stdio_output@@CAPADXZ 00439b70 f i libucrtd:output.obj
 0001:00038b80       ?narrow_null_string@?$output_processor@DV?$string_output_adapter@D@__crt_stdio_output@@V?$positional_parameter_base@DV?$string_output_adapter@D@__crt_stdio_output@@@2@@__crt_stdio_output@@CAPADXZ 00439b80 f i libucrtd:output.obj
 0001:00038b90       ?narrow_null_string@?$output_processor@DV?$string_output_adapter@D@__crt_stdio_output@@V?$standard_base@DV?$string_output_adapter@D@__crt_stdio_output@@@2@@__crt_stdio_output@@CAPADXZ 00439b90 f i libucrtd:output.obj
 0001:00038ba0       ?narrow_null_string@?$output_processor@_WV?$stream_output_adapter@_W@__crt_stdio_output@@V?$format_validation_base@_WV?$stream_output_adapter@_W@__crt_stdio_output@@@2@@__crt_stdio_output@@CAPADXZ 00439ba0 f i libucrtd:output.obj
 0001:00038bb0       ?narrow_null_string@?$output_processor@_WV?$stream_output_adapter@_W@__crt_stdio_output@@V?$positional_parameter_base@_WV?$stream_output_adapter@_W@__crt_stdio_output@@@2@@__crt_stdio_output@@CAPADXZ 00439bb0 f i libucrtd:output.obj
 0001:00038bc0       ?narrow_null_string@?$output_processor@_WV?$stream_output_adapter@_W@__crt_stdio_output@@V?$standard_base@_WV?$stream_output_adapter@_W@__crt_stdio_output@@@2@@__crt_stdio_output@@CAPADXZ 00439bc0 f i libucrtd:output.obj
 0001:00038bd0       ?narrow_null_string@?$output_processor@_WV?$string_output_adapter@_W@__crt_stdio_output@@V?$format_validation_base@_WV?$string_output_adapter@_W@__crt_stdio_output@@@2@@__crt_stdio_output@@CAPADXZ 00439bd0 f i libucrtd:output.obj
 0001:00038be0       ?narrow_null_string@?$output_processor@_WV?$string_output_adapter@_W@__crt_stdio_output@@V?$positional_parameter_base@_WV?$string_output_adapter@_W@__crt_stdio_output@@@2@@__crt_stdio_output@@CAPADXZ 00439be0 f i libucrtd:output.obj
 0001:00038bf0       ?narrow_null_string@?$output_processor@_WV?$string_output_adapter@_W@__crt_stdio_output@@V?$standard_base@_WV?$string_output_adapter@_W@__crt_stdio_output@@@2@@__crt_stdio_output@@CAPADXZ 00439bf0 f i libucrtd:output.obj
 0001:00038c00       ?parse_int_from_format_string@?$output_processor@DV?$stream_output_adapter@D@__crt_stdio_output@@V?$format_validation_base@DV?$stream_output_adapter@D@__crt_stdio_output@@@2@@__crt_stdio_output@@AAE_NQAH@Z 00439c00 f i libucrtd:output.obj
 0001:00038ce0       ?parse_int_from_format_string@?$output_processor@DV?$stream_output_adapter@D@__crt_stdio_output@@V?$positional_parameter_base@DV?$stream_output_adapter@D@__crt_stdio_output@@@2@@__crt_stdio_output@@AAE_NQAH@Z 00439ce0 f i libucrtd:output.obj
 0001:00038dc0       ?parse_int_from_format_string@?$output_processor@DV?$stream_output_adapter@D@__crt_stdio_output@@V?$standard_base@DV?$stream_output_adapter@D@__crt_stdio_output@@@2@@__crt_stdio_output@@AAE_NQAH@Z 00439dc0 f i libucrtd:output.obj
 0001:00038ea0       ?parse_int_from_format_string@?$output_processor@DV?$string_output_adapter@D@__crt_stdio_output@@V?$format_validation_base@DV?$string_output_adapter@D@__crt_stdio_output@@@2@@__crt_stdio_output@@AAE_NQAH@Z 00439ea0 f i libucrtd:output.obj
 0001:00038f80       ?parse_int_from_format_string@?$output_processor@DV?$string_output_adapter@D@__crt_stdio_output@@V?$positional_parameter_base@DV?$string_output_adapter@D@__crt_stdio_output@@@2@@__crt_stdio_output@@AAE_NQAH@Z 00439f80 f i libucrtd:output.obj
 0001:00039060       ?parse_int_from_format_string@?$output_processor@DV?$string_output_adapter@D@__crt_stdio_output@@V?$standard_base@DV?$string_output_adapter@D@__crt_stdio_output@@@2@@__crt_stdio_output@@AAE_NQAH@Z 0043a060 f i libucrtd:output.obj
 0001:00039140       ?parse_int_from_format_string@?$output_processor@_WV?$stream_output_adapter@_W@__crt_stdio_output@@V?$format_validation_base@_WV?$stream_output_adapter@_W@__crt_stdio_output@@@2@@__crt_stdio_output@@AAE_NQAH@Z 0043a140 f i libucrtd:output.obj
 0001:00039220       ?parse_int_from_format_string@?$output_processor@_WV?$stream_output_adapter@_W@__crt_stdio_output@@V?$positional_parameter_base@_WV?$stream_output_adapter@_W@__crt_stdio_output@@@2@@__crt_stdio_output@@AAE_NQAH@Z 0043a220 f i libucrtd:output.obj
 0001:00039300       ?parse_int_from_format_string@?$output_processor@_WV?$stream_output_adapter@_W@__crt_stdio_output@@V?$standard_base@_WV?$stream_output_adapter@_W@__crt_stdio_output@@@2@@__crt_stdio_output@@AAE_NQAH@Z 0043a300 f i libucrtd:output.obj
 0001:000393e0       ?parse_int_from_format_string@?$output_processor@_WV?$string_output_adapter@_W@__crt_stdio_output@@V?$format_validation_base@_WV?$string_output_adapter@_W@__crt_stdio_output@@@2@@__crt_stdio_output@@AAE_NQAH@Z 0043a3e0 f i libucrtd:output.obj
 0001:000394c0       ?parse_int_from_format_string@?$output_processor@_WV?$string_output_adapter@_W@__crt_stdio_output@@V?$positional_parameter_base@_WV?$string_output_adapter@_W@__crt_stdio_output@@@2@@__crt_stdio_output@@AAE_NQAH@Z 0043a4c0 f i libucrtd:output.obj
 0001:000395a0       ?parse_int_from_format_string@?$output_processor@_WV?$string_output_adapter@_W@__crt_stdio_output@@V?$standard_base@_WV?$string_output_adapter@_W@__crt_stdio_output@@@2@@__crt_stdio_output@@AAE_NQAH@Z 0043a5a0 f i libucrtd:output.obj
 0001:00039680       ?process@?$output_processor@DV?$stream_output_adapter@D@__crt_stdio_output@@V?$format_validation_base@DV?$stream_output_adapter@D@__crt_stdio_output@@@2@@__crt_stdio_output@@QAEHXZ 0043a680 f i libucrtd:output.obj
 0001:000399d0       ?process@?$output_processor@DV?$stream_output_adapter@D@__crt_stdio_output@@V?$positional_parameter_base@DV?$stream_output_adapter@D@__crt_stdio_output@@@2@@__crt_stdio_output@@QAEHXZ 0043a9d0 f i libucrtd:output.obj
 0001:00039d20       ?process@?$output_processor@DV?$stream_output_adapter@D@__crt_stdio_output@@V?$standard_base@DV?$stream_output_adapter@D@__crt_stdio_output@@@2@@__crt_stdio_output@@QAEHXZ 0043ad20 f i libucrtd:output.obj
 0001:0003a070       ?process@?$output_processor@DV?$string_output_adapter@D@__crt_stdio_output@@V?$format_validation_base@DV?$string_output_adapter@D@__crt_stdio_output@@@2@@__crt_stdio_output@@QAEHXZ 0043b070 f i libucrtd:output.obj
 0001:0003a3c0       ?process@?$output_processor@DV?$string_output_adapter@D@__crt_stdio_output@@V?$positional_parameter_base@DV?$string_output_adapter@D@__crt_stdio_output@@@2@@__crt_stdio_output@@QAEHXZ 0043b3c0 f i libucrtd:output.obj
 0001:0003a710       ?process@?$output_processor@DV?$string_output_adapter@D@__crt_stdio_output@@V?$standard_base@DV?$string_output_adapter@D@__crt_stdio_output@@@2@@__crt_stdio_output@@QAEHXZ 0043b710 f i libucrtd:output.obj
 0001:0003aa60       ?process@?$output_processor@_WV?$stream_output_adapter@_W@__crt_stdio_output@@V?$format_validation_base@_WV?$stream_output_adapter@_W@__crt_stdio_output@@@2@@__crt_stdio_output@@QAEHXZ 0043ba60 f i libucrtd:output.obj
 0001:0003adb0       ?process@?$output_processor@_WV?$stream_output_adapter@_W@__crt_stdio_output@@V?$positional_parameter_base@_WV?$stream_output_adapter@_W@__crt_stdio_output@@@2@@__crt_stdio_output@@QAEHXZ 0043bdb0 f i libucrtd:output.obj
 0001:0003b100       ?process@?$output_processor@_WV?$stream_output_adapter@_W@__crt_stdio_output@@V?$standard_base@_WV?$stream_output_adapter@_W@__crt_stdio_output@@@2@@__crt_stdio_output@@QAEHXZ 0043c100 f i libucrtd:output.obj
 0001:0003b450       ?process@?$output_processor@_WV?$string_output_adapter@_W@__crt_stdio_output@@V?$format_validation_base@_WV?$string_output_adapter@_W@__crt_stdio_output@@@2@@__crt_stdio_output@@QAEHXZ 0043c450 f i libucrtd:output.obj
 0001:0003b7a0       ?process@?$output_processor@_WV?$string_output_adapter@_W@__crt_stdio_output@@V?$positional_parameter_base@_WV?$string_output_adapter@_W@__crt_stdio_output@@@2@@__crt_stdio_output@@QAEHXZ 0043c7a0 f i libucrtd:output.obj
 0001:0003baf0       ?process@?$output_processor@_WV?$string_output_adapter@_W@__crt_stdio_output@@V?$standard_base@_WV?$string_output_adapter@_W@__crt_stdio_output@@@2@@__crt_stdio_output@@QAEHXZ 0043caf0 f i libucrtd:output.obj
 0001:0003be40       ?set_flag@?$output_processor@DV?$stream_output_adapter@D@__crt_stdio_output@@V?$format_validation_base@DV?$stream_output_adapter@D@__crt_stdio_output@@@2@@__crt_stdio_output@@AAEXI@Z 0043ce40 f i libucrtd:output.obj
 0001:0003be70       ?set_flag@?$output_processor@DV?$stream_output_adapter@D@__crt_stdio_output@@V?$positional_parameter_base@DV?$stream_output_adapter@D@__crt_stdio_output@@@2@@__crt_stdio_output@@AAEXI@Z 0043ce70 f i libucrtd:output.obj
 0001:0003bea0       ?set_flag@?$output_processor@DV?$stream_output_adapter@D@__crt_stdio_output@@V?$standard_base@DV?$stream_output_adapter@D@__crt_stdio_output@@@2@@__crt_stdio_output@@AAEXI@Z 0043cea0 f i libucrtd:output.obj
 0001:0003bed0       ?set_flag@?$output_processor@DV?$string_output_adapter@D@__crt_stdio_output@@V?$format_validation_base@DV?$string_output_adapter@D@__crt_stdio_output@@@2@@__crt_stdio_output@@AAEXI@Z 0043ced0 f i libucrtd:output.obj
 0001:0003bf00       ?set_flag@?$output_processor@DV?$string_output_adapter@D@__crt_stdio_output@@V?$positional_parameter_base@DV?$string_output_adapter@D@__crt_stdio_output@@@2@@__crt_stdio_output@@AAEXI@Z 0043cf00 f i libucrtd:output.obj
 0001:0003bf30       ?set_flag@?$output_processor@DV?$string_output_adapter@D@__crt_stdio_output@@V?$standard_base@DV?$string_output_adapter@D@__crt_stdio_output@@@2@@__crt_stdio_output@@AAEXI@Z 0043cf30 f i libucrtd:output.obj
 0001:0003bf60       ?set_flag@?$output_processor@_WV?$stream_output_adapter@_W@__crt_stdio_output@@V?$format_validation_base@_WV?$stream_output_adapter@_W@__crt_stdio_output@@@2@@__crt_stdio_output@@AAEXI@Z 0043cf60 f i libucrtd:output.obj
 0001:0003bf90       ?set_flag@?$output_processor@_WV?$stream_output_adapter@_W@__crt_stdio_output@@V?$positional_parameter_base@_WV?$stream_output_adapter@_W@__crt_stdio_output@@@2@@__crt_stdio_output@@AAEXI@Z 0043cf90 f i libucrtd:output.obj
 0001:0003bfc0       ?set_flag@?$output_processor@_WV?$stream_output_adapter@_W@__crt_stdio_output@@V?$standard_base@_WV?$stream_output_adapter@_W@__crt_stdio_output@@@2@@__crt_stdio_output@@AAEXI@Z 0043cfc0 f i libucrtd:output.obj
 0001:0003bff0       ?set_flag@?$output_processor@_WV?$string_output_adapter@_W@__crt_stdio_output@@V?$format_validation_base@_WV?$string_output_adapter@_W@__crt_stdio_output@@@2@@__crt_stdio_output@@AAEXI@Z 0043cff0 f i libucrtd:output.obj
 0001:0003c020       ?set_flag@?$output_processor@_WV?$string_output_adapter@_W@__crt_stdio_output@@V?$positional_parameter_base@_WV?$string_output_adapter@_W@__crt_stdio_output@@@2@@__crt_stdio_output@@AAEXI@Z 0043d020 f i libucrtd:output.obj
 0001:0003c050       ?set_flag@?$output_processor@_WV?$string_output_adapter@_W@__crt_stdio_output@@V?$standard_base@_WV?$string_output_adapter@_W@__crt_stdio_output@@@2@@__crt_stdio_output@@AAEXI@Z 0043d050 f i libucrtd:output.obj
 0001:0003c080       ?should_format@?$positional_parameter_base@DV?$stream_output_adapter@D@__crt_stdio_output@@@__crt_stdio_output@@IAE_NXZ 0043d080 f i libucrtd:output.obj
 0001:0003c0d0       ?should_format@?$positional_parameter_base@DV?$string_output_adapter@D@__crt_stdio_output@@@__crt_stdio_output@@IAE_NXZ 0043d0d0 f i libucrtd:output.obj
 0001:0003c120       ?should_format@?$positional_parameter_base@_WV?$stream_output_adapter@_W@__crt_stdio_output@@@__crt_stdio_output@@IAE_NXZ 0043d120 f i libucrtd:output.obj
 0001:0003c170       ?should_format@?$positional_parameter_base@_WV?$string_output_adapter@_W@__crt_stdio_output@@@__crt_stdio_output@@IAE_NXZ 0043d170 f i libucrtd:output.obj
 0001:0003c1c0       ?should_format@?$standard_base@DV?$stream_output_adapter@D@__crt_stdio_output@@@__crt_stdio_output@@IAE_NXZ 0043d1c0 f i libucrtd:output.obj
 0001:0003c1e0       ?should_format@?$standard_base@DV?$string_output_adapter@D@__crt_stdio_output@@@__crt_stdio_output@@IAE_NXZ 0043d1e0 f i libucrtd:output.obj
 0001:0003c200       ?should_format@?$standard_base@_WV?$stream_output_adapter@_W@__crt_stdio_output@@@__crt_stdio_output@@IAE_NXZ 0043d200 f i libucrtd:output.obj
 0001:0003c220       ?should_format@?$standard_base@_WV?$string_output_adapter@_W@__crt_stdio_output@@@__crt_stdio_output@@IAE_NXZ 0043d220 f i libucrtd:output.obj
 0001:0003c240       ?should_skip_normal_state_processing@?$positional_parameter_base@DV?$stream_output_adapter@D@__crt_stdio_output@@@__crt_stdio_output@@IAE_NXZ 0043d240 f i libucrtd:output.obj
 0001:0003c2a0       ?should_skip_normal_state_processing@?$positional_parameter_base@DV?$string_output_adapter@D@__crt_stdio_output@@@__crt_stdio_output@@IAE_NXZ 0043d2a0 f i libucrtd:output.obj
 0001:0003c300       ?should_skip_normal_state_processing@?$positional_parameter_base@_WV?$stream_output_adapter@_W@__crt_stdio_output@@@__crt_stdio_output@@IAE_NXZ 0043d300 f i libucrtd:output.obj
 0001:0003c360       ?should_skip_normal_state_processing@?$positional_parameter_base@_WV?$string_output_adapter@_W@__crt_stdio_output@@@__crt_stdio_output@@IAE_NXZ 0043d360 f i libucrtd:output.obj
 0001:0003c3c0       ?should_skip_normal_state_processing@?$standard_base@DV?$stream_output_adapter@D@__crt_stdio_output@@@__crt_stdio_output@@IAE_NXZ 0043d3c0 f i libucrtd:output.obj
 0001:0003c3e0       ?should_skip_normal_state_processing@?$standard_base@DV?$string_output_adapter@D@__crt_stdio_output@@@__crt_stdio_output@@IAE_NXZ 0043d3e0 f i libucrtd:output.obj
 0001:0003c400       ?should_skip_normal_state_processing@?$standard_base@_WV?$stream_output_adapter@_W@__crt_stdio_output@@@__crt_stdio_output@@IAE_NXZ 0043d400 f i libucrtd:output.obj
 0001:0003c420       ?should_skip_normal_state_processing@?$standard_base@_WV?$string_output_adapter@_W@__crt_stdio_output@@@__crt_stdio_output@@IAE_NXZ 0043d420 f i libucrtd:output.obj
 0001:0003c440       ?should_skip_type_state_output@?$positional_parameter_base@DV?$stream_output_adapter@D@__crt_stdio_output@@@__crt_stdio_output@@IBE_NXZ 0043d440 f i libucrtd:output.obj
 0001:0003c490       ?should_skip_type_state_output@?$positional_parameter_base@DV?$string_output_adapter@D@__crt_stdio_output@@@__crt_stdio_output@@IBE_NXZ 0043d490 f i libucrtd:output.obj
 0001:0003c4e0       ?should_skip_type_state_output@?$positional_parameter_base@_WV?$stream_output_adapter@_W@__crt_stdio_output@@@__crt_stdio_output@@IBE_NXZ 0043d4e0 f i libucrtd:output.obj
 0001:0003c530       ?should_skip_type_state_output@?$positional_parameter_base@_WV?$string_output_adapter@_W@__crt_stdio_output@@@__crt_stdio_output@@IBE_NXZ 0043d530 f i libucrtd:output.obj
 0001:0003c580       ?should_skip_type_state_output@?$standard_base@DV?$stream_output_adapter@D@__crt_stdio_output@@@__crt_stdio_output@@IBE_NXZ 0043d580 f i libucrtd:output.obj
 0001:0003c5a0       ?should_skip_type_state_output@?$standard_base@DV?$string_output_adapter@D@__crt_stdio_output@@@__crt_stdio_output@@IBE_NXZ 0043d5a0 f i libucrtd:output.obj
 0001:0003c5c0       ?should_skip_type_state_output@?$standard_base@_WV?$stream_output_adapter@_W@__crt_stdio_output@@@__crt_stdio_output@@IBE_NXZ 0043d5c0 f i libucrtd:output.obj
 0001:0003c5e0       ?should_skip_type_state_output@?$standard_base@_WV?$string_output_adapter@_W@__crt_stdio_output@@@__crt_stdio_output@@IBE_NXZ 0043d5e0 f i libucrtd:output.obj
 0001:0003c600       ?state_case_dot@?$output_processor@DV?$stream_output_adapter@D@__crt_stdio_output@@V?$format_validation_base@DV?$stream_output_adapter@D@__crt_stdio_output@@@2@@__crt_stdio_output@@AAE_NXZ 0043d600 f i libucrtd:output.obj
 0001:0003c620       ?state_case_dot@?$output_processor@DV?$stream_output_adapter@D@__crt_stdio_output@@V?$positional_parameter_base@DV?$stream_output_adapter@D@__crt_stdio_output@@@2@@__crt_stdio_output@@AAE_NXZ 0043d620 f i libucrtd:output.obj
 0001:0003c640       ?state_case_dot@?$output_processor@DV?$stream_output_adapter@D@__crt_stdio_output@@V?$standard_base@DV?$stream_output_adapter@D@__crt_stdio_output@@@2@@__crt_stdio_output@@AAE_NXZ 0043d640 f i libucrtd:output.obj
 0001:0003c660       ?state_case_dot@?$output_processor@DV?$string_output_adapter@D@__crt_stdio_output@@V?$format_validation_base@DV?$string_output_adapter@D@__crt_stdio_output@@@2@@__crt_stdio_output@@AAE_NXZ 0043d660 f i libucrtd:output.obj
 0001:0003c680       ?state_case_dot@?$output_processor@DV?$string_output_adapter@D@__crt_stdio_output@@V?$positional_parameter_base@DV?$string_output_adapter@D@__crt_stdio_output@@@2@@__crt_stdio_output@@AAE_NXZ 0043d680 f i libucrtd:output.obj
 0001:0003c6a0       ?state_case_dot@?$output_processor@DV?$string_output_adapter@D@__crt_stdio_output@@V?$standard_base@DV?$string_output_adapter@D@__crt_stdio_output@@@2@@__crt_stdio_output@@AAE_NXZ 0043d6a0 f i libucrtd:output.obj
 0001:0003c6c0       ?state_case_dot@?$output_processor@_WV?$stream_output_adapter@_W@__crt_stdio_output@@V?$format_validation_base@_WV?$stream_output_adapter@_W@__crt_stdio_output@@@2@@__crt_stdio_output@@AAE_NXZ 0043d6c0 f i libucrtd:output.obj
 0001:0003c6e0       ?state_case_dot@?$output_processor@_WV?$stream_output_adapter@_W@__crt_stdio_output@@V?$positional_parameter_base@_WV?$stream_output_adapter@_W@__crt_stdio_output@@@2@@__crt_stdio_output@@AAE_NXZ 0043d6e0 f i libucrtd:output.obj
 0001:0003c700       ?state_case_dot@?$output_processor@_WV?$stream_output_adapter@_W@__crt_stdio_output@@V?$standard_base@_WV?$stream_output_adapter@_W@__crt_stdio_output@@@2@@__crt_stdio_output@@AAE_NXZ 0043d700 f i libucrtd:output.obj
 0001:0003c720       ?state_case_dot@?$output_processor@_WV?$string_output_adapter@_W@__crt_stdio_output@@V?$format_validation_base@_WV?$string_output_adapter@_W@__crt_stdio_output@@@2@@__crt_stdio_output@@AAE_NXZ 0043d720 f i libucrtd:output.obj
 0001:0003c740       ?state_case_dot@?$output_processor@_WV?$string_output_adapter@_W@__crt_stdio_output@@V?$positional_parameter_base@_WV?$string_output_adapter@_W@__crt_stdio_output@@@2@@__crt_stdio_output@@AAE_NXZ 0043d740 f i libucrtd:output.obj
 0001:0003c760       ?state_case_dot@?$output_processor@_WV?$string_output_adapter@_W@__crt_stdio_output@@V?$standard_base@_WV?$string_output_adapter@_W@__crt_stdio_output@@@2@@__crt_stdio_output@@AAE_NXZ 0043d760 f i libucrtd:output.obj
 0001:0003c780       ?state_case_flag@?$output_processor@DV?$stream_output_adapter@D@__crt_stdio_output@@V?$format_validation_base@DV?$stream_output_adapter@D@__crt_stdio_output@@@2@@__crt_stdio_output@@AAE_NXZ 0043d780 f i libucrtd:output.obj
 0001:0003c850       ?state_case_flag@?$output_processor@DV?$stream_output_adapter@D@__crt_stdio_output@@V?$positional_parameter_base@DV?$stream_output_adapter@D@__crt_stdio_output@@@2@@__crt_stdio_output@@AAE_NXZ 0043d850 f i libucrtd:output.obj
 0001:0003c920       ?state_case_flag@?$output_processor@DV?$stream_output_adapter@D@__crt_stdio_output@@V?$standard_base@DV?$stream_output_adapter@D@__crt_stdio_output@@@2@@__crt_stdio_output@@AAE_NXZ 0043d920 f i libucrtd:output.obj
 0001:0003c9f0       ?state_case_flag@?$output_processor@DV?$string_output_adapter@D@__crt_stdio_output@@V?$format_validation_base@DV?$string_output_adapter@D@__crt_stdio_output@@@2@@__crt_stdio_output@@AAE_NXZ 0043d9f0 f i libucrtd:output.obj
 0001:0003cac0       ?state_case_flag@?$output_processor@DV?$string_output_adapter@D@__crt_stdio_output@@V?$positional_parameter_base@DV?$string_output_adapter@D@__crt_stdio_output@@@2@@__crt_stdio_output@@AAE_NXZ 0043dac0 f i libucrtd:output.obj
 0001:0003cb90       ?state_case_flag@?$output_processor@DV?$string_output_adapter@D@__crt_stdio_output@@V?$standard_base@DV?$string_output_adapter@D@__crt_stdio_output@@@2@@__crt_stdio_output@@AAE_NXZ 0043db90 f i libucrtd:output.obj
 0001:0003cc60       ?state_case_flag@?$output_processor@_WV?$stream_output_adapter@_W@__crt_stdio_output@@V?$format_validation_base@_WV?$stream_output_adapter@_W@__crt_stdio_output@@@2@@__crt_stdio_output@@AAE_NXZ 0043dc60 f i libucrtd:output.obj
 0001:0003cd30       ?state_case_flag@?$output_processor@_WV?$stream_output_adapter@_W@__crt_stdio_output@@V?$positional_parameter_base@_WV?$stream_output_adapter@_W@__crt_stdio_output@@@2@@__crt_stdio_output@@AAE_NXZ 0043dd30 f i libucrtd:output.obj
 0001:0003ce00       ?state_case_flag@?$output_processor@_WV?$stream_output_adapter@_W@__crt_stdio_output@@V?$standard_base@_WV?$stream_output_adapter@_W@__crt_stdio_output@@@2@@__crt_stdio_output@@AAE_NXZ 0043de00 f i libucrtd:output.obj
 0001:0003ced0       ?state_case_flag@?$output_processor@_WV?$string_output_adapter@_W@__crt_stdio_output@@V?$format_validation_base@_WV?$string_output_adapter@_W@__crt_stdio_output@@@2@@__crt_stdio_output@@AAE_NXZ 0043ded0 f i libucrtd:output.obj
 0001:0003cfa0       ?state_case_flag@?$output_processor@_WV?$string_output_adapter@_W@__crt_stdio_output@@V?$positional_parameter_base@_WV?$string_output_adapter@_W@__crt_stdio_output@@@2@@__crt_stdio_output@@AAE_NXZ 0043dfa0 f i libucrtd:output.obj
 0001:0003d070       ?state_case_flag@?$output_processor@_WV?$string_output_adapter@_W@__crt_stdio_output@@V?$standard_base@_WV?$string_output_adapter@_W@__crt_stdio_output@@@2@@__crt_stdio_output@@AAE_NXZ 0043e070 f i libucrtd:output.obj
 0001:0003d140       ?state_case_normal@?$output_processor@DV?$stream_output_adapter@D@__crt_stdio_output@@V?$format_validation_base@DV?$stream_output_adapter@D@__crt_stdio_output@@@2@@__crt_stdio_output@@AAE_NXZ 0043e140 f i libucrtd:output.obj
 0001:0003d220       ?state_case_normal@?$output_processor@DV?$stream_output_adapter@D@__crt_stdio_output@@V?$positional_parameter_base@DV?$stream_output_adapter@D@__crt_stdio_output@@@2@@__crt_stdio_output@@AAE_NXZ 0043e220 f i libucrtd:output.obj
 0001:0003d300       ?state_case_normal@?$output_processor@DV?$stream_output_adapter@D@__crt_stdio_output@@V?$standard_base@DV?$stream_output_adapter@D@__crt_stdio_output@@@2@@__crt_stdio_output@@AAE_NXZ 0043e300 f i libucrtd:output.obj
 0001:0003d3e0       ?state_case_normal@?$output_processor@DV?$string_output_adapter@D@__crt_stdio_output@@V?$format_validation_base@DV?$string_output_adapter@D@__crt_stdio_output@@@2@@__crt_stdio_output@@AAE_NXZ 0043e3e0 f i libucrtd:output.obj
 0001:0003d4c0       ?state_case_normal@?$output_processor@DV?$string_output_adapter@D@__crt_stdio_output@@V?$positional_parameter_base@DV?$string_output_adapter@D@__crt_stdio_output@@@2@@__crt_stdio_output@@AAE_NXZ 0043e4c0 f i libucrtd:output.obj
 0001:0003d5a0       ?state_case_normal@?$output_processor@DV?$string_output_adapter@D@__crt_stdio_output@@V?$standard_base@DV?$string_output_adapter@D@__crt_stdio_output@@@2@@__crt_stdio_output@@AAE_NXZ 0043e5a0 f i libucrtd:output.obj
 0001:0003d680       ?state_case_normal@?$output_processor@_WV?$stream_output_adapter@_W@__crt_stdio_output@@V?$format_validation_base@_WV?$stream_output_adapter@_W@__crt_stdio_output@@@2@@__crt_stdio_output@@AAE_NXZ 0043e680 f i libucrtd:output.obj
 0001:0003d760       ?state_case_normal@?$output_processor@_WV?$stream_output_adapter@_W@__crt_stdio_output@@V?$positional_parameter_base@_WV?$stream_output_adapter@_W@__crt_stdio_output@@@2@@__crt_stdio_output@@AAE_NXZ 0043e760 f i libucrtd:output.obj
 0001:0003d840       ?state_case_normal@?$output_processor@_WV?$stream_output_adapter@_W@__crt_stdio_output@@V?$standard_base@_WV?$stream_output_adapter@_W@__crt_stdio_output@@@2@@__crt_stdio_output@@AAE_NXZ 0043e840 f i libucrtd:output.obj
 0001:0003d920       ?state_case_normal@?$output_processor@_WV?$string_output_adapter@_W@__crt_stdio_output@@V?$format_validation_base@_WV?$string_output_adapter@_W@__crt_stdio_output@@@2@@__crt_stdio_output@@AAE_NXZ 0043e920 f i libucrtd:output.obj
 0001:0003da00       ?state_case_normal@?$output_processor@_WV?$string_output_adapter@_W@__crt_stdio_output@@V?$positional_parameter_base@_WV?$string_output_adapter@_W@__crt_stdio_output@@@2@@__crt_stdio_output@@AAE_NXZ 0043ea00 f i libucrtd:output.obj
 0001:0003dae0       ?state_case_normal@?$output_processor@_WV?$string_output_adapter@_W@__crt_stdio_output@@V?$standard_base@_WV?$string_output_adapter@_W@__crt_stdio_output@@@2@@__crt_stdio_output@@AAE_NXZ 0043eae0 f i libucrtd:output.obj
 0001:0003dbc0       ?state_case_normal_common@?$output_processor@DV?$stream_output_adapter@D@__crt_stdio_output@@V?$format_validation_base@DV?$stream_output_adapter@D@__crt_stdio_output@@@2@@__crt_stdio_output@@AAE_NXZ 0043ebc0 f i libucrtd:output.obj
 0001:0003dc20       ?state_case_normal_common@?$output_processor@DV?$stream_output_adapter@D@__crt_stdio_output@@V?$positional_parameter_base@DV?$stream_output_adapter@D@__crt_stdio_output@@@2@@__crt_stdio_output@@AAE_NXZ 0043ec20 f i libucrtd:output.obj
 0001:0003dc80       ?state_case_normal_common@?$output_processor@DV?$stream_output_adapter@D@__crt_stdio_output@@V?$standard_base@DV?$stream_output_adapter@D@__crt_stdio_output@@@2@@__crt_stdio_output@@AAE_NXZ 0043ec80 f i libucrtd:output.obj
 0001:0003dce0       ?state_case_normal_common@?$output_processor@DV?$string_output_adapter@D@__crt_stdio_output@@V?$format_validation_base@DV?$string_output_adapter@D@__crt_stdio_output@@@2@@__crt_stdio_output@@AAE_NXZ 0043ece0 f i libucrtd:output.obj
 0001:0003dd40       ?state_case_normal_common@?$output_processor@DV?$string_output_adapter@D@__crt_stdio_output@@V?$positional_parameter_base@DV?$string_output_adapter@D@__crt_stdio_output@@@2@@__crt_stdio_output@@AAE_NXZ 0043ed40 f i libucrtd:output.obj
 0001:0003dda0       ?state_case_normal_common@?$output_processor@DV?$string_output_adapter@D@__crt_stdio_output@@V?$standard_base@DV?$string_output_adapter@D@__crt_stdio_output@@@2@@__crt_stdio_output@@AAE_NXZ 0043eda0 f i libucrtd:output.obj
 0001:0003de00       ?state_case_normal_common@?$output_processor@_WV?$stream_output_adapter@_W@__crt_stdio_output@@V?$format_validation_base@_WV?$stream_output_adapter@_W@__crt_stdio_output@@@2@@__crt_stdio_output@@AAE_NXZ 0043ee00 f i libucrtd:output.obj
 0001:0003de60       ?state_case_normal_common@?$output_processor@_WV?$stream_output_adapter@_W@__crt_stdio_output@@V?$positional_parameter_base@_WV?$stream_output_adapter@_W@__crt_stdio_output@@@2@@__crt_stdio_output@@AAE_NXZ 0043ee60 f i libucrtd:output.obj
 0001:0003dec0       ?state_case_normal_common@?$output_processor@_WV?$stream_output_adapter@_W@__crt_stdio_output@@V?$standard_base@_WV?$stream_output_adapter@_W@__crt_stdio_output@@@2@@__crt_stdio_output@@AAE_NXZ 0043eec0 f i libucrtd:output.obj
 0001:0003df20       ?state_case_normal_common@?$output_processor@_WV?$string_output_adapter@_W@__crt_stdio_output@@V?$format_validation_base@_WV?$string_output_adapter@_W@__crt_stdio_output@@@2@@__crt_stdio_output@@AAE_NXZ 0043ef20 f i libucrtd:output.obj
 0001:0003df80       ?state_case_normal_common@?$output_processor@_WV?$string_output_adapter@_W@__crt_stdio_output@@V?$positional_parameter_base@_WV?$string_output_adapter@_W@__crt_stdio_output@@@2@@__crt_stdio_output@@AAE_NXZ 0043ef80 f i libucrtd:output.obj
 0001:0003dfe0       ?state_case_normal_common@?$output_processor@_WV?$string_output_adapter@_W@__crt_stdio_output@@V?$standard_base@_WV?$string_output_adapter@_W@__crt_stdio_output@@@2@@__crt_stdio_output@@AAE_NXZ 0043efe0 f i libucrtd:output.obj
 0001:0003e040       ?state_case_normal_tchar@?$output_processor@DV?$stream_output_adapter@D@__crt_stdio_output@@V?$format_validation_base@DV?$stream_output_adapter@D@__crt_stdio_output@@@2@@__crt_stdio_output@@AAE_ND@Z 0043f040 f i libucrtd:output.obj
 0001:0003e170       ?state_case_normal_tchar@?$output_processor@DV?$stream_output_adapter@D@__crt_stdio_output@@V?$positional_parameter_base@DV?$stream_output_adapter@D@__crt_stdio_output@@@2@@__crt_stdio_output@@AAE_ND@Z 0043f170 f i libucrtd:output.obj
 0001:0003e2a0       ?state_case_normal_tchar@?$output_processor@DV?$stream_output_adapter@D@__crt_stdio_output@@V?$standard_base@DV?$stream_output_adapter@D@__crt_stdio_output@@@2@@__crt_stdio_output@@AAE_ND@Z 0043f2a0 f i libucrtd:output.obj
 0001:0003e3d0       ?state_case_normal_tchar@?$output_processor@DV?$string_output_adapter@D@__crt_stdio_output@@V?$format_validation_base@DV?$string_output_adapter@D@__crt_stdio_output@@@2@@__crt_stdio_output@@AAE_ND@Z 0043f3d0 f i libucrtd:output.obj
 0001:0003e500       ?state_case_normal_tchar@?$output_processor@DV?$string_output_adapter@D@__crt_stdio_output@@V?$positional_parameter_base@DV?$string_output_adapter@D@__crt_stdio_output@@@2@@__crt_stdio_output@@AAE_ND@Z 0043f500 f i libucrtd:output.obj
 0001:0003e630       ?state_case_normal_tchar@?$output_processor@DV?$string_output_adapter@D@__crt_stdio_output@@V?$standard_base@DV?$string_output_adapter@D@__crt_stdio_output@@@2@@__crt_stdio_output@@AAE_ND@Z 0043f630 f i libucrtd:output.obj
 0001:0003e760       ?state_case_normal_tchar@?$output_processor@_WV?$stream_output_adapter@_W@__crt_stdio_output@@V?$format_validation_base@_WV?$stream_output_adapter@_W@__crt_stdio_output@@@2@@__crt_stdio_output@@AAE_N_W@Z 0043f760 f i libucrtd:output.obj
 0001:0003e780       ?state_case_normal_tchar@?$output_processor@_WV?$stream_output_adapter@_W@__crt_stdio_output@@V?$positional_parameter_base@_WV?$stream_output_adapter@_W@__crt_stdio_output@@@2@@__crt_stdio_output@@AAE_N_W@Z 0043f780 f i libucrtd:output.obj
 0001:0003e7a0       ?state_case_normal_tchar@?$output_processor@_WV?$stream_output_adapter@_W@__crt_stdio_output@@V?$standard_base@_WV?$stream_output_adapter@_W@__crt_stdio_output@@@2@@__crt_stdio_output@@AAE_N_W@Z 0043f7a0 f i libucrtd:output.obj
 0001:0003e7c0       ?state_case_normal_tchar@?$output_processor@_WV?$string_output_adapter@_W@__crt_stdio_output@@V?$format_validation_base@_WV?$string_output_adapter@_W@__crt_stdio_output@@@2@@__crt_stdio_output@@AAE_N_W@Z 0043f7c0 f i libucrtd:output.obj
 0001:0003e7e0       ?state_case_normal_tchar@?$output_processor@_WV?$string_output_adapter@_W@__crt_stdio_output@@V?$positional_parameter_base@_WV?$string_output_adapter@_W@__crt_stdio_output@@@2@@__crt_stdio_output@@AAE_N_W@Z 0043f7e0 f i libucrtd:output.obj
 0001:0003e800       ?state_case_normal_tchar@?$output_processor@_WV?$string_output_adapter@_W@__crt_stdio_output@@V?$standard_base@_WV?$string_output_adapter@_W@__crt_stdio_output@@@2@@__crt_stdio_output@@AAE_N_W@Z 0043f800 f i libucrtd:output.obj
 0001:0003e820       ?state_case_percent@?$output_processor@DV?$stream_output_adapter@D@__crt_stdio_output@@V?$format_validation_base@DV?$stream_output_adapter@D@__crt_stdio_output@@@2@@__crt_stdio_output@@AAE_NXZ 0043f820 f i libucrtd:output.obj
 0001:0003e880       ?state_case_percent@?$output_processor@DV?$stream_output_adapter@D@__crt_stdio_output@@V?$positional_parameter_base@DV?$stream_output_adapter@D@__crt_stdio_output@@@2@@__crt_stdio_output@@AAE_NXZ 0043f880 f i libucrtd:output.obj
 0001:0003e8e0       ?state_case_percent@?$output_processor@DV?$stream_output_adapter@D@__crt_stdio_output@@V?$standard_base@DV?$stream_output_adapter@D@__crt_stdio_output@@@2@@__crt_stdio_output@@AAE_NXZ 0043f8e0 f i libucrtd:output.obj
 0001:0003e940       ?state_case_percent@?$output_processor@DV?$string_output_adapter@D@__crt_stdio_output@@V?$format_validation_base@DV?$string_output_adapter@D@__crt_stdio_output@@@2@@__crt_stdio_output@@AAE_NXZ 0043f940 f i libucrtd:output.obj
 0001:0003e9a0       ?state_case_percent@?$output_processor@DV?$string_output_adapter@D@__crt_stdio_output@@V?$positional_parameter_base@DV?$string_output_adapter@D@__crt_stdio_output@@@2@@__crt_stdio_output@@AAE_NXZ 0043f9a0 f i libucrtd:output.obj
 0001:0003ea00       ?state_case_percent@?$output_processor@DV?$string_output_adapter@D@__crt_stdio_output@@V?$standard_base@DV?$string_output_adapter@D@__crt_stdio_output@@@2@@__crt_stdio_output@@AAE_NXZ 0043fa00 f i libucrtd:output.obj
 0001:0003ea60       ?state_case_percent@?$output_processor@_WV?$stream_output_adapter@_W@__crt_stdio_output@@V?$format_validation_base@_WV?$stream_output_adapter@_W@__crt_stdio_output@@@2@@__crt_stdio_output@@AAE_NXZ 0043fa60 f i libucrtd:output.obj
 0001:0003eac0       ?state_case_percent@?$output_processor@_WV?$stream_output_adapter@_W@__crt_stdio_output@@V?$positional_parameter_base@_WV?$stream_output_adapter@_W@__crt_stdio_output@@@2@@__crt_stdio_output@@AAE_NXZ 0043fac0 f i libucrtd:output.obj
 0001:0003eb20       ?state_case_percent@?$output_processor@_WV?$stream_output_adapter@_W@__crt_stdio_output@@V?$standard_base@_WV?$stream_output_adapter@_W@__crt_stdio_output@@@2@@__crt_stdio_output@@AAE_NXZ 0043fb20 f i libucrtd:output.obj
 0001:0003eb80       ?state_case_percent@?$output_processor@_WV?$string_output_adapter@_W@__crt_stdio_output@@V?$format_validation_base@_WV?$string_output_adapter@_W@__crt_stdio_output@@@2@@__crt_stdio_output@@AAE_NXZ 0043fb80 f i libucrtd:output.obj
 0001:0003ebe0       ?state_case_percent@?$output_processor@_WV?$string_output_adapter@_W@__crt_stdio_output@@V?$positional_parameter_base@_WV?$string_output_adapter@_W@__crt_stdio_output@@@2@@__crt_stdio_output@@AAE_NXZ 0043fbe0 f i libucrtd:output.obj
 0001:0003ec40       ?state_case_percent@?$output_processor@_WV?$string_output_adapter@_W@__crt_stdio_output@@V?$standard_base@_WV?$string_output_adapter@_W@__crt_stdio_output@@@2@@__crt_stdio_output@@AAE_NXZ 0043fc40 f i libucrtd:output.obj
 0001:0003eca0       ?state_case_precision@?$output_processor@DV?$stream_output_adapter@D@__crt_stdio_output@@V?$format_validation_base@DV?$stream_output_adapter@D@__crt_stdio_output@@@2@@__crt_stdio_output@@AAE_NXZ 0043fca0 f i libucrtd:output.obj
 0001:0003ed20       ?state_case_precision@?$output_processor@DV?$stream_output_adapter@D@__crt_stdio_output@@V?$positional_parameter_base@DV?$stream_output_adapter@D@__crt_stdio_output@@@2@@__crt_stdio_output@@AAE_NXZ 0043fd20 f i libucrtd:output.obj
 0001:0003eda0       ?state_case_precision@?$output_processor@DV?$stream_output_adapter@D@__crt_stdio_output@@V?$standard_base@DV?$stream_output_adapter@D@__crt_stdio_output@@@2@@__crt_stdio_output@@AAE_NXZ 0043fda0 f i libucrtd:output.obj
 0001:0003ee20       ?state_case_precision@?$output_processor@DV?$string_output_adapter@D@__crt_stdio_output@@V?$format_validation_base@DV?$string_output_adapter@D@__crt_stdio_output@@@2@@__crt_stdio_output@@AAE_NXZ 0043fe20 f i libucrtd:output.obj
 0001:0003eea0       ?state_case_precision@?$output_processor@DV?$string_output_adapter@D@__crt_stdio_output@@V?$positional_parameter_base@DV?$string_output_adapter@D@__crt_stdio_output@@@2@@__crt_stdio_output@@AAE_NXZ 0043fea0 f i libucrtd:output.obj
 0001:0003ef20       ?state_case_precision@?$output_processor@DV?$string_output_adapter@D@__crt_stdio_output@@V?$standard_base@DV?$string_output_adapter@D@__crt_stdio_output@@@2@@__crt_stdio_output@@AAE_NXZ 0043ff20 f i libucrtd:output.obj
 0001:0003efa0       ?state_case_precision@?$output_processor@_WV?$stream_output_adapter@_W@__crt_stdio_output@@V?$format_validation_base@_WV?$stream_output_adapter@_W@__crt_stdio_output@@@2@@__crt_stdio_output@@AAE_NXZ 0043ffa0 f i libucrtd:output.obj
 0001:0003f020       ?state_case_precision@?$output_processor@_WV?$stream_output_adapter@_W@__crt_stdio_output@@V?$positional_parameter_base@_WV?$stream_output_adapter@_W@__crt_stdio_output@@@2@@__crt_stdio_output@@AAE_NXZ 00440020 f i libucrtd:output.obj
 0001:0003f0a0       ?state_case_precision@?$output_processor@_WV?$stream_output_adapter@_W@__crt_stdio_output@@V?$standard_base@_WV?$stream_output_adapter@_W@__crt_stdio_output@@@2@@__crt_stdio_output@@AAE_NXZ 004400a0 f i libucrtd:output.obj
 0001:0003f120       ?state_case_precision@?$output_processor@_WV?$string_output_adapter@_W@__crt_stdio_output@@V?$format_validation_base@_WV?$string_output_adapter@_W@__crt_stdio_output@@@2@@__crt_stdio_output@@AAE_NXZ 00440120 f i libucrtd:output.obj
 0001:0003f1a0       ?state_case_precision@?$output_processor@_WV?$string_output_adapter@_W@__crt_stdio_output@@V?$positional_parameter_base@_WV?$string_output_adapter@_W@__crt_stdio_output@@@2@@__crt_stdio_output@@AAE_NXZ 004401a0 f i libucrtd:output.obj
 0001:0003f220       ?state_case_precision@?$output_processor@_WV?$string_output_adapter@_W@__crt_stdio_output@@V?$standard_base@_WV?$string_output_adapter@_W@__crt_stdio_output@@@2@@__crt_stdio_output@@AAE_NXZ 00440220 f i libucrtd:output.obj
 0001:0003f2a0       ?state_case_size@?$output_processor@DV?$stream_output_adapter@D@__crt_stdio_output@@V?$format_validation_base@DV?$stream_output_adapter@D@__crt_stdio_output@@@2@@__crt_stdio_output@@AAE_NXZ 004402a0 f i libucrtd:output.obj
 0001:0003f760       ?state_case_size@?$output_processor@DV?$stream_output_adapter@D@__crt_stdio_output@@V?$positional_parameter_base@DV?$stream_output_adapter@D@__crt_stdio_output@@@2@@__crt_stdio_output@@AAE_NXZ 00440760 f i libucrtd:output.obj
 0001:0003fc20       ?state_case_size@?$output_processor@DV?$stream_output_adapter@D@__crt_stdio_output@@V?$standard_base@DV?$stream_output_adapter@D@__crt_stdio_output@@@2@@__crt_stdio_output@@AAE_NXZ 00440c20 f i libucrtd:output.obj
 0001:000400e0       ?state_case_size@?$output_processor@DV?$string_output_adapter@D@__crt_stdio_output@@V?$format_validation_base@DV?$string_output_adapter@D@__crt_stdio_output@@@2@@__crt_stdio_output@@AAE_NXZ 004410e0 f i libucrtd:output.obj
 0001:000405a0       ?state_case_size@?$output_processor@DV?$string_output_adapter@D@__crt_stdio_output@@V?$positional_parameter_base@DV?$string_output_adapter@D@__crt_stdio_output@@@2@@__crt_stdio_output@@AAE_NXZ 004415a0 f i libucrtd:output.obj
 0001:00040a60       ?state_case_size@?$output_processor@DV?$string_output_adapter@D@__crt_stdio_output@@V?$standard_base@DV?$string_output_adapter@D@__crt_stdio_output@@@2@@__crt_stdio_output@@AAE_NXZ 00441a60 f i libucrtd:output.obj
 0001:00040f20       ?state_case_size@?$output_processor@_WV?$stream_output_adapter@_W@__crt_stdio_output@@V?$format_validation_base@_WV?$stream_output_adapter@_W@__crt_stdio_output@@@2@@__crt_stdio_output@@AAE_NXZ 00441f20 f i libucrtd:output.obj
 0001:000413e0       ?state_case_size@?$output_processor@_WV?$stream_output_adapter@_W@__crt_stdio_output@@V?$positional_parameter_base@_WV?$stream_output_adapter@_W@__crt_stdio_output@@@2@@__crt_stdio_output@@AAE_NXZ 004423e0 f i libucrtd:output.obj
 0001:000418a0       ?state_case_size@?$output_processor@_WV?$stream_output_adapter@_W@__crt_stdio_output@@V?$standard_base@_WV?$stream_output_adapter@_W@__crt_stdio_output@@@2@@__crt_stdio_output@@AAE_NXZ 004428a0 f i libucrtd:output.obj
 0001:00041d60       ?state_case_size@?$output_processor@_WV?$string_output_adapter@_W@__crt_stdio_output@@V?$format_validation_base@_WV?$string_output_adapter@_W@__crt_stdio_output@@@2@@__crt_stdio_output@@AAE_NXZ 00442d60 f i libucrtd:output.obj
 0001:00042220       ?state_case_size@?$output_processor@_WV?$string_output_adapter@_W@__crt_stdio_output@@V?$positional_parameter_base@_WV?$string_output_adapter@_W@__crt_stdio_output@@@2@@__crt_stdio_output@@AAE_NXZ 00443220 f i libucrtd:output.obj
 0001:000426e0       ?state_case_size@?$output_processor@_WV?$string_output_adapter@_W@__crt_stdio_output@@V?$standard_base@_WV?$string_output_adapter@_W@__crt_stdio_output@@@2@@__crt_stdio_output@@AAE_NXZ 004436e0 f i libucrtd:output.obj
 0001:00042ba0       ?state_case_type@?$output_processor@DV?$stream_output_adapter@D@__crt_stdio_output@@V?$format_validation_base@DV?$stream_output_adapter@D@__crt_stdio_output@@@2@@__crt_stdio_output@@AAE_NXZ 00443ba0 f i libucrtd:output.obj
 0001:00043040       ?state_case_type@?$output_processor@DV?$stream_output_adapter@D@__crt_stdio_output@@V?$positional_parameter_base@DV?$stream_output_adapter@D@__crt_stdio_output@@@2@@__crt_stdio_output@@AAE_NXZ 00444040 f i libucrtd:output.obj
 0001:000434e0       ?state_case_type@?$output_processor@DV?$stream_output_adapter@D@__crt_stdio_output@@V?$standard_base@DV?$stream_output_adapter@D@__crt_stdio_output@@@2@@__crt_stdio_output@@AAE_NXZ 004444e0 f i libucrtd:output.obj
 0001:00043980       ?state_case_type@?$output_processor@DV?$string_output_adapter@D@__crt_stdio_output@@V?$format_validation_base@DV?$string_output_adapter@D@__crt_stdio_output@@@2@@__crt_stdio_output@@AAE_NXZ 00444980 f i libucrtd:output.obj
 0001:00043e20       ?state_case_type@?$output_processor@DV?$string_output_adapter@D@__crt_stdio_output@@V?$positional_parameter_base@DV?$string_output_adapter@D@__crt_stdio_output@@@2@@__crt_stdio_output@@AAE_NXZ 00444e20 f i libucrtd:output.obj
 0001:000442c0       ?state_case_type@?$output_processor@DV?$string_output_adapter@D@__crt_stdio_output@@V?$standard_base@DV?$string_output_adapter@D@__crt_stdio_output@@@2@@__crt_stdio_output@@AAE_NXZ 004452c0 f i libucrtd:output.obj
 0001:00044760       ?state_case_type@?$output_processor@_WV?$stream_output_adapter@_W@__crt_stdio_output@@V?$format_validation_base@_WV?$stream_output_adapter@_W@__crt_stdio_output@@@2@@__crt_stdio_output@@AAE_NXZ 00445760 f i libucrtd:output.obj
 0001:00044c30       ?state_case_type@?$output_processor@_WV?$stream_output_adapter@_W@__crt_stdio_output@@V?$positional_parameter_base@_WV?$stream_output_adapter@_W@__crt_stdio_output@@@2@@__crt_stdio_output@@AAE_NXZ 00445c30 f i libucrtd:output.obj
 0001:00045100       ?state_case_type@?$output_processor@_WV?$stream_output_adapter@_W@__crt_stdio_output@@V?$standard_base@_WV?$stream_output_adapter@_W@__crt_stdio_output@@@2@@__crt_stdio_output@@AAE_NXZ 00446100 f i libucrtd:output.obj
 0001:000455d0       ?state_case_type@?$output_processor@_WV?$string_output_adapter@_W@__crt_stdio_output@@V?$format_validation_base@_WV?$string_output_adapter@_W@__crt_stdio_output@@@2@@__crt_stdio_output@@AAE_NXZ 004465d0 f i libucrtd:output.obj
 0001:00045aa0       ?state_case_type@?$output_processor@_WV?$string_output_adapter@_W@__crt_stdio_output@@V?$positional_parameter_base@_WV?$string_output_adapter@_W@__crt_stdio_output@@@2@@__crt_stdio_output@@AAE_NXZ 00446aa0 f i libucrtd:output.obj
 0001:00045f70       ?state_case_type@?$output_processor@_WV?$string_output_adapter@_W@__crt_stdio_output@@V?$standard_base@_WV?$string_output_adapter@_W@__crt_stdio_output@@@2@@__crt_stdio_output@@AAE_NXZ 00446f70 f i libucrtd:output.obj
 0001:00046440       ?state_case_width@?$output_processor@DV?$stream_output_adapter@D@__crt_stdio_output@@V?$format_validation_base@DV?$stream_output_adapter@D@__crt_stdio_output@@@2@@__crt_stdio_output@@AAE_NXZ 00447440 f i libucrtd:output.obj
 0001:000464d0       ?state_case_width@?$output_processor@DV?$stream_output_adapter@D@__crt_stdio_output@@V?$positional_parameter_base@DV?$stream_output_adapter@D@__crt_stdio_output@@@2@@__crt_stdio_output@@AAE_NXZ 004474d0 f i libucrtd:output.obj
 0001:00046560       ?state_case_width@?$output_processor@DV?$stream_output_adapter@D@__crt_stdio_output@@V?$standard_base@DV?$stream_output_adapter@D@__crt_stdio_output@@@2@@__crt_stdio_output@@AAE_NXZ 00447560 f i libucrtd:output.obj
 0001:000465f0       ?state_case_width@?$output_processor@DV?$string_output_adapter@D@__crt_stdio_output@@V?$format_validation_base@DV?$string_output_adapter@D@__crt_stdio_output@@@2@@__crt_stdio_output@@AAE_NXZ 004475f0 f i libucrtd:output.obj
 0001:00046680       ?state_case_width@?$output_processor@DV?$string_output_adapter@D@__crt_stdio_output@@V?$positional_parameter_base@DV?$string_output_adapter@D@__crt_stdio_output@@@2@@__crt_stdio_output@@AAE_NXZ 00447680 f i libucrtd:output.obj
 0001:00046710       ?state_case_width@?$output_processor@DV?$string_output_adapter@D@__crt_stdio_output@@V?$standard_base@DV?$string_output_adapter@D@__crt_stdio_output@@@2@@__crt_stdio_output@@AAE_NXZ 00447710 f i libucrtd:output.obj
 0001:000467a0       ?state_case_width@?$output_processor@_WV?$stream_output_adapter@_W@__crt_stdio_output@@V?$format_validation_base@_WV?$stream_output_adapter@_W@__crt_stdio_output@@@2@@__crt_stdio_output@@AAE_NXZ 004477a0 f i libucrtd:output.obj
 0001:00046830       ?state_case_width@?$output_processor@_WV?$stream_output_adapter@_W@__crt_stdio_output@@V?$positional_parameter_base@_WV?$stream_output_adapter@_W@__crt_stdio_output@@@2@@__crt_stdio_output@@AAE_NXZ 00447830 f i libucrtd:output.obj
 0001:000468c0       ?state_case_width@?$output_processor@_WV?$stream_output_adapter@_W@__crt_stdio_output@@V?$standard_base@_WV?$stream_output_adapter@_W@__crt_stdio_output@@@2@@__crt_stdio_output@@AAE_NXZ 004478c0 f i libucrtd:output.obj
 0001:00046950       ?state_case_width@?$output_processor@_WV?$string_output_adapter@_W@__crt_stdio_output@@V?$format_validation_base@_WV?$string_output_adapter@_W@__crt_stdio_output@@@2@@__crt_stdio_output@@AAE_NXZ 00447950 f i libucrtd:output.obj
 0001:000469e0       ?state_case_width@?$output_processor@_WV?$string_output_adapter@_W@__crt_stdio_output@@V?$positional_parameter_base@_WV?$string_output_adapter@_W@__crt_stdio_output@@@2@@__crt_stdio_output@@AAE_NXZ 004479e0 f i libucrtd:output.obj
 0001:00046a70       ?state_case_width@?$output_processor@_WV?$string_output_adapter@_W@__crt_stdio_output@@V?$standard_base@_WV?$string_output_adapter@_W@__crt_stdio_output@@@2@@__crt_stdio_output@@AAE_NXZ 00447a70 f i libucrtd:output.obj
 0001:00046b00       ?state_count@?$format_validation_base@DV?$stream_output_adapter@D@__crt_stdio_output@@@__crt_stdio_output@@KAIXZ 00447b00 f i libucrtd:output.obj
 0001:00046b10       ?state_count@?$format_validation_base@DV?$string_output_adapter@D@__crt_stdio_output@@@__crt_stdio_output@@KAIXZ 00447b10 f i libucrtd:output.obj
 0001:00046b20       ?state_count@?$format_validation_base@_WV?$stream_output_adapter@_W@__crt_stdio_output@@@__crt_stdio_output@@KAIXZ 00447b20 f i libucrtd:output.obj
 0001:00046b30       ?state_count@?$format_validation_base@_WV?$string_output_adapter@_W@__crt_stdio_output@@@__crt_stdio_output@@KAIXZ 00447b30 f i libucrtd:output.obj
 0001:00046b40       ?state_count@?$standard_base@DV?$stream_output_adapter@D@__crt_stdio_output@@@__crt_stdio_output@@KAIXZ 00447b40 f i libucrtd:output.obj
 0001:00046b50       ?state_count@?$standard_base@DV?$string_output_adapter@D@__crt_stdio_output@@@__crt_stdio_output@@KAIXZ 00447b50 f i libucrtd:output.obj
 0001:00046b60       ?state_count@?$standard_base@_WV?$stream_output_adapter@_W@__crt_stdio_output@@@__crt_stdio_output@@KAIXZ 00447b60 f i libucrtd:output.obj
 0001:00046b70       ?state_count@?$standard_base@_WV?$string_output_adapter@_W@__crt_stdio_output@@@__crt_stdio_output@@KAIXZ 00447b70 f i libucrtd:output.obj
 0001:00046b80       ?state_transition_table@?$format_validation_base@DV?$stream_output_adapter@D@__crt_stdio_output@@@__crt_stdio_output@@KAPBEXZ 00447b80 f i libucrtd:output.obj
 0001:00046b90       ?state_transition_table@?$format_validation_base@DV?$string_output_adapter@D@__crt_stdio_output@@@__crt_stdio_output@@KAPBEXZ 00447b90 f i libucrtd:output.obj
 0001:00046ba0       ?state_transition_table@?$format_validation_base@_WV?$stream_output_adapter@_W@__crt_stdio_output@@@__crt_stdio_output@@KAPBEXZ 00447ba0 f i libucrtd:output.obj
 0001:00046bb0       ?state_transition_table@?$format_validation_base@_WV?$string_output_adapter@_W@__crt_stdio_output@@@__crt_stdio_output@@KAPBEXZ 00447bb0 f i libucrtd:output.obj
 0001:00046bc0       ?state_transition_table@?$standard_base@DV?$stream_output_adapter@D@__crt_stdio_output@@@__crt_stdio_output@@KAPBEXZ 00447bc0 f i libucrtd:output.obj
 0001:00046bd0       ?state_transition_table@?$standard_base@DV?$string_output_adapter@D@__crt_stdio_output@@@__crt_stdio_output@@KAPBEXZ 00447bd0 f i libucrtd:output.obj
 0001:00046be0       ?state_transition_table@?$standard_base@_WV?$stream_output_adapter@_W@__crt_stdio_output@@@__crt_stdio_output@@KAPBEXZ 00447be0 f i libucrtd:output.obj
 0001:00046bf0       ?state_transition_table@?$standard_base@_WV?$string_output_adapter@_W@__crt_stdio_output@@@__crt_stdio_output@@KAPBEXZ 00447bf0 f i libucrtd:output.obj
 0001:00046c00       ?to_integer_size@__crt_stdio_output@@YAIW4length_modifier@1@@Z 00447c00 f i libucrtd:output.obj
 0001:00046cd0       ?type_case_X@?$output_processor@DV?$stream_output_adapter@D@__crt_stdio_output@@V?$format_validation_base@DV?$stream_output_adapter@D@__crt_stdio_output@@@2@@__crt_stdio_output@@AAE_NXZ 00447cd0 f i libucrtd:output.obj
 0001:00046cf0       ?type_case_X@?$output_processor@DV?$stream_output_adapter@D@__crt_stdio_output@@V?$positional_parameter_base@DV?$stream_output_adapter@D@__crt_stdio_output@@@2@@__crt_stdio_output@@AAE_NXZ 00447cf0 f i libucrtd:output.obj
 0001:00046d10       ?type_case_X@?$output_processor@DV?$stream_output_adapter@D@__crt_stdio_output@@V?$standard_base@DV?$stream_output_adapter@D@__crt_stdio_output@@@2@@__crt_stdio_output@@AAE_NXZ 00447d10 f i libucrtd:output.obj
 0001:00046d30       ?type_case_X@?$output_processor@DV?$string_output_adapter@D@__crt_stdio_output@@V?$format_validation_base@DV?$string_output_adapter@D@__crt_stdio_output@@@2@@__crt_stdio_output@@AAE_NXZ 00447d30 f i libucrtd:output.obj
 0001:00046d50       ?type_case_X@?$output_processor@DV?$string_output_adapter@D@__crt_stdio_output@@V?$positional_parameter_base@DV?$string_output_adapter@D@__crt_stdio_output@@@2@@__crt_stdio_output@@AAE_NXZ 00447d50 f i libucrtd:output.obj
 0001:00046d70       ?type_case_X@?$output_processor@DV?$string_output_adapter@D@__crt_stdio_output@@V?$standard_base@DV?$string_output_adapter@D@__crt_stdio_output@@@2@@__crt_stdio_output@@AAE_NXZ 00447d70 f i libucrtd:output.obj
 0001:00046d90       ?type_case_X@?$output_processor@_WV?$stream_output_adapter@_W@__crt_stdio_output@@V?$format_validation_base@_WV?$stream_output_adapter@_W@__crt_stdio_output@@@2@@__crt_stdio_output@@AAE_NXZ 00447d90 f i libucrtd:output.obj
 0001:00046db0       ?type_case_X@?$output_processor@_WV?$stream_output_adapter@_W@__crt_stdio_output@@V?$positional_parameter_base@_WV?$stream_output_adapter@_W@__crt_stdio_output@@@2@@__crt_stdio_output@@AAE_NXZ 00447db0 f i libucrtd:output.obj
 0001:00046dd0       ?type_case_X@?$output_processor@_WV?$stream_output_adapter@_W@__crt_stdio_output@@V?$standard_base@_WV?$stream_output_adapter@_W@__crt_stdio_output@@@2@@__crt_stdio_output@@AAE_NXZ 00447dd0 f i libucrtd:output.obj
 0001:00046df0       ?type_case_X@?$output_processor@_WV?$string_output_adapter@_W@__crt_stdio_output@@V?$format_validation_base@_WV?$string_output_adapter@_W@__crt_stdio_output@@@2@@__crt_stdio_output@@AAE_NXZ 00447df0 f i libucrtd:output.obj
 0001:00046e10       ?type_case_X@?$output_processor@_WV?$string_output_adapter@_W@__crt_stdio_output@@V?$positional_parameter_base@_WV?$string_output_adapter@_W@__crt_stdio_output@@@2@@__crt_stdio_output@@AAE_NXZ 00447e10 f i libucrtd:output.obj
 0001:00046e30       ?type_case_X@?$output_processor@_WV?$string_output_adapter@_W@__crt_stdio_output@@V?$standard_base@_WV?$string_output_adapter@_W@__crt_stdio_output@@@2@@__crt_stdio_output@@AAE_NXZ 00447e30 f i libucrtd:output.obj
 0001:00046e50       ?type_case_Z@?$output_processor@DV?$stream_output_adapter@D@__crt_stdio_output@@V?$format_validation_base@DV?$stream_output_adapter@D@__crt_stdio_output@@@2@@__crt_stdio_output@@AAE_NXZ 00447e50 f i libucrtd:output.obj
 0001:00046f80       ?type_case_Z@?$output_processor@DV?$stream_output_adapter@D@__crt_stdio_output@@V?$positional_parameter_base@DV?$stream_output_adapter@D@__crt_stdio_output@@@2@@__crt_stdio_output@@AAE_NXZ 00447f80 f i libucrtd:output.obj
 0001:000470b0       ?type_case_Z@?$output_processor@DV?$stream_output_adapter@D@__crt_stdio_output@@V?$standard_base@DV?$stream_output_adapter@D@__crt_stdio_output@@@2@@__crt_stdio_output@@AAE_NXZ 004480b0 f i libucrtd:output.obj
 0001:000471e0       ?type_case_Z@?$output_processor@DV?$string_output_adapter@D@__crt_stdio_output@@V?$format_validation_base@DV?$string_output_adapter@D@__crt_stdio_output@@@2@@__crt_stdio_output@@AAE_NXZ 004481e0 f i libucrtd:output.obj
 0001:00047310       ?type_case_Z@?$output_processor@DV?$string_output_adapter@D@__crt_stdio_output@@V?$positional_parameter_base@DV?$string_output_adapter@D@__crt_stdio_output@@@2@@__crt_stdio_output@@AAE_NXZ 00448310 f i libucrtd:output.obj
 0001:00047440       ?type_case_Z@?$output_processor@DV?$string_output_adapter@D@__crt_stdio_output@@V?$standard_base@DV?$string_output_adapter@D@__crt_stdio_output@@@2@@__crt_stdio_output@@AAE_NXZ 00448440 f i libucrtd:output.obj
 0001:00047570       ?type_case_Z@?$output_processor@_WV?$stream_output_adapter@_W@__crt_stdio_output@@V?$format_validation_base@_WV?$stream_output_adapter@_W@__crt_stdio_output@@@2@@__crt_stdio_output@@AAE_NXZ 00448570 f i libucrtd:output.obj
 0001:000476a0       ?type_case_Z@?$output_processor@_WV?$stream_output_adapter@_W@__crt_stdio_output@@V?$positional_parameter_base@_WV?$stream_output_adapter@_W@__crt_stdio_output@@@2@@__crt_stdio_output@@AAE_NXZ 004486a0 f i libucrtd:output.obj
 0001:000477d0       ?type_case_Z@?$output_processor@_WV?$stream_output_adapter@_W@__crt_stdio_output@@V?$standard_base@_WV?$stream_output_adapter@_W@__crt_stdio_output@@@2@@__crt_stdio_output@@AAE_NXZ 004487d0 f i libucrtd:output.obj
 0001:00047900       ?type_case_Z@?$output_processor@_WV?$string_output_adapter@_W@__crt_stdio_output@@V?$format_validation_base@_WV?$string_output_adapter@_W@__crt_stdio_output@@@2@@__crt_stdio_output@@AAE_NXZ 00448900 f i libucrtd:output.obj
 0001:00047a30       ?type_case_Z@?$output_processor@_WV?$string_output_adapter@_W@__crt_stdio_output@@V?$positional_parameter_base@_WV?$string_output_adapter@_W@__crt_stdio_output@@@2@@__crt_stdio_output@@AAE_NXZ 00448a30 f i libucrtd:output.obj
 0001:00047b60       ?type_case_Z@?$output_processor@_WV?$string_output_adapter@_W@__crt_stdio_output@@V?$standard_base@_WV?$string_output_adapter@_W@__crt_stdio_output@@@2@@__crt_stdio_output@@AAE_NXZ 00448b60 f i libucrtd:output.obj
 0001:00047c90       ?type_case_a@?$output_processor@DV?$stream_output_adapter@D@__crt_stdio_output@@V?$format_validation_base@DV?$stream_output_adapter@D@__crt_stdio_output@@@2@@__crt_stdio_output@@AAE_NXZ 00448c90 f i libucrtd:output.obj
 0001:00047f80       ?type_case_a@?$output_processor@DV?$stream_output_adapter@D@__crt_stdio_output@@V?$positional_parameter_base@DV?$stream_output_adapter@D@__crt_stdio_output@@@2@@__crt_stdio_output@@AAE_NXZ 00448f80 f i libucrtd:output.obj
 0001:00048270       ?type_case_a@?$output_processor@DV?$stream_output_adapter@D@__crt_stdio_output@@V?$standard_base@DV?$stream_output_adapter@D@__crt_stdio_output@@@2@@__crt_stdio_output@@AAE_NXZ 00449270 f i libucrtd:output.obj
 0001:00048560       ?type_case_a@?$output_processor@DV?$string_output_adapter@D@__crt_stdio_output@@V?$format_validation_base@DV?$string_output_adapter@D@__crt_stdio_output@@@2@@__crt_stdio_output@@AAE_NXZ 00449560 f i libucrtd:output.obj
 0001:00048850       ?type_case_a@?$output_processor@DV?$string_output_adapter@D@__crt_stdio_output@@V?$positional_parameter_base@DV?$string_output_adapter@D@__crt_stdio_output@@@2@@__crt_stdio_output@@AAE_NXZ 00449850 f i libucrtd:output.obj
 0001:00048b40       ?type_case_a@?$output_processor@DV?$string_output_adapter@D@__crt_stdio_output@@V?$standard_base@DV?$string_output_adapter@D@__crt_stdio_output@@@2@@__crt_stdio_output@@AAE_NXZ 00449b40 f i libucrtd:output.obj
 0001:00048e30       ?type_case_a@?$output_processor@_WV?$stream_output_adapter@_W@__crt_stdio_output@@V?$format_validation_base@_WV?$stream_output_adapter@_W@__crt_stdio_output@@@2@@__crt_stdio_output@@AAE_NXZ 00449e30 f i libucrtd:output.obj
 0001:00049130       ?type_case_a@?$output_processor@_WV?$stream_output_adapter@_W@__crt_stdio_output@@V?$positional_parameter_base@_WV?$stream_output_adapter@_W@__crt_stdio_output@@@2@@__crt_stdio_output@@AAE_NXZ 0044a130 f i libucrtd:output.obj
 0001:00049430       ?type_case_a@?$output_processor@_WV?$stream_output_adapter@_W@__crt_stdio_output@@V?$standard_base@_WV?$stream_output_adapter@_W@__crt_stdio_output@@@2@@__crt_stdio_output@@AAE_NXZ 0044a430 f i libucrtd:output.obj
 0001:00049730       ?type_case_a@?$output_processor@_WV?$string_output_adapter@_W@__crt_stdio_output@@V?$format_validation_base@_WV?$string_output_adapter@_W@__crt_stdio_output@@@2@@__crt_stdio_output@@AAE_NXZ 0044a730 f i libucrtd:output.obj
 0001:00049a30       ?type_case_a@?$output_processor@_WV?$string_output_adapter@_W@__crt_stdio_output@@V?$positional_parameter_base@_WV?$string_output_adapter@_W@__crt_stdio_output@@@2@@__crt_stdio_output@@AAE_NXZ 0044aa30 f i libucrtd:output.obj
 0001:00049d30       ?type_case_a@?$output_processor@_WV?$string_output_adapter@_W@__crt_stdio_output@@V?$standard_base@_WV?$string_output_adapter@_W@__crt_stdio_output@@@2@@__crt_stdio_output@@AAE_NXZ 0044ad30 f i libucrtd:output.obj
 0001:0004a030       ?type_case_c@?$output_processor@DV?$stream_output_adapter@D@__crt_stdio_output@@V?$format_validation_base@DV?$stream_output_adapter@D@__crt_stdio_output@@@2@@__crt_stdio_output@@AAE_NXZ 0044b030 f i libucrtd:output.obj
 0001:0004a050       ?type_case_c@?$output_processor@DV?$stream_output_adapter@D@__crt_stdio_output@@V?$positional_parameter_base@DV?$stream_output_adapter@D@__crt_stdio_output@@@2@@__crt_stdio_output@@AAE_NXZ 0044b050 f i libucrtd:output.obj
 0001:0004a070       ?type_case_c@?$output_processor@DV?$stream_output_adapter@D@__crt_stdio_output@@V?$standard_base@DV?$stream_output_adapter@D@__crt_stdio_output@@@2@@__crt_stdio_output@@AAE_NXZ 0044b070 f i libucrtd:output.obj
 0001:0004a090       ?type_case_c@?$output_processor@DV?$string_output_adapter@D@__crt_stdio_output@@V?$format_validation_base@DV?$string_output_adapter@D@__crt_stdio_output@@@2@@__crt_stdio_output@@AAE_NXZ 0044b090 f i libucrtd:output.obj
 0001:0004a0b0       ?type_case_c@?$output_processor@DV?$string_output_adapter@D@__crt_stdio_output@@V?$positional_parameter_base@DV?$string_output_adapter@D@__crt_stdio_output@@@2@@__crt_stdio_output@@AAE_NXZ 0044b0b0 f i libucrtd:output.obj
 0001:0004a0d0       ?type_case_c@?$output_processor@DV?$string_output_adapter@D@__crt_stdio_output@@V?$standard_base@DV?$string_output_adapter@D@__crt_stdio_output@@@2@@__crt_stdio_output@@AAE_NXZ 0044b0d0 f i libucrtd:output.obj
 0001:0004a0f0       ?type_case_c@?$output_processor@_WV?$stream_output_adapter@_W@__crt_stdio_output@@V?$format_validation_base@_WV?$stream_output_adapter@_W@__crt_stdio_output@@@2@@__crt_stdio_output@@AAE_NXZ 0044b0f0 f i libucrtd:output.obj
 0001:0004a110       ?type_case_c@?$output_processor@_WV?$stream_output_adapter@_W@__crt_stdio_output@@V?$positional_parameter_base@_WV?$stream_output_adapter@_W@__crt_stdio_output@@@2@@__crt_stdio_output@@AAE_NXZ 0044b110 f i libucrtd:output.obj
 0001:0004a130       ?type_case_c@?$output_processor@_WV?$stream_output_adapter@_W@__crt_stdio_output@@V?$standard_base@_WV?$stream_output_adapter@_W@__crt_stdio_output@@@2@@__crt_stdio_output@@AAE_NXZ 0044b130 f i libucrtd:output.obj
 0001:0004a150       ?type_case_c@?$output_processor@_WV?$string_output_adapter@_W@__crt_stdio_output@@V?$format_validation_base@_WV?$string_output_adapter@_W@__crt_stdio_output@@@2@@__crt_stdio_output@@AAE_NXZ 0044b150 f i libucrtd:output.obj
 0001:0004a170       ?type_case_c@?$output_processor@_WV?$string_output_adapter@_W@__crt_stdio_output@@V?$positional_parameter_base@_WV?$string_output_adapter@_W@__crt_stdio_output@@@2@@__crt_stdio_output@@AAE_NXZ 0044b170 f i libucrtd:output.obj
 0001:0004a190       ?type_case_c@?$output_processor@_WV?$string_output_adapter@_W@__crt_stdio_output@@V?$standard_base@_WV?$string_output_adapter@_W@__crt_stdio_output@@@2@@__crt_stdio_output@@AAE_NXZ 0044b190 f i libucrtd:output.obj
 0001:0004a1b0       ?type_case_c_tchar@?$output_processor@DV?$stream_output_adapter@D@__crt_stdio_output@@V?$format_validation_base@DV?$stream_output_adapter@D@__crt_stdio_output@@@2@@__crt_stdio_output@@AAE_ND@Z 0044b1b0 f i libucrtd:output.obj
 0001:0004a300       ?type_case_c_tchar@?$output_processor@DV?$stream_output_adapter@D@__crt_stdio_output@@V?$positional_parameter_base@DV?$stream_output_adapter@D@__crt_stdio_output@@@2@@__crt_stdio_output@@AAE_ND@Z 0044b300 f i libucrtd:output.obj
 0001:0004a450       ?type_case_c_tchar@?$output_processor@DV?$stream_output_adapter@D@__crt_stdio_output@@V?$standard_base@DV?$stream_output_adapter@D@__crt_stdio_output@@@2@@__crt_stdio_output@@AAE_ND@Z 0044b450 f i libucrtd:output.obj
 0001:0004a5a0       ?type_case_c_tchar@?$output_processor@DV?$string_output_adapter@D@__crt_stdio_output@@V?$format_validation_base@DV?$string_output_adapter@D@__crt_stdio_output@@@2@@__crt_stdio_output@@AAE_ND@Z 0044b5a0 f i libucrtd:output.obj
 0001:0004a6f0       ?type_case_c_tchar@?$output_processor@DV?$string_output_adapter@D@__crt_stdio_output@@V?$positional_parameter_base@DV?$string_output_adapter@D@__crt_stdio_output@@@2@@__crt_stdio_output@@AAE_ND@Z 0044b6f0 f i libucrtd:output.obj
 0001:0004a840       ?type_case_c_tchar@?$output_processor@DV?$string_output_adapter@D@__crt_stdio_output@@V?$standard_base@DV?$string_output_adapter@D@__crt_stdio_output@@@2@@__crt_stdio_output@@AAE_ND@Z 0044b840 f i libucrtd:output.obj
 0001:0004a990       ?type_case_c_tchar@?$output_processor@_WV?$stream_output_adapter@_W@__crt_stdio_output@@V?$format_validation_base@_WV?$stream_output_adapter@_W@__crt_stdio_output@@@2@@__crt_stdio_output@@AAE_N_W@Z 0044b990 f i libucrtd:output.obj
 0001:0004aad0       ?type_case_c_tchar@?$output_processor@_WV?$stream_output_adapter@_W@__crt_stdio_output@@V?$positional_parameter_base@_WV?$stream_output_adapter@_W@__crt_stdio_output@@@2@@__crt_stdio_output@@AAE_N_W@Z 0044bad0 f i libucrtd:output.obj
 0001:0004ac10       ?type_case_c_tchar@?$output_processor@_WV?$stream_output_adapter@_W@__crt_stdio_output@@V?$standard_base@_WV?$stream_output_adapter@_W@__crt_stdio_output@@@2@@__crt_stdio_output@@AAE_N_W@Z 0044bc10 f i libucrtd:output.obj
 0001:0004ad50       ?type_case_c_tchar@?$output_processor@_WV?$string_output_adapter@_W@__crt_stdio_output@@V?$format_validation_base@_WV?$string_output_adapter@_W@__crt_stdio_output@@@2@@__crt_stdio_output@@AAE_N_W@Z 0044bd50 f i libucrtd:output.obj
 0001:0004ae90       ?type_case_c_tchar@?$output_processor@_WV?$string_output_adapter@_W@__crt_stdio_output@@V?$positional_parameter_base@_WV?$string_output_adapter@_W@__crt_stdio_output@@@2@@__crt_stdio_output@@AAE_N_W@Z 0044be90 f i libucrtd:output.obj
 0001:0004afd0       ?type_case_c_tchar@?$output_processor@_WV?$string_output_adapter@_W@__crt_stdio_output@@V?$standard_base@_WV?$string_output_adapter@_W@__crt_stdio_output@@@2@@__crt_stdio_output@@AAE_N_W@Z 0044bfd0 f i libucrtd:output.obj
 0001:0004b110       ?type_case_d@?$output_processor@DV?$stream_output_adapter@D@__crt_stdio_output@@V?$format_validation_base@DV?$stream_output_adapter@D@__crt_stdio_output@@@2@@__crt_stdio_output@@AAE_NXZ 0044c110 f i libucrtd:output.obj
 0001:0004b140       ?type_case_d@?$output_processor@DV?$stream_output_adapter@D@__crt_stdio_output@@V?$positional_parameter_base@DV?$stream_output_adapter@D@__crt_stdio_output@@@2@@__crt_stdio_output@@AAE_NXZ 0044c140 f i libucrtd:output.obj
 0001:0004b170       ?type_case_d@?$output_processor@DV?$stream_output_adapter@D@__crt_stdio_output@@V?$standard_base@DV?$stream_output_adapter@D@__crt_stdio_output@@@2@@__crt_stdio_output@@AAE_NXZ 0044c170 f i libucrtd:output.obj
 0001:0004b1a0       ?type_case_d@?$output_processor@DV?$string_output_adapter@D@__crt_stdio_output@@V?$format_validation_base@DV?$string_output_adapter@D@__crt_stdio_output@@@2@@__crt_stdio_output@@AAE_NXZ 0044c1a0 f i libucrtd:output.obj
 0001:0004b1d0       ?type_case_d@?$output_processor@DV?$string_output_adapter@D@__crt_stdio_output@@V?$positional_parameter_base@DV?$string_output_adapter@D@__crt_stdio_output@@@2@@__crt_stdio_output@@AAE_NXZ 0044c1d0 f i libucrtd:output.obj
 0001:0004b200       ?type_case_d@?$output_processor@DV?$string_output_adapter@D@__crt_stdio_output@@V?$standard_base@DV?$string_output_adapter@D@__crt_stdio_output@@@2@@__crt_stdio_output@@AAE_NXZ 0044c200 f i libucrtd:output.obj
 0001:0004b230       ?type_case_d@?$output_processor@_WV?$stream_output_adapter@_W@__crt_stdio_output@@V?$format_validation_base@_WV?$stream_output_adapter@_W@__crt_stdio_output@@@2@@__crt_stdio_output@@AAE_NXZ 0044c230 f i libucrtd:output.obj
 0001:0004b260       ?type_case_d@?$output_processor@_WV?$stream_output_adapter@_W@__crt_stdio_output@@V?$positional_parameter_base@_WV?$stream_output_adapter@_W@__crt_stdio_output@@@2@@__crt_stdio_output@@AAE_NXZ 0044c260 f i libucrtd:output.obj
 0001:0004b290       ?type_case_d@?$output_processor@_WV?$stream_output_adapter@_W@__crt_stdio_output@@V?$standard_base@_WV?$stream_output_adapter@_W@__crt_stdio_output@@@2@@__crt_stdio_output@@AAE_NXZ 0044c290 f i libucrtd:output.obj
 0001:0004b2c0       ?type_case_d@?$output_processor@_WV?$string_output_adapter@_W@__crt_stdio_output@@V?$format_validation_base@_WV?$string_output_adapter@_W@__crt_stdio_output@@@2@@__crt_stdio_output@@AAE_NXZ 0044c2c0 f i libucrtd:output.obj
 0001:0004b2f0       ?type_case_d@?$output_processor@_WV?$string_output_adapter@_W@__crt_stdio_output@@V?$positional_parameter_base@_WV?$string_output_adapter@_W@__crt_stdio_output@@@2@@__crt_stdio_output@@AAE_NXZ 0044c2f0 f i libucrtd:output.obj
 0001:0004b320       ?type_case_d@?$output_processor@_WV?$string_output_adapter@_W@__crt_stdio_output@@V?$standard_base@_WV?$string_output_adapter@_W@__crt_stdio_output@@@2@@__crt_stdio_output@@AAE_NXZ 0044c320 f i libucrtd:output.obj
 0001:0004b350       ?type_case_integer@?$output_processor@DV?$stream_output_adapter@D@__crt_stdio_output@@V?$format_validation_base@DV?$stream_output_adapter@D@__crt_stdio_output@@@2@@__crt_stdio_output@@AAE_NI_N@Z 0044c350 f i libucrtd:output.obj
 0001:0004b760       ?type_case_integer@?$output_processor@DV?$stream_output_adapter@D@__crt_stdio_output@@V?$positional_parameter_base@DV?$stream_output_adapter@D@__crt_stdio_output@@@2@@__crt_stdio_output@@AAE_NI_N@Z 0044c760 f i libucrtd:output.obj
 0001:0004bb70       ?type_case_integer@?$output_processor@DV?$stream_output_adapter@D@__crt_stdio_output@@V?$standard_base@DV?$stream_output_adapter@D@__crt_stdio_output@@@2@@__crt_stdio_output@@AAE_NI_N@Z 0044cb70 f i libucrtd:output.obj
 0001:0004bf80       ?type_case_integer@?$output_processor@DV?$string_output_adapter@D@__crt_stdio_output@@V?$format_validation_base@DV?$string_output_adapter@D@__crt_stdio_output@@@2@@__crt_stdio_output@@AAE_NI_N@Z 0044cf80 f i libucrtd:output.obj
 0001:0004c390       ?type_case_integer@?$output_processor@DV?$string_output_adapter@D@__crt_stdio_output@@V?$positional_parameter_base@DV?$string_output_adapter@D@__crt_stdio_output@@@2@@__crt_stdio_output@@AAE_NI_N@Z 0044d390 f i libucrtd:output.obj
 0001:0004c7a0       ?type_case_integer@?$output_processor@DV?$string_output_adapter@D@__crt_stdio_output@@V?$standard_base@DV?$string_output_adapter@D@__crt_stdio_output@@@2@@__crt_stdio_output@@AAE_NI_N@Z 0044d7a0 f i libucrtd:output.obj
 0001:0004cbb0       ?type_case_integer@?$output_processor@_WV?$stream_output_adapter@_W@__crt_stdio_output@@V?$format_validation_base@_WV?$stream_output_adapter@_W@__crt_stdio_output@@@2@@__crt_stdio_output@@AAE_NI_N@Z 0044dbb0 f i libucrtd:output.obj
 0001:0004cfc0       ?type_case_integer@?$output_processor@_WV?$stream_output_adapter@_W@__crt_stdio_output@@V?$positional_parameter_base@_WV?$stream_output_adapter@_W@__crt_stdio_output@@@2@@__crt_stdio_output@@AAE_NI_N@Z 0044dfc0 f i libucrtd:output.obj
 0001:0004d3d0       ?type_case_integer@?$output_processor@_WV?$stream_output_adapter@_W@__crt_stdio_output@@V?$standard_base@_WV?$stream_output_adapter@_W@__crt_stdio_output@@@2@@__crt_stdio_output@@AAE_NI_N@Z 0044e3d0 f i libucrtd:output.obj
 0001:0004d7e0       ?type_case_integer@?$output_processor@_WV?$string_output_adapter@_W@__crt_stdio_output@@V?$format_validation_base@_WV?$string_output_adapter@_W@__crt_stdio_output@@@2@@__crt_stdio_output@@AAE_NI_N@Z 0044e7e0 f i libucrtd:output.obj
 0001:0004dbf0       ?type_case_integer@?$output_processor@_WV?$string_output_adapter@_W@__crt_stdio_output@@V?$positional_parameter_base@_WV?$string_output_adapter@_W@__crt_stdio_output@@@2@@__crt_stdio_output@@AAE_NI_N@Z 0044ebf0 f i libucrtd:output.obj
 0001:0004e000       ?type_case_integer@?$output_processor@_WV?$string_output_adapter@_W@__crt_stdio_output@@V?$standard_base@_WV?$string_output_adapter@_W@__crt_stdio_output@@@2@@__crt_stdio_output@@AAE_NI_N@Z 0044f000 f i libucrtd:output.obj
 0001:0004e410       ?type_case_n@?$output_processor@DV?$stream_output_adapter@D@__crt_stdio_output@@V?$format_validation_base@DV?$stream_output_adapter@D@__crt_stdio_output@@@2@@__crt_stdio_output@@AAE_NXZ 0044f410 f i libucrtd:output.obj
 0001:0004e680       ?type_case_n@?$output_processor@DV?$stream_output_adapter@D@__crt_stdio_output@@V?$positional_parameter_base@DV?$stream_output_adapter@D@__crt_stdio_output@@@2@@__crt_stdio_output@@AAE_NXZ 0044f680 f i libucrtd:output.obj
 0001:0004e8f0       ?type_case_n@?$output_processor@DV?$stream_output_adapter@D@__crt_stdio_output@@V?$standard_base@DV?$stream_output_adapter@D@__crt_stdio_output@@@2@@__crt_stdio_output@@AAE_NXZ 0044f8f0 f i libucrtd:output.obj
 0001:0004eb60       ?type_case_n@?$output_processor@DV?$string_output_adapter@D@__crt_stdio_output@@V?$format_validation_base@DV?$string_output_adapter@D@__crt_stdio_output@@@2@@__crt_stdio_output@@AAE_NXZ 0044fb60 f i libucrtd:output.obj
 0001:0004edd0       ?type_case_n@?$output_processor@DV?$string_output_adapter@D@__crt_stdio_output@@V?$positional_parameter_base@DV?$string_output_adapter@D@__crt_stdio_output@@@2@@__crt_stdio_output@@AAE_NXZ 0044fdd0 f i libucrtd:output.obj
 0001:0004f040       ?type_case_n@?$output_processor@DV?$string_output_adapter@D@__crt_stdio_output@@V?$standard_base@DV?$string_output_adapter@D@__crt_stdio_output@@@2@@__crt_stdio_output@@AAE_NXZ 00450040 f i libucrtd:output.obj
 0001:0004f2b0       ?type_case_n@?$output_processor@_WV?$stream_output_adapter@_W@__crt_stdio_output@@V?$format_validation_base@_WV?$stream_output_adapter@_W@__crt_stdio_output@@@2@@__crt_stdio_output@@AAE_NXZ 004502b0 f i libucrtd:output.obj
 0001:0004f520       ?type_case_n@?$output_processor@_WV?$stream_output_adapter@_W@__crt_stdio_output@@V?$positional_parameter_base@_WV?$stream_output_adapter@_W@__crt_stdio_output@@@2@@__crt_stdio_output@@AAE_NXZ 00450520 f i libucrtd:output.obj
 0001:0004f790       ?type_case_n@?$output_processor@_WV?$stream_output_adapter@_W@__crt_stdio_output@@V?$standard_base@_WV?$stream_output_adapter@_W@__crt_stdio_output@@@2@@__crt_stdio_output@@AAE_NXZ 00450790 f i libucrtd:output.obj
 0001:0004fa00       ?type_case_n@?$output_processor@_WV?$string_output_adapter@_W@__crt_stdio_output@@V?$format_validation_base@_WV?$string_output_adapter@_W@__crt_stdio_output@@@2@@__crt_stdio_output@@AAE_NXZ 00450a00 f i libucrtd:output.obj
 0001:0004fc70       ?type_case_n@?$output_processor@_WV?$string_output_adapter@_W@__crt_stdio_output@@V?$positional_parameter_base@_WV?$string_output_adapter@_W@__crt_stdio_output@@@2@@__crt_stdio_output@@AAE_NXZ 00450c70 f i libucrtd:output.obj
 0001:0004fee0       ?type_case_n@?$output_processor@_WV?$string_output_adapter@_W@__crt_stdio_output@@V?$standard_base@_WV?$string_output_adapter@_W@__crt_stdio_output@@@2@@__crt_stdio_output@@AAE_NXZ 00450ee0 f i libucrtd:output.obj
 0001:00050150       ?type_case_o@?$output_processor@DV?$stream_output_adapter@D@__crt_stdio_output@@V?$format_validation_base@DV?$stream_output_adapter@D@__crt_stdio_output@@@2@@__crt_stdio_output@@AAE_NXZ 00451150 f i libucrtd:output.obj
 0001:000501a0       ?type_case_o@?$output_processor@DV?$stream_output_adapter@D@__crt_stdio_output@@V?$positional_parameter_base@DV?$stream_output_adapter@D@__crt_stdio_output@@@2@@__crt_stdio_output@@AAE_NXZ 004511a0 f i libucrtd:output.obj
 0001:000501f0       ?type_case_o@?$output_processor@DV?$stream_output_adapter@D@__crt_stdio_output@@V?$standard_base@DV?$stream_output_adapter@D@__crt_stdio_output@@@2@@__crt_stdio_output@@AAE_NXZ 004511f0 f i libucrtd:output.obj
 0001:00050240       ?type_case_o@?$output_processor@DV?$string_output_adapter@D@__crt_stdio_output@@V?$format_validation_base@DV?$string_output_adapter@D@__crt_stdio_output@@@2@@__crt_stdio_output@@AAE_NXZ 00451240 f i libucrtd:output.obj
 0001:00050290       ?type_case_o@?$output_processor@DV?$string_output_adapter@D@__crt_stdio_output@@V?$positional_parameter_base@DV?$string_output_adapter@D@__crt_stdio_output@@@2@@__crt_stdio_output@@AAE_NXZ 00451290 f i libucrtd:output.obj
 0001:000502e0       ?type_case_o@?$output_processor@DV?$string_output_adapter@D@__crt_stdio_output@@V?$standard_base@DV?$string_output_adapter@D@__crt_stdio_output@@@2@@__crt_stdio_output@@AAE_NXZ 004512e0 f i libucrtd:output.obj
 0001:00050330       ?type_case_o@?$output_processor@_WV?$stream_output_adapter@_W@__crt_stdio_output@@V?$format_validation_base@_WV?$stream_output_adapter@_W@__crt_stdio_output@@@2@@__crt_stdio_output@@AAE_NXZ 00451330 f i libucrtd:output.obj
 0001:00050380       ?type_case_o@?$output_processor@_WV?$stream_output_adapter@_W@__crt_stdio_output@@V?$positional_parameter_base@_WV?$stream_output_adapter@_W@__crt_stdio_output@@@2@@__crt_stdio_output@@AAE_NXZ 00451380 f i libucrtd:output.obj
 0001:000503d0       ?type_case_o@?$output_processor@_WV?$stream_output_adapter@_W@__crt_stdio_output@@V?$standard_base@_WV?$stream_output_adapter@_W@__crt_stdio_output@@@2@@__crt_stdio_output@@AAE_NXZ 004513d0 f i libucrtd:output.obj
 0001:00050420       ?type_case_o@?$output_processor@_WV?$string_output_adapter@_W@__crt_stdio_output@@V?$format_validation_base@_WV?$string_output_adapter@_W@__crt_stdio_output@@@2@@__crt_stdio_output@@AAE_NXZ 00451420 f i libucrtd:output.obj
 0001:00050470       ?type_case_o@?$output_processor@_WV?$string_output_adapter@_W@__crt_stdio_output@@V?$positional_parameter_base@_WV?$string_output_adapter@_W@__crt_stdio_output@@@2@@__crt_stdio_output@@AAE_NXZ 00451470 f i libucrtd:output.obj
 0001:000504c0       ?type_case_o@?$output_processor@_WV?$string_output_adapter@_W@__crt_stdio_output@@V?$standard_base@_WV?$string_output_adapter@_W@__crt_stdio_output@@@2@@__crt_stdio_output@@AAE_NXZ 004514c0 f i libucrtd:output.obj
 0001:00050510       ?type_case_p@?$output_processor@DV?$stream_output_adapter@D@__crt_stdio_output@@V?$format_validation_base@DV?$stream_output_adapter@D@__crt_stdio_output@@@2@@__crt_stdio_output@@AAE_NXZ 00451510 f i libucrtd:output.obj
 0001:00050550       ?type_case_p@?$output_processor@DV?$stream_output_adapter@D@__crt_stdio_output@@V?$positional_parameter_base@DV?$stream_output_adapter@D@__crt_stdio_output@@@2@@__crt_stdio_output@@AAE_NXZ 00451550 f i libucrtd:output.obj
 0001:00050590       ?type_case_p@?$output_processor@DV?$stream_output_adapter@D@__crt_stdio_output@@V?$standard_base@DV?$stream_output_adapter@D@__crt_stdio_output@@@2@@__crt_stdio_output@@AAE_NXZ 00451590 f i libucrtd:output.obj
 0001:000505d0       ?type_case_p@?$output_processor@DV?$string_output_adapter@D@__crt_stdio_output@@V?$format_validation_base@DV?$string_output_adapter@D@__crt_stdio_output@@@2@@__crt_stdio_output@@AAE_NXZ 004515d0 f i libucrtd:output.obj
 0001:00050610       ?type_case_p@?$output_processor@DV?$string_output_adapter@D@__crt_stdio_output@@V?$positional_parameter_base@DV?$string_output_adapter@D@__crt_stdio_output@@@2@@__crt_stdio_output@@AAE_NXZ 00451610 f i libucrtd:output.obj
 0001:00050650       ?type_case_p@?$output_processor@DV?$string_output_adapter@D@__crt_stdio_output@@V?$standard_base@DV?$string_output_adapter@D@__crt_stdio_output@@@2@@__crt_stdio_output@@AAE_NXZ 00451650 f i libucrtd:output.obj
 0001:00050690       ?type_case_p@?$output_processor@_WV?$stream_output_adapter@_W@__crt_stdio_output@@V?$format_validation_base@_WV?$stream_output_adapter@_W@__crt_stdio_output@@@2@@__crt_stdio_output@@AAE_NXZ 00451690 f i libucrtd:output.obj
 0001:000506d0       ?type_case_p@?$output_processor@_WV?$stream_output_adapter@_W@__crt_stdio_output@@V?$positional_parameter_base@_WV?$stream_output_adapter@_W@__crt_stdio_output@@@2@@__crt_stdio_output@@AAE_NXZ 004516d0 f i libucrtd:output.obj
 0001:00050710       ?type_case_p@?$output_processor@_WV?$stream_output_adapter@_W@__crt_stdio_output@@V?$standard_base@_WV?$stream_output_adapter@_W@__crt_stdio_output@@@2@@__crt_stdio_output@@AAE_NXZ 00451710 f i libucrtd:output.obj
 0001:00050750       ?type_case_p@?$output_processor@_WV?$string_output_adapter@_W@__crt_stdio_output@@V?$format_validation_base@_WV?$string_output_adapter@_W@__crt_stdio_output@@@2@@__crt_stdio_output@@AAE_NXZ 00451750 f i libucrtd:output.obj
 0001:00050790       ?type_case_p@?$output_processor@_WV?$string_output_adapter@_W@__crt_stdio_output@@V?$positional_parameter_base@_WV?$string_output_adapter@_W@__crt_stdio_output@@@2@@__crt_stdio_output@@AAE_NXZ 00451790 f i libucrtd:output.obj
 0001:000507d0       ?type_case_p@?$output_processor@_WV?$string_output_adapter@_W@__crt_stdio_output@@V?$standard_base@_WV?$string_output_adapter@_W@__crt_stdio_output@@@2@@__crt_stdio_output@@AAE_NXZ 004517d0 f i libucrtd:output.obj
 0001:00050810       ?type_case_s@?$output_processor@DV?$stream_output_adapter@D@__crt_stdio_output@@V?$format_validation_base@DV?$stream_output_adapter@D@__crt_stdio_output@@@2@@__crt_stdio_output@@AAE_NXZ 00451810 f i libucrtd:output.obj
 0001:00050940       ?type_case_s@?$output_processor@DV?$stream_output_adapter@D@__crt_stdio_output@@V?$positional_parameter_base@DV?$stream_output_adapter@D@__crt_stdio_output@@@2@@__crt_stdio_output@@AAE_NXZ 00451940 f i libucrtd:output.obj
 0001:00050a70       ?type_case_s@?$output_processor@DV?$stream_output_adapter@D@__crt_stdio_output@@V?$standard_base@DV?$stream_output_adapter@D@__crt_stdio_output@@@2@@__crt_stdio_output@@AAE_NXZ 00451a70 f i libucrtd:output.obj
 0001:00050ba0       ?type_case_s@?$output_processor@DV?$string_output_adapter@D@__crt_stdio_output@@V?$format_validation_base@DV?$string_output_adapter@D@__crt_stdio_output@@@2@@__crt_stdio_output@@AAE_NXZ 00451ba0 f i libucrtd:output.obj
 0001:00050cd0       ?type_case_s@?$output_processor@DV?$string_output_adapter@D@__crt_stdio_output@@V?$positional_parameter_base@DV?$string_output_adapter@D@__crt_stdio_output@@@2@@__crt_stdio_output@@AAE_NXZ 00451cd0 f i libucrtd:output.obj
 0001:00050e00       ?type_case_s@?$output_processor@DV?$string_output_adapter@D@__crt_stdio_output@@V?$standard_base@DV?$string_output_adapter@D@__crt_stdio_output@@@2@@__crt_stdio_output@@AAE_NXZ 00451e00 f i libucrtd:output.obj
 0001:00050f30       ?type_case_s@?$output_processor@_WV?$stream_output_adapter@_W@__crt_stdio_output@@V?$format_validation_base@_WV?$stream_output_adapter@_W@__crt_stdio_output@@@2@@__crt_stdio_output@@AAE_NXZ 00451f30 f i libucrtd:output.obj
 0001:00051060       ?type_case_s@?$output_processor@_WV?$stream_output_adapter@_W@__crt_stdio_output@@V?$positional_parameter_base@_WV?$stream_output_adapter@_W@__crt_stdio_output@@@2@@__crt_stdio_output@@AAE_NXZ 00452060 f i libucrtd:output.obj
 0001:00051190       ?type_case_s@?$output_processor@_WV?$stream_output_adapter@_W@__crt_stdio_output@@V?$standard_base@_WV?$stream_output_adapter@_W@__crt_stdio_output@@@2@@__crt_stdio_output@@AAE_NXZ 00452190 f i libucrtd:output.obj
 0001:000512c0       ?type_case_s@?$output_processor@_WV?$string_output_adapter@_W@__crt_stdio_output@@V?$format_validation_base@_WV?$string_output_adapter@_W@__crt_stdio_output@@@2@@__crt_stdio_output@@AAE_NXZ 004522c0 f i libucrtd:output.obj
 0001:000513f0       ?type_case_s@?$output_processor@_WV?$string_output_adapter@_W@__crt_stdio_output@@V?$positional_parameter_base@_WV?$string_output_adapter@_W@__crt_stdio_output@@@2@@__crt_stdio_output@@AAE_NXZ 004523f0 f i libucrtd:output.obj
 0001:00051520       ?type_case_s@?$output_processor@_WV?$string_output_adapter@_W@__crt_stdio_output@@V?$standard_base@_WV?$string_output_adapter@_W@__crt_stdio_output@@@2@@__crt_stdio_output@@AAE_NXZ 00452520 f i libucrtd:output.obj
 0001:00051650       ?type_case_s_compute_narrow_string_length@?$output_processor@DV?$stream_output_adapter@D@__crt_stdio_output@@V?$format_validation_base@DV?$stream_output_adapter@D@__crt_stdio_output@@@2@@__crt_stdio_output@@ABEHHD@Z 00452650 f i libucrtd:output.obj
 0001:00051680       ?type_case_s_compute_narrow_string_length@?$output_processor@DV?$stream_output_adapter@D@__crt_stdio_output@@V?$positional_parameter_base@DV?$stream_output_adapter@D@__crt_stdio_output@@@2@@__crt_stdio_output@@ABEHHD@Z 00452680 f i libucrtd:output.obj
 0001:000516b0       ?type_case_s_compute_narrow_string_length@?$output_processor@DV?$stream_output_adapter@D@__crt_stdio_output@@V?$standard_base@DV?$stream_output_adapter@D@__crt_stdio_output@@@2@@__crt_stdio_output@@ABEHHD@Z 004526b0 f i libucrtd:output.obj
 0001:000516e0       ?type_case_s_compute_narrow_string_length@?$output_processor@DV?$string_output_adapter@D@__crt_stdio_output@@V?$format_validation_base@DV?$string_output_adapter@D@__crt_stdio_output@@@2@@__crt_stdio_output@@ABEHHD@Z 004526e0 f i libucrtd:output.obj
 0001:00051710       ?type_case_s_compute_narrow_string_length@?$output_processor@DV?$string_output_adapter@D@__crt_stdio_output@@V?$positional_parameter_base@DV?$string_output_adapter@D@__crt_stdio_output@@@2@@__crt_stdio_output@@ABEHHD@Z 00452710 f i libucrtd:output.obj
 0001:00051740       ?type_case_s_compute_narrow_string_length@?$output_processor@DV?$string_output_adapter@D@__crt_stdio_output@@V?$standard_base@DV?$string_output_adapter@D@__crt_stdio_output@@@2@@__crt_stdio_output@@ABEHHD@Z 00452740 f i libucrtd:output.obj
 0001:00051770       ?type_case_s_compute_narrow_string_length@?$output_processor@_WV?$stream_output_adapter@_W@__crt_stdio_output@@V?$format_validation_base@_WV?$stream_output_adapter@_W@__crt_stdio_output@@@2@@__crt_stdio_output@@ABEHH_W@Z 00452770 f i libucrtd:output.obj
 0001:00051800       ?type_case_s_compute_narrow_string_length@?$output_processor@_WV?$stream_output_adapter@_W@__crt_stdio_output@@V?$positional_parameter_base@_WV?$stream_output_adapter@_W@__crt_stdio_output@@@2@@__crt_stdio_output@@ABEHH_W@Z 00452800 f i libucrtd:output.obj
 0001:00051890       ?type_case_s_compute_narrow_string_length@?$output_processor@_WV?$stream_output_adapter@_W@__crt_stdio_output@@V?$standard_base@_WV?$stream_output_adapter@_W@__crt_stdio_output@@@2@@__crt_stdio_output@@ABEHH_W@Z 00452890 f i libucrtd:output.obj
 0001:00051920       ?type_case_s_compute_narrow_string_length@?$output_processor@_WV?$string_output_adapter@_W@__crt_stdio_output@@V?$format_validation_base@_WV?$string_output_adapter@_W@__crt_stdio_output@@@2@@__crt_stdio_output@@ABEHH_W@Z 00452920 f i libucrtd:output.obj
 0001:000519b0       ?type_case_s_compute_narrow_string_length@?$output_processor@_WV?$string_output_adapter@_W@__crt_stdio_output@@V?$positional_parameter_base@_WV?$string_output_adapter@_W@__crt_stdio_output@@@2@@__crt_stdio_output@@ABEHH_W@Z 004529b0 f i libucrtd:output.obj
 0001:00051a40       ?type_case_s_compute_narrow_string_length@?$output_processor@_WV?$string_output_adapter@_W@__crt_stdio_output@@V?$standard_base@_WV?$string_output_adapter@_W@__crt_stdio_output@@@2@@__crt_stdio_output@@ABEHH_W@Z 00452a40 f i libucrtd:output.obj
 0001:00051ad0       ?type_case_u@?$output_processor@DV?$stream_output_adapter@D@__crt_stdio_output@@V?$format_validation_base@DV?$stream_output_adapter@D@__crt_stdio_output@@@2@@__crt_stdio_output@@AAE_NXZ 00452ad0 f i libucrtd:output.obj
 0001:00051af0       ?type_case_u@?$output_processor@DV?$stream_output_adapter@D@__crt_stdio_output@@V?$positional_parameter_base@DV?$stream_output_adapter@D@__crt_stdio_output@@@2@@__crt_stdio_output@@AAE_NXZ 00452af0 f i libucrtd:output.obj
 0001:00051b10       ?type_case_u@?$output_processor@DV?$stream_output_adapter@D@__crt_stdio_output@@V?$standard_base@DV?$stream_output_adapter@D@__crt_stdio_output@@@2@@__crt_stdio_output@@AAE_NXZ 00452b10 f i libucrtd:output.obj
 0001:00051b30       ?type_case_u@?$output_processor@DV?$string_output_adapter@D@__crt_stdio_output@@V?$format_validation_base@DV?$string_output_adapter@D@__crt_stdio_output@@@2@@__crt_stdio_output@@AAE_NXZ 00452b30 f i libucrtd:output.obj
 0001:00051b50       ?type_case_u@?$output_processor@DV?$string_output_adapter@D@__crt_stdio_output@@V?$positional_parameter_base@DV?$string_output_adapter@D@__crt_stdio_output@@@2@@__crt_stdio_output@@AAE_NXZ 00452b50 f i libucrtd:output.obj
 0001:00051b70       ?type_case_u@?$output_processor@DV?$string_output_adapter@D@__crt_stdio_output@@V?$standard_base@DV?$string_output_adapter@D@__crt_stdio_output@@@2@@__crt_stdio_output@@AAE_NXZ 00452b70 f i libucrtd:output.obj
 0001:00051b90       ?type_case_u@?$output_processor@_WV?$stream_output_adapter@_W@__crt_stdio_output@@V?$format_validation_base@_WV?$stream_output_adapter@_W@__crt_stdio_output@@@2@@__crt_stdio_output@@AAE_NXZ 00452b90 f i libucrtd:output.obj
 0001:00051bb0       ?type_case_u@?$output_processor@_WV?$stream_output_adapter@_W@__crt_stdio_output@@V?$positional_parameter_base@_WV?$stream_output_adapter@_W@__crt_stdio_output@@@2@@__crt_stdio_output@@AAE_NXZ 00452bb0 f i libucrtd:output.obj
 0001:00051bd0       ?type_case_u@?$output_processor@_WV?$stream_output_adapter@_W@__crt_stdio_output@@V?$standard_base@_WV?$stream_output_adapter@_W@__crt_stdio_output@@@2@@__crt_stdio_output@@AAE_NXZ 00452bd0 f i libucrtd:output.obj
 0001:00051bf0       ?type_case_u@?$output_processor@_WV?$string_output_adapter@_W@__crt_stdio_output@@V?$format_validation_base@_WV?$string_output_adapter@_W@__crt_stdio_output@@@2@@__crt_stdio_output@@AAE_NXZ 00452bf0 f i libucrtd:output.obj
 0001:00051c10       ?type_case_u@?$output_processor@_WV?$string_output_adapter@_W@__crt_stdio_output@@V?$positional_parameter_base@_WV?$string_output_adapter@_W@__crt_stdio_output@@@2@@__crt_stdio_output@@AAE_NXZ 00452c10 f i libucrtd:output.obj
 0001:00051c30       ?type_case_u@?$output_processor@_WV?$string_output_adapter@_W@__crt_stdio_output@@V?$standard_base@_WV?$string_output_adapter@_W@__crt_stdio_output@@@2@@__crt_stdio_output@@AAE_NXZ 00452c30 f i libucrtd:output.obj
 0001:00051c50       ?type_case_x@?$output_processor@DV?$stream_output_adapter@D@__crt_stdio_output@@V?$format_validation_base@DV?$stream_output_adapter@D@__crt_stdio_output@@@2@@__crt_stdio_output@@AAE_NXZ 00452c50 f i libucrtd:output.obj
 0001:00051c70       ?type_case_x@?$output_processor@DV?$stream_output_adapter@D@__crt_stdio_output@@V?$positional_parameter_base@DV?$stream_output_adapter@D@__crt_stdio_output@@@2@@__crt_stdio_output@@AAE_NXZ 00452c70 f i libucrtd:output.obj
 0001:00051c90       ?type_case_x@?$output_processor@DV?$stream_output_adapter@D@__crt_stdio_output@@V?$standard_base@DV?$stream_output_adapter@D@__crt_stdio_output@@@2@@__crt_stdio_output@@AAE_NXZ 00452c90 f i libucrtd:output.obj
 0001:00051cb0       ?type_case_x@?$output_processor@DV?$string_output_adapter@D@__crt_stdio_output@@V?$format_validation_base@DV?$string_output_adapter@D@__crt_stdio_output@@@2@@__crt_stdio_output@@AAE_NXZ 00452cb0 f i libucrtd:output.obj
 0001:00051cd0       ?type_case_x@?$output_processor@DV?$string_output_adapter@D@__crt_stdio_output@@V?$positional_parameter_base@DV?$string_output_adapter@D@__crt_stdio_output@@@2@@__crt_stdio_output@@AAE_NXZ 00452cd0 f i libucrtd:output.obj
 0001:00051cf0       ?type_case_x@?$output_processor@DV?$string_output_adapter@D@__crt_stdio_output@@V?$standard_base@DV?$string_output_adapter@D@__crt_stdio_output@@@2@@__crt_stdio_output@@AAE_NXZ 00452cf0 f i libucrtd:output.obj
 0001:00051d10       ?type_case_x@?$output_processor@_WV?$stream_output_adapter@_W@__crt_stdio_output@@V?$format_validation_base@_WV?$stream_output_adapter@_W@__crt_stdio_output@@@2@@__crt_stdio_output@@AAE_NXZ 00452d10 f i libucrtd:output.obj
 0001:00051d30       ?type_case_x@?$output_processor@_WV?$stream_output_adapter@_W@__crt_stdio_output@@V?$positional_parameter_base@_WV?$stream_output_adapter@_W@__crt_stdio_output@@@2@@__crt_stdio_output@@AAE_NXZ 00452d30 f i libucrtd:output.obj
 0001:00051d50       ?type_case_x@?$output_processor@_WV?$stream_output_adapter@_W@__crt_stdio_output@@V?$standard_base@_WV?$stream_output_adapter@_W@__crt_stdio_output@@@2@@__crt_stdio_output@@AAE_NXZ 00452d50 f i libucrtd:output.obj
 0001:00051d70       ?type_case_x@?$output_processor@_WV?$string_output_adapter@_W@__crt_stdio_output@@V?$format_validation_base@_WV?$string_output_adapter@_W@__crt_stdio_output@@@2@@__crt_stdio_output@@AAE_NXZ 00452d70 f i libucrtd:output.obj
 0001:00051d90       ?type_case_x@?$output_processor@_WV?$string_output_adapter@_W@__crt_stdio_output@@V?$positional_parameter_base@_WV?$string_output_adapter@_W@__crt_stdio_output@@@2@@__crt_stdio_output@@AAE_NXZ 00452d90 f i libucrtd:output.obj
 0001:00051db0       ?type_case_x@?$output_processor@_WV?$string_output_adapter@_W@__crt_stdio_output@@V?$standard_base@_WV?$string_output_adapter@_W@__crt_stdio_output@@@2@@__crt_stdio_output@@AAE_NXZ 00452db0 f i libucrtd:output.obj
 0001:00051dd0       ?unset_flag@?$output_processor@DV?$stream_output_adapter@D@__crt_stdio_output@@V?$format_validation_base@DV?$stream_output_adapter@D@__crt_stdio_output@@@2@@__crt_stdio_output@@AAEXI@Z 00452dd0 f i libucrtd:output.obj
 0001:00051e00       ?unset_flag@?$output_processor@DV?$stream_output_adapter@D@__crt_stdio_output@@V?$positional_parameter_base@DV?$stream_output_adapter@D@__crt_stdio_output@@@2@@__crt_stdio_output@@AAEXI@Z 00452e00 f i libucrtd:output.obj
 0001:00051e30       ?unset_flag@?$output_processor@DV?$stream_output_adapter@D@__crt_stdio_output@@V?$standard_base@DV?$stream_output_adapter@D@__crt_stdio_output@@@2@@__crt_stdio_output@@AAEXI@Z 00452e30 f i libucrtd:output.obj
 0001:00051e60       ?unset_flag@?$output_processor@DV?$string_output_adapter@D@__crt_stdio_output@@V?$format_validation_base@DV?$string_output_adapter@D@__crt_stdio_output@@@2@@__crt_stdio_output@@AAEXI@Z 00452e60 f i libucrtd:output.obj
 0001:00051e90       ?unset_flag@?$output_processor@DV?$string_output_adapter@D@__crt_stdio_output@@V?$positional_parameter_base@DV?$string_output_adapter@D@__crt_stdio_output@@@2@@__crt_stdio_output@@AAEXI@Z 00452e90 f i libucrtd:output.obj
 0001:00051ec0       ?unset_flag@?$output_processor@DV?$string_output_adapter@D@__crt_stdio_output@@V?$standard_base@DV?$string_output_adapter@D@__crt_stdio_output@@@2@@__crt_stdio_output@@AAEXI@Z 00452ec0 f i libucrtd:output.obj
 0001:00051ef0       ?unset_flag@?$output_processor@_WV?$stream_output_adapter@_W@__crt_stdio_output@@V?$format_validation_base@_WV?$stream_output_adapter@_W@__crt_stdio_output@@@2@@__crt_stdio_output@@AAEXI@Z 00452ef0 f i libucrtd:output.obj
 0001:00051f20       ?unset_flag@?$output_processor@_WV?$stream_output_adapter@_W@__crt_stdio_output@@V?$positional_parameter_base@_WV?$stream_output_adapter@_W@__crt_stdio_output@@@2@@__crt_stdio_output@@AAEXI@Z 00452f20 f i libucrtd:output.obj
 0001:00051f50       ?unset_flag@?$output_processor@_WV?$stream_output_adapter@_W@__crt_stdio_output@@V?$standard_base@_WV?$stream_output_adapter@_W@__crt_stdio_output@@@2@@__crt_stdio_output@@AAEXI@Z 00452f50 f i libucrtd:output.obj
 0001:00051f80       ?unset_flag@?$output_processor@_WV?$string_output_adapter@_W@__crt_stdio_output@@V?$format_validation_base@_WV?$string_output_adapter@_W@__crt_stdio_output@@@2@@__crt_stdio_output@@AAEXI@Z 00452f80 f i libucrtd:output.obj
 0001:00051fb0       ?unset_flag@?$output_processor@_WV?$string_output_adapter@_W@__crt_stdio_output@@V?$positional_parameter_base@_WV?$string_output_adapter@_W@__crt_stdio_output@@@2@@__crt_stdio_output@@AAEXI@Z 00452fb0 f i libucrtd:output.obj
 0001:00051fe0       ?unset_flag@?$output_processor@_WV?$string_output_adapter@_W@__crt_stdio_output@@V?$standard_base@_WV?$string_output_adapter@_W@__crt_stdio_output@@@2@@__crt_stdio_output@@AAEXI@Z 00452fe0 f i libucrtd:output.obj
 0001:00052010       ?update_field_width@?$positional_parameter_base@DV?$stream_output_adapter@D@__crt_stdio_output@@@__crt_stdio_output@@IAE_NXZ 00453010 f i libucrtd:output.obj
 0001:000521f0       ?update_field_width@?$positional_parameter_base@DV?$string_output_adapter@D@__crt_stdio_output@@@__crt_stdio_output@@IAE_NXZ 004531f0 f i libucrtd:output.obj
 0001:000523d0       ?update_field_width@?$positional_parameter_base@_WV?$stream_output_adapter@_W@__crt_stdio_output@@@__crt_stdio_output@@IAE_NXZ 004533d0 f i libucrtd:output.obj
 0001:000525b0       ?update_field_width@?$positional_parameter_base@_WV?$string_output_adapter@_W@__crt_stdio_output@@@__crt_stdio_output@@IAE_NXZ 004535b0 f i libucrtd:output.obj
 0001:00052790       ?update_field_width@?$standard_base@DV?$stream_output_adapter@D@__crt_stdio_output@@@__crt_stdio_output@@IAE_NXZ 00453790 f i libucrtd:output.obj
 0001:000527c0       ?update_field_width@?$standard_base@DV?$string_output_adapter@D@__crt_stdio_output@@@__crt_stdio_output@@IAE_NXZ 004537c0 f i libucrtd:output.obj
 0001:000527f0       ?update_field_width@?$standard_base@_WV?$stream_output_adapter@_W@__crt_stdio_output@@@__crt_stdio_output@@IAE_NXZ 004537f0 f i libucrtd:output.obj
 0001:00052820       ?update_field_width@?$standard_base@_WV?$string_output_adapter@_W@__crt_stdio_output@@@__crt_stdio_output@@IAE_NXZ 00453820 f i libucrtd:output.obj
 0001:00052850       ?update_precision@?$positional_parameter_base@DV?$stream_output_adapter@D@__crt_stdio_output@@@__crt_stdio_output@@IAE_NXZ 00453850 f i libucrtd:output.obj
 0001:00052a30       ?update_precision@?$positional_parameter_base@DV?$string_output_adapter@D@__crt_stdio_output@@@__crt_stdio_output@@IAE_NXZ 00453a30 f i libucrtd:output.obj
 0001:00052c10       ?update_precision@?$positional_parameter_base@_WV?$stream_output_adapter@_W@__crt_stdio_output@@@__crt_stdio_output@@IAE_NXZ 00453c10 f i libucrtd:output.obj
 0001:00052df0       ?update_precision@?$positional_parameter_base@_WV?$string_output_adapter@_W@__crt_stdio_output@@@__crt_stdio_output@@IAE_NXZ 00453df0 f i libucrtd:output.obj
 0001:00052fd0       ?update_precision@?$standard_base@DV?$stream_output_adapter@D@__crt_stdio_output@@@__crt_stdio_output@@IAE_NXZ 00453fd0 f i libucrtd:output.obj
 0001:00053000       ?update_precision@?$standard_base@DV?$string_output_adapter@D@__crt_stdio_output@@@__crt_stdio_output@@IAE_NXZ 00454000 f i libucrtd:output.obj
 0001:00053030       ?update_precision@?$standard_base@_WV?$stream_output_adapter@_W@__crt_stdio_output@@@__crt_stdio_output@@IAE_NXZ 00454030 f i libucrtd:output.obj
 0001:00053060       ?update_precision@?$standard_base@_WV?$string_output_adapter@_W@__crt_stdio_output@@@__crt_stdio_output@@IAE_NXZ 00454060 f i libucrtd:output.obj
 0001:00053090       ?validate@?$stream_output_adapter@D@__crt_stdio_output@@QBE_NXZ 00454090 f i libucrtd:output.obj
 0001:00053160       ?validate@?$stream_output_adapter@_W@__crt_stdio_output@@QBE_NXZ 00454160 f i libucrtd:output.obj
 0001:00053230       ?validate@?$string_output_adapter@D@__crt_stdio_output@@QBE_NXZ 00454230 f i libucrtd:output.obj
 0001:000532f0       ?validate@?$string_output_adapter@_W@__crt_stdio_output@@QBE_NXZ 004542f0 f i libucrtd:output.obj
 0001:000533b0       ?validate_and_store_parameter_data@?$positional_parameter_base@DV?$stream_output_adapter@D@__crt_stdio_output@@@__crt_stdio_output@@AAE_NAAUparameter_data@12@W4parameter_type@12@DW4length_modifier@2@@Z 004543b0 f i libucrtd:output.obj
 0001:000534c0       ?validate_and_store_parameter_data@?$positional_parameter_base@DV?$string_output_adapter@D@__crt_stdio_output@@@__crt_stdio_output@@AAE_NAAUparameter_data@12@W4parameter_type@12@DW4length_modifier@2@@Z 004544c0 f i libucrtd:output.obj
 0001:000535d0       ?validate_and_store_parameter_data@?$positional_parameter_base@_WV?$stream_output_adapter@_W@__crt_stdio_output@@@__crt_stdio_output@@AAE_NAAUparameter_data@12@W4parameter_type@12@_WW4length_modifier@2@@Z 004545d0 f i libucrtd:output.obj
 0001:000536e0       ?validate_and_store_parameter_data@?$positional_parameter_base@_WV?$string_output_adapter@_W@__crt_stdio_output@@@__crt_stdio_output@@AAE_NAAUparameter_data@12@W4parameter_type@12@_WW4length_modifier@2@@Z 004546e0 f i libucrtd:output.obj
 0001:000537f0       ?validate_and_update_state_at_beginning_of_format_character@?$positional_parameter_base@DV?$stream_output_adapter@D@__crt_stdio_output@@@__crt_stdio_output@@IAE_NXZ 004547f0 f i libucrtd:output.obj
 0001:00053aa0       ?validate_and_update_state_at_beginning_of_format_character@?$positional_parameter_base@DV?$string_output_adapter@D@__crt_stdio_output@@@__crt_stdio_output@@IAE_NXZ 00454aa0 f i libucrtd:output.obj
 0001:00053d50       ?validate_and_update_state_at_beginning_of_format_character@?$positional_parameter_base@_WV?$stream_output_adapter@_W@__crt_stdio_output@@@__crt_stdio_output@@IAE_NXZ 00454d50 f i libucrtd:output.obj
 0001:00054000       ?validate_and_update_state_at_beginning_of_format_character@?$positional_parameter_base@_WV?$string_output_adapter@_W@__crt_stdio_output@@@__crt_stdio_output@@IAE_NXZ 00455000 f i libucrtd:output.obj
 0001:000542b0       ?validate_and_update_state_at_beginning_of_format_character@?$standard_base@DV?$stream_output_adapter@D@__crt_stdio_output@@@__crt_stdio_output@@IAE_NXZ 004552b0 f i libucrtd:output.obj
 0001:000542d0       ?validate_and_update_state_at_beginning_of_format_character@?$standard_base@DV?$string_output_adapter@D@__crt_stdio_output@@@__crt_stdio_output@@IAE_NXZ 004552d0 f i libucrtd:output.obj
 0001:000542f0       ?validate_and_update_state_at_beginning_of_format_character@?$standard_base@_WV?$stream_output_adapter@_W@__crt_stdio_output@@@__crt_stdio_output@@IAE_NXZ 004552f0 f i libucrtd:output.obj
 0001:00054310       ?validate_and_update_state_at_beginning_of_format_character@?$standard_base@_WV?$string_output_adapter@_W@__crt_stdio_output@@@__crt_stdio_output@@IAE_NXZ 00455310 f i libucrtd:output.obj
 0001:00054330       ?validate_and_update_state_at_end_of_format_string@?$format_validation_base@DV?$stream_output_adapter@D@__crt_stdio_output@@@__crt_stdio_output@@IBE_NXZ 00455330 f i libucrtd:output.obj
 0001:000543f0       ?validate_and_update_state_at_end_of_format_string@?$format_validation_base@DV?$string_output_adapter@D@__crt_stdio_output@@@__crt_stdio_output@@IBE_NXZ 004553f0 f i libucrtd:output.obj
 0001:000544b0       ?validate_and_update_state_at_end_of_format_string@?$format_validation_base@_WV?$stream_output_adapter@_W@__crt_stdio_output@@@__crt_stdio_output@@IBE_NXZ 004554b0 f i libucrtd:output.obj
 0001:00054570       ?validate_and_update_state_at_end_of_format_string@?$format_validation_base@_WV?$string_output_adapter@_W@__crt_stdio_output@@@__crt_stdio_output@@IBE_NXZ 00455570 f i libucrtd:output.obj
 0001:00054630       ?validate_and_update_state_at_end_of_format_string@?$positional_parameter_base@DV?$stream_output_adapter@D@__crt_stdio_output@@@__crt_stdio_output@@IAE_NXZ 00455630 f i libucrtd:output.obj
 0001:00054830       ?validate_and_update_state_at_end_of_format_string@?$positional_parameter_base@DV?$string_output_adapter@D@__crt_stdio_output@@@__crt_stdio_output@@IAE_NXZ 00455830 f i libucrtd:output.obj
 0001:00054a30       ?validate_and_update_state_at_end_of_format_string@?$positional_parameter_base@_WV?$stream_output_adapter@_W@__crt_stdio_output@@@__crt_stdio_output@@IAE_NXZ 00455a30 f i libucrtd:output.obj
 0001:00054c30       ?validate_and_update_state_at_end_of_format_string@?$positional_parameter_base@_WV?$string_output_adapter@_W@__crt_stdio_output@@@__crt_stdio_output@@IAE_NXZ 00455c30 f i libucrtd:output.obj
 0001:00054e30       ?validate_and_update_state_at_end_of_format_string@?$standard_base@DV?$stream_output_adapter@D@__crt_stdio_output@@@__crt_stdio_output@@IBE_NXZ 00455e30 f i libucrtd:output.obj
 0001:00054e50       ?validate_and_update_state_at_end_of_format_string@?$standard_base@DV?$string_output_adapter@D@__crt_stdio_output@@@__crt_stdio_output@@IBE_NXZ 00455e50 f i libucrtd:output.obj
 0001:00054e70       ?validate_and_update_state_at_end_of_format_string@?$standard_base@_WV?$stream_output_adapter@_W@__crt_stdio_output@@@__crt_stdio_output@@IBE_NXZ 00455e70 f i libucrtd:output.obj
 0001:00054e90       ?validate_and_update_state_at_end_of_format_string@?$standard_base@_WV?$string_output_adapter@_W@__crt_stdio_output@@@__crt_stdio_output@@IBE_NXZ 00455e90 f i libucrtd:output.obj
 0001:00054eb0       ?validate_state_for_type_case_a@?$positional_parameter_base@DV?$stream_output_adapter@D@__crt_stdio_output@@@__crt_stdio_output@@IAE_NXZ 00455eb0 f i libucrtd:output.obj
 0001:00054fe0       ?validate_state_for_type_case_a@?$positional_parameter_base@DV?$string_output_adapter@D@__crt_stdio_output@@@__crt_stdio_output@@IAE_NXZ 00455fe0 f i libucrtd:output.obj
 0001:00055110       ?validate_state_for_type_case_a@?$positional_parameter_base@_WV?$stream_output_adapter@_W@__crt_stdio_output@@@__crt_stdio_output@@IAE_NXZ 00456110 f i libucrtd:output.obj
 0001:00055240       ?validate_state_for_type_case_a@?$positional_parameter_base@_WV?$string_output_adapter@_W@__crt_stdio_output@@@__crt_stdio_output@@IAE_NXZ 00456240 f i libucrtd:output.obj
 0001:00055370       ?validate_state_for_type_case_a@?$standard_base@DV?$stream_output_adapter@D@__crt_stdio_output@@@__crt_stdio_output@@IBE_NXZ 00456370 f i libucrtd:output.obj
 0001:00055390       ?validate_state_for_type_case_a@?$standard_base@DV?$string_output_adapter@D@__crt_stdio_output@@@__crt_stdio_output@@IBE_NXZ 00456390 f i libucrtd:output.obj
 0001:000553b0       ?validate_state_for_type_case_a@?$standard_base@_WV?$stream_output_adapter@_W@__crt_stdio_output@@@__crt_stdio_output@@IBE_NXZ 004563b0 f i libucrtd:output.obj
 0001:000553d0       ?validate_state_for_type_case_a@?$standard_base@_WV?$string_output_adapter@_W@__crt_stdio_output@@@__crt_stdio_output@@IBE_NXZ 004563d0 f i libucrtd:output.obj
 0001:000553f0       ?validate_stream_is_ansi_if_required@?$__acrt_stdio_char_traits@D@@SA_NQAU_iobuf@@@Z 004563f0 f i libucrtd:output.obj
 0001:00055570       ?validate_stream_is_ansi_if_required@?$__acrt_stdio_char_traits@_W@@SA_NQAU_iobuf@@@Z 00456570 f i libucrtd:output.obj
 0001:00055580       ?wide_null_string@?$output_processor@DV?$stream_output_adapter@D@__crt_stdio_output@@V?$format_validation_base@DV?$stream_output_adapter@D@__crt_stdio_output@@@2@@__crt_stdio_output@@CAPA_WXZ 00456580 f i libucrtd:output.obj
 0001:00055590       ?wide_null_string@?$output_processor@DV?$stream_output_adapter@D@__crt_stdio_output@@V?$positional_parameter_base@DV?$stream_output_adapter@D@__crt_stdio_output@@@2@@__crt_stdio_output@@CAPA_WXZ 00456590 f i libucrtd:output.obj
 0001:000555a0       ?wide_null_string@?$output_processor@DV?$stream_output_adapter@D@__crt_stdio_output@@V?$standard_base@DV?$stream_output_adapter@D@__crt_stdio_output@@@2@@__crt_stdio_output@@CAPA_WXZ 004565a0 f i libucrtd:output.obj
 0001:000555b0       ?wide_null_string@?$output_processor@DV?$string_output_adapter@D@__crt_stdio_output@@V?$format_validation_base@DV?$string_output_adapter@D@__crt_stdio_output@@@2@@__crt_stdio_output@@CAPA_WXZ 004565b0 f i libucrtd:output.obj
 0001:000555c0       ?wide_null_string@?$output_processor@DV?$string_output_adapter@D@__crt_stdio_output@@V?$positional_parameter_base@DV?$string_output_adapter@D@__crt_stdio_output@@@2@@__crt_stdio_output@@CAPA_WXZ 004565c0 f i libucrtd:output.obj
 0001:000555d0       ?wide_null_string@?$output_processor@DV?$string_output_adapter@D@__crt_stdio_output@@V?$standard_base@DV?$string_output_adapter@D@__crt_stdio_output@@@2@@__crt_stdio_output@@CAPA_WXZ 004565d0 f i libucrtd:output.obj
 0001:000555e0       ?wide_null_string@?$output_processor@_WV?$stream_output_adapter@_W@__crt_stdio_output@@V?$format_validation_base@_WV?$stream_output_adapter@_W@__crt_stdio_output@@@2@@__crt_stdio_output@@CAPA_WXZ 004565e0 f i libucrtd:output.obj
 0001:000555f0       ?wide_null_string@?$output_processor@_WV?$stream_output_adapter@_W@__crt_stdio_output@@V?$positional_parameter_base@_WV?$stream_output_adapter@_W@__crt_stdio_output@@@2@@__crt_stdio_output@@CAPA_WXZ 004565f0 f i libucrtd:output.obj
 0001:00055600       ?wide_null_string@?$output_processor@_WV?$stream_output_adapter@_W@__crt_stdio_output@@V?$standard_base@_WV?$stream_output_adapter@_W@__crt_stdio_output@@@2@@__crt_stdio_output@@CAPA_WXZ 00456600 f i libucrtd:output.obj
 0001:00055610       ?wide_null_string@?$output_processor@_WV?$string_output_adapter@_W@__crt_stdio_output@@V?$format_validation_base@_WV?$string_output_adapter@_W@__crt_stdio_output@@@2@@__crt_stdio_output@@CAPA_WXZ 00456610 f i libucrtd:output.obj
 0001:00055620       ?wide_null_string@?$output_processor@_WV?$string_output_adapter@_W@__crt_stdio_output@@V?$positional_parameter_base@_WV?$string_output_adapter@_W@__crt_stdio_output@@@2@@__crt_stdio_output@@CAPA_WXZ 00456620 f i libucrtd:output.obj
 0001:00055630       ?wide_null_string@?$output_processor@_WV?$string_output_adapter@_W@__crt_stdio_output@@V?$standard_base@_WV?$string_output_adapter@_W@__crt_stdio_output@@@2@@__crt_stdio_output@@CAPA_WXZ 00456630 f i libucrtd:output.obj
 0001:00055640       ?write_character@?$stream_output_adapter@D@__crt_stdio_output@@QBEXDQAH@Z 00456640 f i libucrtd:output.obj
 0001:000556e0       ?write_character@?$stream_output_adapter@_W@__crt_stdio_output@@QBEX_WQAH@Z 004566e0 f i libucrtd:output.obj
 0001:00055780       ?write_character@?$string_output_adapter@D@__crt_stdio_output@@QBE_NDQAH@Z 00456780 f i libucrtd:output.obj
 0001:00055840       ?write_character@?$string_output_adapter@_W@__crt_stdio_output@@QBE_N_WQAH@Z 00456840 f i libucrtd:output.obj
 0001:00055900       ?write_stored_string_tchar@?$output_processor@DV?$stream_output_adapter@D@__crt_stdio_output@@V?$format_validation_base@DV?$stream_output_adapter@D@__crt_stdio_output@@@2@@__crt_stdio_output@@AAE_ND@Z 00456900 f i libucrtd:output.obj
 0001:00055a50       ?write_stored_string_tchar@?$output_processor@DV?$stream_output_adapter@D@__crt_stdio_output@@V?$positional_parameter_base@DV?$stream_output_adapter@D@__crt_stdio_output@@@2@@__crt_stdio_output@@AAE_ND@Z 00456a50 f i libucrtd:output.obj
 0001:00055ba0       ?write_stored_string_tchar@?$output_processor@DV?$stream_output_adapter@D@__crt_stdio_output@@V?$standard_base@DV?$stream_output_adapter@D@__crt_stdio_output@@@2@@__crt_stdio_output@@AAE_ND@Z 00456ba0 f i libucrtd:output.obj
 0001:00055cf0       ?write_stored_string_tchar@?$output_processor@DV?$string_output_adapter@D@__crt_stdio_output@@V?$format_validation_base@DV?$string_output_adapter@D@__crt_stdio_output@@@2@@__crt_stdio_output@@AAE_ND@Z 00456cf0 f i libucrtd:output.obj
 0001:00055e40       ?write_stored_string_tchar@?$output_processor@DV?$string_output_adapter@D@__crt_stdio_output@@V?$positional_parameter_base@DV?$string_output_adapter@D@__crt_stdio_output@@@2@@__crt_stdio_output@@AAE_ND@Z 00456e40 f i libucrtd:output.obj
 0001:00055f90       ?write_stored_string_tchar@?$output_processor@DV?$string_output_adapter@D@__crt_stdio_output@@V?$standard_base@DV?$string_output_adapter@D@__crt_stdio_output@@@2@@__crt_stdio_output@@AAE_ND@Z 00456f90 f i libucrtd:output.obj
 0001:000560e0       ?write_stored_string_tchar@?$output_processor@_WV?$stream_output_adapter@_W@__crt_stdio_output@@V?$format_validation_base@_WV?$stream_output_adapter@_W@__crt_stdio_output@@@2@@__crt_stdio_output@@AAE_N_W@Z 004570e0 f i libucrtd:output.obj
 0001:00056200       ?write_stored_string_tchar@?$output_processor@_WV?$stream_output_adapter@_W@__crt_stdio_output@@V?$positional_parameter_base@_WV?$stream_output_adapter@_W@__crt_stdio_output@@@2@@__crt_stdio_output@@AAE_N_W@Z 00457200 f i libucrtd:output.obj
 0001:00056320       ?write_stored_string_tchar@?$output_processor@_WV?$stream_output_adapter@_W@__crt_stdio_output@@V?$standard_base@_WV?$stream_output_adapter@_W@__crt_stdio_output@@@2@@__crt_stdio_output@@AAE_N_W@Z 00457320 f i libucrtd:output.obj
 0001:00056440       ?write_stored_string_tchar@?$output_processor@_WV?$string_output_adapter@_W@__crt_stdio_output@@V?$format_validation_base@_WV?$string_output_adapter@_W@__crt_stdio_output@@@2@@__crt_stdio_output@@AAE_N_W@Z 00457440 f i libucrtd:output.obj
 0001:00056560       ?write_stored_string_tchar@?$output_processor@_WV?$string_output_adapter@_W@__crt_stdio_output@@V?$positional_parameter_base@_WV?$string_output_adapter@_W@__crt_stdio_output@@@2@@__crt_stdio_output@@AAE_N_W@Z 00457560 f i libucrtd:output.obj
 0001:00056680       ?write_stored_string_tchar@?$output_processor@_WV?$string_output_adapter@_W@__crt_stdio_output@@V?$standard_base@_WV?$string_output_adapter@_W@__crt_stdio_output@@@2@@__crt_stdio_output@@AAE_N_W@Z 00457680 f i libucrtd:output.obj
 0001:000567a0       ?write_string@?$stream_output_adapter@D@__crt_stdio_output@@QBEXQBDHQAH1@Z 004577a0 f i libucrtd:output.obj
 0001:00056880       ?write_string@?$stream_output_adapter@_W@__crt_stdio_output@@QBEXQB_WHQAH1@Z 00457880 f i libucrtd:output.obj
 0001:00056960       ?write_string@?$string_output_adapter@D@__crt_stdio_output@@QBEXQBDHQAH1@Z 00457960 f i libucrtd:output.obj
 0001:00056ac0       ?write_string@?$string_output_adapter@_W@__crt_stdio_output@@QBEXQB_WHQAH1@Z 00457ac0 f i libucrtd:output.obj
 0001:00056c20       ___acrt_isleadbyte_l_noupdate 00457c20 f i libucrtd:output.obj
 0001:00056c50       ___acrt_locale_changed     00457c50 f i libucrtd:output.obj
 0001:00056c90       ___stdio_common_vfprintf   00457c90 f   libucrtd:output.obj
 0001:00056cc0       ___stdio_common_vfprintf_p 00457cc0 f   libucrtd:output.obj
 0001:00056cf0       ___stdio_common_vfprintf_s 00457cf0 f   libucrtd:output.obj
 0001:00056d20       ___stdio_common_vfwprintf  00457d20 f   libucrtd:output.obj
 0001:00056d50       ___stdio_common_vfwprintf_p 00457d50 f   libucrtd:output.obj
 0001:00056d80       ___stdio_common_vfwprintf_s 00457d80 f   libucrtd:output.obj
 0001:00056db0       ___stdio_common_vsnprintf_s 00457db0 f   libucrtd:output.obj
 0001:00056df0       ___stdio_common_vsnwprintf_s 00457df0 f   libucrtd:output.obj
 0001:00056e30       ___stdio_common_vsprintf   00457e30 f   libucrtd:output.obj
 0001:00056e70       ___stdio_common_vsprintf_p 00457e70 f   libucrtd:output.obj
 0001:00056eb0       ___stdio_common_vsprintf_s 00457eb0 f   libucrtd:output.obj
 0001:00056ef0       ___stdio_common_vswprintf  00457ef0 f   libucrtd:output.obj
 0001:00056f30       ___stdio_common_vswprintf_p 00457f30 f   libucrtd:output.obj
 0001:00056f70       ___stdio_common_vswprintf_s 00457f70 f   libucrtd:output.obj
 0001:00056fb0       _free                      00457fb0 f   libucrtd:free.obj
 0001:00056fd0       _malloc                    00457fd0 f   libucrtd:malloc.obj
 0001:00056ff0       ??$?B$$A6GXPAXK0@Z@__crt_fast_encoded_nullptr_t@@QBEP6GXPAXK0@ZXZ 00457ff0 f i libucrtd:exit.obj
 0001:00057010       ??$__crt_fast_decode_pointer@P6GXPAXK0@Z@@YAP6GXPAXK0@ZQ6GX0K0@Z@Z 00458010 f i libucrtd:exit.obj
 0001:00057050       ??$__crt_fast_encode_pointer@P6GXPAXK0@Z@@YAP6GXPAXK0@ZQ6GX0K0@Z@Z 00458050 f i libucrtd:exit.obj
 0001:00057090       ??$__crt_get_proc_address@P6GXI@Z@@YAP6GXI@ZQAUHINSTANCE__@@QBD@Z 00458090 f i libucrtd:exit.obj
 0001:000570b0       ??0?$__crt_unique_handle_t@U__crt_hmodule_traits@@@@QAE@QAUHINSTANCE__@@@Z 004580b0 f i libucrtd:exit.obj
 0001:000570d0       ??1?$__crt_unique_handle_t@U__crt_hmodule_traits@@@@QAE@XZ 004580d0 f i libucrtd:exit.obj
 0001:00057110       ?close@?$__crt_unique_handle_t@U__crt_hmodule_traits@@@@QAEXXZ 00458110 f i libucrtd:exit.obj
 0001:00057150       ?close@__crt_hmodule_traits@@SA_NPAUHINSTANCE__@@@Z 00458150 f i libucrtd:exit.obj
 0001:00057410       ?get@?$__crt_unique_handle_t@U__crt_hmodule_traits@@@@QBEPAUHINSTANCE__@@XZ 00458410 f i libucrtd:exit.obj
 0001:00057430       ?get_address_of@?$__crt_unique_handle_t@U__crt_hmodule_traits@@@@QAEPAPAUHINSTANCE__@@XZ 00458430 f i libucrtd:exit.obj
 0001:00057450       ?get_invalid_value@__crt_hmodule_traits@@SAPAUHINSTANCE__@@XZ 00458450 f i libucrtd:exit.obj
 0001:00057630       __Exit                     00458630 f   libucrtd:exit.obj
 0001:00057650       ___acrt_initialize_thread_local_exit_callback 00458650 f   libucrtd:exit.obj
 0001:00057670       __c_exit                   00458670 f   libucrtd:exit.obj
 0001:00057690       __cexit                    00458690 f   libucrtd:exit.obj
 0001:000576b0       __exit                     004586b0 f   libucrtd:exit.obj
 0001:000576d0       __is_c_termination_complete 004586d0 f   libucrtd:exit.obj
 0001:000576f0       __register_thread_local_exe_atexit_callback 004586f0 f   libucrtd:exit.obj
 0001:00057740       _exit                      00458740 f   libucrtd:exit.obj
 0001:00057760       _quick_exit                00458760 f   libucrtd:exit.obj
 0001:00057780       _strcpy                    00458780 f   libucrtd:strcat.obj
 0001:00057790       _strcat                    00458790 f   libucrtd:strcat.obj
 0001:000578c0       _strcmp                    004588c0 f   libucrtd:strcmp.obj
 0001:00057970       _strlen                    00458970 f   libucrtd:strlen.obj
 0001:00057a20       ??0__crt_stdio_stream@@QAE@QAU__crt_stdio_stream_data@@@Z 00458a20 f i libucrtd:fflush.obj
 0001:00057a40       ___acrt_stdio_flush_nolock 00458a40 f   libucrtd:fflush.obj
 0001:00057b50       __fflush_nolock            00458b50 f   libucrtd:fflush.obj
 0001:00057bf0       __flushall                 00458bf0 f   libucrtd:fflush.obj
 0001:00057e10       _fflush                    00458e10 f   libucrtd:fflush.obj
 0001:00057ee0       _strncpy                   00458ee0 f   libucrtd:strncpy.obj
 0001:00058050       __abs64                    00459050 f   libucrtd:abs.obj
 0001:000580b0       _abs                       004590b0 f   libucrtd:abs.obj
 0001:000580e0       _strncat                   004590e0 f   libucrtd:strncat.obj
 0001:000592b0       ??$localtime_s@PAUtm@@ABQBJ@?$__crt_integer_traits@J@@SAH$$QAPAUtm@@ABQBJ@Z 0045a2b0 f i libucrtd:ctime.obj
 0001:000592e0       ??$localtime_s@PAUtm@@ABQB_J@?$__crt_integer_traits@_J@@SAH$$QAPAUtm@@ABQB_J@Z 0045a2e0 f i libucrtd:ctime.obj
 0001:00059310       ??$tasctime@PAUtm@@@?$__crt_char_traits@D@@SAPAD$$QAPAUtm@@@Z 0045a310 f i libucrtd:ctime.obj
 0001:00059330       ??$tasctime@PAUtm@@@?$__crt_char_traits@_W@@SAPA_W$$QAPAUtm@@@Z 0045a330 f i libucrtd:ctime.obj
 0001:00059350       ??$tasctime_s@ABQADABIPAUtm@@@?$__crt_char_traits@D@@SAHABQADABI$$QAPAUtm@@@Z 0045a350 f i libucrtd:ctime.obj
 0001:00059380       ??$tasctime_s@ABQA_WABIPAUtm@@@?$__crt_char_traits@_W@@SAHABQA_WABI$$QAPAUtm@@@Z 0045a380 f i libucrtd:ctime.obj
 0001:000593b0       __ctime32                  0045a3b0 f   libucrtd:ctime.obj
 0001:000593d0       __ctime32_s                0045a3d0 f   libucrtd:ctime.obj
 0001:00059400       __ctime64                  0045a400 f   libucrtd:ctime.obj
 0001:00059420       __ctime64_s                0045a420 f   libucrtd:ctime.obj
 0001:00059450       __wctime32                 0045a450 f   libucrtd:ctime.obj
 0001:00059470       __wctime32_s               0045a470 f   libucrtd:ctime.obj
 0001:000594a0       __wctime64                 0045a4a0 f   libucrtd:ctime.obj
 0001:000594c0       __wctime64_s               0045a4c0 f   libucrtd:ctime.obj
 0001:000598e0       __time32                   0045a8e0 f   libucrtd:time.obj
 0001:00059900       __time64                   0045a900 f   libucrtd:time.obj
 0001:00059920       __timespec32_get           0045a920 f   libucrtd:time.obj
 0001:00059940       __timespec64_get           0045a940 f   libucrtd:time.obj
 0001:00059960       _fabs                      0045a960 f   libucrtd:fabs.obj
 0001:0005a060       ___acrt_get_locale_data_prefix 0045b060 f i libucrtd:tolower_toupper.obj
 0001:0005a080       __chvalidchk_l             0045b080 f i libucrtd:tolower_toupper.obj
 0001:0005a0b0       __ischartype_l             0045b0b0 f i libucrtd:tolower_toupper.obj
 0001:0005a110       __tolower                  0045b110 f   libucrtd:tolower_toupper.obj
 0001:0005a120       __tolower_l                0045b120 f   libucrtd:tolower_toupper.obj
 0001:0005a150       __toupper                  0045b150 f   libucrtd:tolower_toupper.obj
 0001:0005a160       __toupper_l                0045b160 f   libucrtd:tolower_toupper.obj
 0001:0005a190       _tolower                   0045b190 f   libucrtd:tolower_toupper.obj
 0001:0005a200       _toupper                   0045b200 f   libucrtd:tolower_toupper.obj
 0001:0005a270       _strncmp                   0045b270 f   libucrtd:strncmp.obj
 0001:0005a310       __errcode                  0045b310 f   libucrtd:fpexcept.obj
 0001:0005a3a0       __except1                  0045b3a0 f   libucrtd:fpexcept.obj
 0001:0005a4e0       __except2                  0045b4e0 f   libucrtd:fpexcept.obj
 0001:0005a690       __handle_exc               0045b690 f   libucrtd:fpexcept.obj
 0001:0005aa70       __handle_qnan2             0045ba70 f   libucrtd:fpexcept.obj
 0001:0005aa90       __raise_exc                0045ba90 f   libucrtd:fpexcept.obj
 0001:0005aad0       __raise_exc_ex             0045bad0 f   libucrtd:fpexcept.obj
 0001:0005b1b0       __raise_excf               0045c1b0 f   libucrtd:fpexcept.obj
 0001:0005b1f0       __set_errno_from_matherr   0045c1f0 f   libucrtd:fpexcept.obj
 0001:0005b240       __umatherr                 0045c240 f   libucrtd:fpexcept.obj
 0001:0005b370       __seh_filter_dll           0045c370 f   libucrtd:exception_filter.obj
 0001:0005b3a0       __seh_filter_exe           0045c3a0 f   libucrtd:exception_filter.obj
 0001:0005b860       ___acrt_report_runtime_error 0045c860 f   libucrtd:report_runtime_error.obj
 0001:0005bad0       __invoke_watson_if_error   0045cad0 f i libucrtd:report_runtime_error.obj
 0001:0005bb10       __query_app_type           0045cb10 f   libucrtd:report_runtime_error.obj
 0001:0005bb20       __set_app_type             0045cb20 f   libucrtd:report_runtime_error.obj
 0001:0005bb40       ??$__crt_fast_decode_pointer@P6AHPAU_exception@@@Z@@YAP6AHPAU_exception@@@ZQ6AH0@Z@Z 0045cb40 f i libucrtd:matherr.obj
 0001:0005bb80       ??$__crt_fast_encode_pointer@P6AHPAU_exception@@@Z@@YAP6AHPAU_exception@@@ZQ6AH0@Z@Z 0045cb80 f i libucrtd:matherr.obj
 0001:0005bbc0       ?get_current_state_index@__crt_state_management@@YAIXZ 0045cbc0 f i libucrtd:matherr.obj
 0001:0005bbd0       ?initialize@?$dual_state_global@P6AHPAU_exception@@@Z@__crt_state_management@@QAEXQ6AHPAU_exception@@@Z@Z 0045cbd0 f i libucrtd:matherr.obj
 0001:0005bc20       ?value@?$dual_state_global@P6AHPAU_exception@@@Z@__crt_state_management@@QAEAAP6AHPAU_exception@@@ZXZ 0045cc20 f i libucrtd:matherr.obj
 0001:0005bc40       ___acrt_has_user_matherr   0045cc40 f   libucrtd:matherr.obj
 0001:0005bc90       ___acrt_initialize_user_matherr 0045cc90 f   libucrtd:matherr.obj
 0001:0005bcb0       ___acrt_invoke_user_matherr 0045ccb0 f   libucrtd:matherr.obj
 0001:0005bd30       ___setusermatherr          0045cd30 f   libucrtd:matherr.obj
 0001:0005bd60       ??$?RE@__crt_internal_free_policy@@QBEXQBE@Z 0045cd60 f i libucrtd:argv_parsing.obj
 0001:0005bd90       ??$?RPAD@__crt_internal_free_policy@@QBEXQBQAD@Z 0045cd90 f i libucrtd:argv_parsing.obj
 0001:0005bdc0       ??$?RPA_W@__crt_internal_free_policy@@QBEXQBQA_W@Z 0045cdc0 f i libucrtd:argv_parsing.obj
 0001:0005c470       ??$get_module_file_name@$$TAAY0BAF@DH@?$__crt_char_traits@D@@SAK$$QA$$TAAY0BAF@D$$QAH@Z 0045d470 f i libucrtd:argv_parsing.obj
 0001:0005c4a0       ??$get_module_file_name@$$TAAY0BAF@_WH@?$__crt_char_traits@_W@@SAK$$QA$$TAAY0BAF@_W$$QAH@Z 0045d4a0 f i libucrtd:argv_parsing.obj
 0001:0005cd90       ??$set_program_name@PAD@?$__crt_char_traits@D@@SAX$$QAPAD@Z 0045dd90 f i libucrtd:argv_parsing.obj
 0001:0005cdb0       ??$set_program_name@PA_W@?$__crt_char_traits@_W@@SAX$$QAPA_W@Z 0045ddb0 f i libucrtd:argv_parsing.obj
 0001:0005ce10       ??0?$__crt_unique_heap_ptr@EU__crt_internal_free_policy@@@@QAE@QAE@Z 0045de10 f i libucrtd:argv_parsing.obj
 0001:0005ce30       ??0?$__crt_unique_heap_ptr@PADU__crt_internal_free_policy@@@@QAE@QAPAD@Z 0045de30 f i libucrtd:argv_parsing.obj
 0001:0005ce50       ??0?$__crt_unique_heap_ptr@PA_WU__crt_internal_free_policy@@@@QAE@QAPA_W@Z 0045de50 f i libucrtd:argv_parsing.obj
 0001:0005ce70       ??1?$__crt_unique_heap_ptr@EU__crt_internal_free_policy@@@@QAE@XZ 0045de70 f i libucrtd:argv_parsing.obj
 0001:0005ce90       ??1?$__crt_unique_heap_ptr@PADU__crt_internal_free_policy@@@@QAE@XZ 0045de90 f i libucrtd:argv_parsing.obj
 0001:0005ceb0       ??1?$__crt_unique_heap_ptr@PA_WU__crt_internal_free_policy@@@@QAE@XZ 0045deb0 f i libucrtd:argv_parsing.obj
 0001:0005ced0       ??B?$__crt_unique_heap_ptr@EU__crt_internal_free_policy@@@@QBE_NXZ 0045ded0 f i libucrtd:argv_parsing.obj
 0001:0005cfb0       ?detach@?$__crt_unique_heap_ptr@EU__crt_internal_free_policy@@@@QAEPAEXZ 0045dfb0 f i libucrtd:argv_parsing.obj
 0001:0005cfe0       ?detach@?$__crt_unique_heap_ptr@PADU__crt_internal_free_policy@@@@QAEPAPADXZ 0045dfe0 f i libucrtd:argv_parsing.obj
 0001:0005d010       ?detach@?$__crt_unique_heap_ptr@PA_WU__crt_internal_free_policy@@@@QAEPAPA_WXZ 0045e010 f i libucrtd:argv_parsing.obj
 0001:0005d0a0       ?get@?$__crt_unique_heap_ptr@EU__crt_internal_free_policy@@@@QBEPAEXZ 0045e0a0 f i libucrtd:argv_parsing.obj
 0001:0005d0c0       ?get@?$__crt_unique_heap_ptr@PADU__crt_internal_free_policy@@@@QBEPAPADXZ 0045e0c0 f i libucrtd:argv_parsing.obj
 0001:0005d0e0       ?get@?$__crt_unique_heap_ptr@PA_WU__crt_internal_free_policy@@@@QBEPAPA_WXZ 0045e0e0 f i libucrtd:argv_parsing.obj
 0001:0005d100       ?get_address_of@?$__crt_unique_heap_ptr@PADU__crt_internal_free_policy@@@@QAEPAPAPADXZ 0045e100 f i libucrtd:argv_parsing.obj
 0001:0005d120       ?get_address_of@?$__crt_unique_heap_ptr@PA_WU__crt_internal_free_policy@@@@QAEPAPAPA_WXZ 0045e120 f i libucrtd:argv_parsing.obj
 0001:0005d180       ?is_valid@?$__crt_unique_heap_ptr@EU__crt_internal_free_policy@@@@QBE_NXZ 0045e180 f i libucrtd:argv_parsing.obj
 0001:0005d1c0       ?release@?$__crt_unique_heap_ptr@EU__crt_internal_free_policy@@@@QAEXXZ 0045e1c0 f i libucrtd:argv_parsing.obj
 0001:0005d200       ?release@?$__crt_unique_heap_ptr@PADU__crt_internal_free_policy@@@@QAEXXZ 0045e200 f i libucrtd:argv_parsing.obj
 0001:0005d240       ?release@?$__crt_unique_heap_ptr@PA_WU__crt_internal_free_policy@@@@QAEXXZ 0045e240 f i libucrtd:argv_parsing.obj
 0001:0005d2d0       ___acrt_allocate_buffer_for_argv 0045e2d0 f   libucrtd:argv_parsing.obj
 0001:0005d3c0       __configure_narrow_argv    0045e3c0 f   libucrtd:argv_parsing.obj
 0001:0005d3e0       __configure_wide_argv      0045e3e0 f   libucrtd:argv_parsing.obj
 0001:0005d400       __set_pgmptr               0045e400 f i libucrtd:argv_parsing.obj
 0001:0005d420       __set_wpgmptr              0045e420 f i libucrtd:argv_parsing.obj
 0001:0005d993       ??$get_environment_from_os@$$$V@?$__crt_char_traits@D@@SAPADXZ 0045e993 f i libucrtd:environment_initialization.obj
 0001:0005d998       ??$get_environment_from_os@$$$V@?$__crt_char_traits@_W@@SAPA_WXZ 0045e998 f i libucrtd:environment_initialization.obj
 0001:0005daff       ??$set_variable_in_environment_nolock@PADH@?$__crt_char_traits@D@@SAH$$QAPAD$$QAH@Z 0045eaff f i libucrtd:environment_initialization.obj
 0001:0005db1d       ??$set_variable_in_environment_nolock@PA_WH@?$__crt_char_traits@_W@@SAH$$QAPA_W$$QAH@Z 0045eb1d f i libucrtd:environment_initialization.obj
 0001:0005db3b       ??$tcscpy_s@PADABIAAPAD@?$__crt_char_traits@D@@SAH$$QAPADABIAAPAD@Z 0045eb3b f i libucrtd:environment_initialization.obj
 0001:0005db60       ??$tcscpy_s@PA_WABIAAPA_W@?$__crt_char_traits@_W@@SAH$$QAPA_WABIAAPA_W@Z 0045eb60 f i libucrtd:environment_initialization.obj
 0001:0005db85       ??$tcslen@AAPAD@?$__crt_char_traits@D@@SAIAAPAD@Z 0045eb85 f i libucrtd:environment_initialization.obj
 0001:0005dba3       ??$tcslen@AAPA_W@?$__crt_char_traits@_W@@SAIAAPA_W@Z 0045eba3 f i libucrtd:environment_initialization.obj
 0001:0005dbc8       ??$uninitialize@A6AXAAPAPAD@Z@?$dual_state_global@PAPAD@__crt_state_management@@QAEXA6AXAAPAPAD@Z@Z 0045ebc8 f i libucrtd:environment_initialization.obj
 0001:0005dc18       ??$uninitialize@A6AXAAPAPA_W@Z@?$dual_state_global@PAPA_W@__crt_state_management@@QAEXA6AXAAPAPA_W@Z@Z 0045ec18 f i libucrtd:environment_initialization.obj
 0001:0005dcaa       ??B?$__crt_unique_heap_ptr@PADU__crt_internal_free_policy@@@@QBE_NXZ 0045ecaa f i libucrtd:environment_initialization.obj
 0001:0005dcb4       ??B?$__crt_unique_heap_ptr@PA_WU__crt_internal_free_policy@@@@QBE_NXZ 0045ecb4 f i libucrtd:environment_initialization.obj
 0001:0005dcbe       ??B?$__crt_unique_heap_ptr@_WU__crt_internal_free_policy@@@@QBE_NXZ 0045ecbe f i libucrtd:environment_initialization.obj
 0001:0005dcc8       ?__crt_compute_required_transform_buffer_count@@YAIIQBD@Z 0045ecc8 f i libucrtd:environment_initialization.obj
 0001:0005dce8       ?__crt_compute_required_transform_buffer_count@@YAIIQB_W@Z 0045ece8 f i libucrtd:environment_initialization.obj
 0001:0005dd0b       ?__crt_transform_string@@YAIIQBDQA_WI@Z 0045ed0b f i libucrtd:environment_initialization.obj
 0001:0005dd2f       ?__crt_transform_string@@YAIIQB_WQADI@Z 0045ed2f f i libucrtd:environment_initialization.obj
 0001:0005dd57       ?detach@?$__crt_unique_heap_ptr@DU__crt_internal_free_policy@@@@QAEPADXZ 0045ed57 f i libucrtd:environment_initialization.obj
 0001:0005dd5d       ?detach@?$__crt_unique_heap_ptr@_WU__crt_internal_free_policy@@@@QAEPA_WXZ 0045ed5d f i libucrtd:environment_initialization.obj
 0001:0005dd87       ?initialize@?$dual_state_global@PAPAD@__crt_state_management@@QAEXQAPAD@Z 0045ed87 f i libucrtd:environment_initialization.obj
 0001:0005ddc4       ?initialize@?$dual_state_global@PAPA_W@__crt_state_management@@QAEXQAPA_W@Z 0045edc4 f i libucrtd:environment_initialization.obj
 0001:0005de01       ?is_valid@?$__crt_unique_heap_ptr@PADU__crt_internal_free_policy@@@@QBE_NXZ 0045ee01 f i libucrtd:environment_initialization.obj
 0001:0005de0b       ?is_valid@?$__crt_unique_heap_ptr@PA_WU__crt_internal_free_policy@@@@QBE_NXZ 0045ee0b f i libucrtd:environment_initialization.obj
 0001:0005de15       ?is_valid@?$__crt_unique_heap_ptr@_WU__crt_internal_free_policy@@@@QBE_NXZ 0045ee15 f i libucrtd:environment_initialization.obj
 0001:0005de25       ?value@?$dual_state_global@PAPAD@__crt_state_management@@QAEAAPAPADXZ 0045ee25 f i libucrtd:environment_initialization.obj
 0001:0005de28       ?value@?$dual_state_global@PAPA_W@__crt_state_management@@QAEAAPAPA_WXZ 0045ee28 f i libucrtd:environment_initialization.obj
 0001:0005de2b       ___dcrt_get_or_create_narrow_environment_nolock 0045ee2b f   libucrtd:environment_initialization.obj
 0001:0005de30       ___dcrt_get_or_create_wide_environment_nolock 0045ee30 f   libucrtd:environment_initialization.obj
 0001:0005de35       ___dcrt_uninitialize_environments_nolock 0045ee35 f   libucrtd:environment_initialization.obj
 0001:0005de79       ___p__environ              0045ee79 f   libucrtd:environment_initialization.obj
 0001:0005de7f       ___p__wenviron             0045ee7f f   libucrtd:environment_initialization.obj
 0001:0005de85       __get_initial_narrow_environment 0045ee85 f   libucrtd:environment_initialization.obj
 0001:0005de9e       __get_initial_wide_environment 0045ee9e f   libucrtd:environment_initialization.obj
 0001:0005deb7       __initialize_narrow_environment 0045eeb7 f   libucrtd:environment_initialization.obj
 0001:0005debc       __initialize_wide_environment 0045eebc f   libucrtd:environment_initialization.obj
 0001:0005ded0       __initterm                 0045eed0 f   libucrtd:initterm.obj
 0001:0005df40       __initterm_e               0045ef40 f   libucrtd:initterm.obj
 0001:0005dfd0       ??$__crt_interlocked_read@H@@YAHPDH@Z 0045efd0 f i libucrtd:setmode.obj
 0001:0005dff0       __get_fmode                0045eff0 f   libucrtd:setmode.obj
 0001:0005e0b0       __set_fmode                0045f0b0 f   libucrtd:setmode.obj
 0001:0005e180       __setmode                  0045f180 f   libucrtd:setmode.obj
 0001:0005e4e0       __setmode_nolock           0045f4e0 f   libucrtd:setmode.obj
 0001:0005e780       ___acrt_initialize_command_line 0045f780 f   libucrtd:argv_data.obj
 0001:0005e7b0       ___acrt_uninitialize_command_line 0045f7b0 f   libucrtd:argv_data.obj
 0001:0005e7c0       ___p___argc                0045f7c0 f   libucrtd:argv_data.obj
 0001:0005e7d0       ___p___argv                0045f7d0 f   libucrtd:argv_data.obj
 0001:0005e7e0       ___p___wargv               0045f7e0 f   libucrtd:argv_data.obj
 0001:0005e7f0       ___p__acmdln               0045f7f0 f   libucrtd:argv_data.obj
 0001:0005e800       ___p__pgmptr               0045f800 f   libucrtd:argv_data.obj
 0001:0005e810       ___p__wcmdln               0045f810 f   libucrtd:argv_data.obj
 0001:0005e820       ___p__wpgmptr              0045f820 f   libucrtd:argv_data.obj
 0001:0005e830       __get_pgmptr               0045f830 f   libucrtd:argv_data.obj
 0001:0005e990       __get_wpgmptr              0045f990 f   libucrtd:argv_data.obj
 0001:0005eb00       ??$?RU__crt_locale_data@@@__crt_internal_free_policy@@QBEXQBU__crt_locale_data@@@Z 0045fb00 f i libucrtd:wsetlocale.obj
 0001:0005eb30       ??$?RU__crt_locale_pointers@@@__crt_internal_free_policy@@QBEXQBU__crt_locale_pointers@@@Z 0045fb30 f i libucrtd:wsetlocale.obj
 0001:0005eb60       ??$?RU__crt_multibyte_data@@@__crt_internal_free_policy@@QBEXQBU__crt_multibyte_data@@@Z 0045fb60 f i libucrtd:wsetlocale.obj
 0001:0005eb90       ??$?RV<lambda_0f92d0c5a8007722f95b3b6c71cd8e3e>@@AAV<lambda_321f9d61c14d59ff00145e45db1313e0>@@V<lambda_3298c911d7b53f44106027a7fde9a80a>@@@?$__crt_seh_guarded_call@X@@QAEX$$QAV<lambda_0f92d0c5a8007722f95b3b6c71cd8e3e>@@AAV<lambda_321f9d61c14d59ff00145e45db1313e0>@@$$QAV<lambda_3298c911d7b53f44106027a7fde9a80a>@@@Z 0045fb90 f i libucrtd:wsetlocale.obj
 0001:0005ec30       ??$?RV<lambda_507d9fd6b66e39451a8852ba73f804a7>@@AAV<lambda_565169b3e3b494427ce1bebdd17b54ac>@@AAV<lambda_f51fe5fd7c79a33db34fc9310f277369>@@@?$__crt_seh_guarded_call@X@@QAEX$$QAV<lambda_507d9fd6b66e39451a8852ba73f804a7>@@AAV<lambda_565169b3e3b494427ce1bebdd17b54ac>@@AAV<lambda_f51fe5fd7c79a33db34fc9310f277369>@@@Z 0045fc30 f i libucrtd:wsetlocale.obj
 0001:0005ecd0       ??$?RV<lambda_76aaead6e312921abc834cb00a638bdd>@@AAV<lambda_176e34f99554166dd2fac165c457248c>@@V<lambda_998ee1c9f4290b119b936bcd6215875a>@@@?$__crt_seh_guarded_call@X@@QAEX$$QAV<lambda_76aaead6e312921abc834cb00a638bdd>@@AAV<lambda_176e34f99554166dd2fac165c457248c>@@$$QAV<lambda_998ee1c9f4290b119b936bcd6215875a>@@@Z 0045fcd0 f i libucrtd:wsetlocale.obj
 0001:0005ed70       ??$?RV<lambda_c9469061b39d205f0f236529d4a41659>@@AAV<lambda_b7fb1a997d3ebc0cc0186c5835178808>@@V<lambda_14b92c79d699846b5cc916cd4cf280e4>@@@?$__crt_seh_guarded_call@X@@QAEX$$QAV<lambda_c9469061b39d205f0f236529d4a41659>@@AAV<lambda_b7fb1a997d3ebc0cc0186c5835178808>@@$$QAV<lambda_14b92c79d699846b5cc916cd4cf280e4>@@@Z 0045fd70 f i libucrtd:wsetlocale.obj
 0001:0005ee10       ??$__acrt_lock_and_call@V<lambda_176e34f99554166dd2fac165c457248c>@@@@YAXW4__acrt_lock_id@@$$QAV<lambda_176e34f99554166dd2fac165c457248c>@@@Z 0045fe10 f i libucrtd:wsetlocale.obj
 0001:0005ee60       ??$__acrt_lock_and_call@V<lambda_321f9d61c14d59ff00145e45db1313e0>@@@@YAXW4__acrt_lock_id@@$$QAV<lambda_321f9d61c14d59ff00145e45db1313e0>@@@Z 0045fe60 f i libucrtd:wsetlocale.obj
 0001:0005eeb0       ??$__acrt_lock_and_call@V<lambda_b7fb1a997d3ebc0cc0186c5835178808>@@@@YAXW4__acrt_lock_id@@$$QAV<lambda_b7fb1a997d3ebc0cc0186c5835178808>@@@Z 0045feb0 f i libucrtd:wsetlocale.obj
 0001:0005ef00       ??$__crt_call_and_cleanup@V<lambda_565169b3e3b494427ce1bebdd17b54ac>@@V<lambda_f51fe5fd7c79a33db34fc9310f277369>@@@@YAX$$QAV<lambda_565169b3e3b494427ce1bebdd17b54ac>@@$$QAV<lambda_f51fe5fd7c79a33db34fc9310f277369>@@@Z 0045ff00 f i libucrtd:wsetlocale.obj
 0001:0005ef30       ??$__vcrt_va_start_verify_argument_type@H@@YAXXZ 0045ff30 f i libucrtd:wsetlocale.obj
 0001:0005f160       ??0?$__crt_unique_heap_ptr@U__crt_locale_data@@U__crt_internal_free_policy@@@@QAE@QAU__crt_locale_data@@@Z 00460160 f i libucrtd:wsetlocale.obj
 0001:0005f180       ??0?$__crt_unique_heap_ptr@U__crt_locale_pointers@@U__crt_internal_free_policy@@@@QAE@QAU__crt_locale_pointers@@@Z 00460180 f i libucrtd:wsetlocale.obj
 0001:0005f1a0       ??0?$__crt_unique_heap_ptr@U__crt_multibyte_data@@U__crt_internal_free_policy@@@@QAE@QAU__crt_multibyte_data@@@Z 004601a0 f i libucrtd:wsetlocale.obj
 0001:0005f1c0       ??1?$__crt_unique_heap_ptr@U__crt_locale_data@@U__crt_internal_free_policy@@@@QAE@XZ 004601c0 f i libucrtd:wsetlocale.obj
 0001:0005f1e0       ??1?$__crt_unique_heap_ptr@U__crt_locale_pointers@@U__crt_internal_free_policy@@@@QAE@XZ 004601e0 f i libucrtd:wsetlocale.obj
 0001:0005f200       ??1?$__crt_unique_heap_ptr@U__crt_multibyte_data@@U__crt_internal_free_policy@@@@QAE@XZ 00460200 f i libucrtd:wsetlocale.obj
 0001:0005f220       ??B?$__crt_unique_heap_ptr@U__crt_locale_data@@U__crt_internal_free_policy@@@@QBE_NXZ 00460220 f i libucrtd:wsetlocale.obj
 0001:0005f240       ??B?$__crt_unique_heap_ptr@U__crt_locale_pointers@@U__crt_internal_free_policy@@@@QBE_NXZ 00460240 f i libucrtd:wsetlocale.obj
 0001:0005f260       ??B?$__crt_unique_heap_ptr@U__crt_multibyte_data@@U__crt_internal_free_policy@@@@QBE_NXZ 00460260 f i libucrtd:wsetlocale.obj
 0001:0005f6a0       ?detach@?$__crt_unique_heap_ptr@U__crt_locale_data@@U__crt_internal_free_policy@@@@QAEPAU__crt_locale_data@@XZ 004606a0 f i libucrtd:wsetlocale.obj
 0001:0005f6d0       ?detach@?$__crt_unique_heap_ptr@U__crt_locale_pointers@@U__crt_internal_free_policy@@@@QAEPAU__crt_locale_pointers@@XZ 004606d0 f i libucrtd:wsetlocale.obj
 0001:0005f700       ?detach@?$__crt_unique_heap_ptr@U__crt_multibyte_data@@U__crt_internal_free_policy@@@@QAEPAU__crt_multibyte_data@@XZ 00460700 f i libucrtd:wsetlocale.obj
 0001:0005f730       ?get@?$__crt_unique_heap_ptr@U__crt_locale_data@@U__crt_internal_free_policy@@@@QBEPAU__crt_locale_data@@XZ 00460730 f i libucrtd:wsetlocale.obj
 0001:0005f750       ?get@?$__crt_unique_heap_ptr@U__crt_locale_pointers@@U__crt_internal_free_policy@@@@QBEPAU__crt_locale_pointers@@XZ 00460750 f i libucrtd:wsetlocale.obj
 0001:0005f770       ?get@?$__crt_unique_heap_ptr@U__crt_multibyte_data@@U__crt_internal_free_policy@@@@QBEPAU__crt_multibyte_data@@XZ 00460770 f i libucrtd:wsetlocale.obj
 0001:0005f790       ?is_valid@?$__crt_unique_heap_ptr@U__crt_locale_data@@U__crt_internal_free_policy@@@@QBE_NXZ 00460790 f i libucrtd:wsetlocale.obj
 0001:0005f7d0       ?is_valid@?$__crt_unique_heap_ptr@U__crt_locale_pointers@@U__crt_internal_free_policy@@@@QBE_NXZ 004607d0 f i libucrtd:wsetlocale.obj
 0001:0005f810       ?is_valid@?$__crt_unique_heap_ptr@U__crt_multibyte_data@@U__crt_internal_free_policy@@@@QBE_NXZ 00460810 f i libucrtd:wsetlocale.obj
 0001:0005f850       ?release@?$__crt_unique_heap_ptr@U__crt_locale_data@@U__crt_internal_free_policy@@@@QAEXXZ 00460850 f i libucrtd:wsetlocale.obj
 0001:0005f890       ?release@?$__crt_unique_heap_ptr@U__crt_locale_pointers@@U__crt_internal_free_policy@@@@QAEXXZ 00460890 f i libucrtd:wsetlocale.obj
 0001:0005f8d0       ?release@?$__crt_unique_heap_ptr@U__crt_multibyte_data@@U__crt_internal_free_policy@@@@QAEXXZ 004608d0 f i libucrtd:wsetlocale.obj
 0001:0005f910       ?value@?$dual_state_global@PAU__crt_locale_data@@@__crt_state_management@@QAEAAPAU__crt_locale_data@@XZ 00460910 f i libucrtd:wsetlocale.obj
 0001:0005f930       ___acrt_copy_locale_name   00460930 f   libucrtd:wsetlocale.obj
 0001:0005fa00       ___acrt_set_locale_changed 00460a00 f   libucrtd:wsetlocale.obj
 0001:0005fa20       ___acrt_uninitialize_locale 00460a20 f   libucrtd:wsetlocale.obj
 0001:0005faf0       ___lc_lctowcs              00460af0 f   libucrtd:wsetlocale.obj
 0001:0005fbd0       ___lc_wcstolc              00460bd0 f   libucrtd:wsetlocale.obj
 0001:0005fe80       __configthreadlocale       00460e80 f   libucrtd:wsetlocale.obj
 0001:00060060       __create_locale            00461060 f   libucrtd:wsetlocale.obj
 0001:000600f0       __expandlocale             004610f0 f   libucrtd:wsetlocale.obj
 0001:000606f0       __free_locale              004616f0 f   libucrtd:wsetlocale.obj
 0001:00060870       __get_current_locale       00461870 f   libucrtd:wsetlocale.obj
 0001:00060970       __wcreate_locale           00461970 f   libucrtd:wsetlocale.obj
 0001:00060c30       __wcscats                  00461c30 f   libucrtd:wsetlocale.obj
 0001:00060cd0       __wsetlocale               00461cd0 f   libucrtd:wsetlocale.obj
 0001:00061fe0       ?value@?$dual_state_global@J@__crt_state_management@@QAEAAJXZ 00462fe0 f i libucrtd:new_mode.obj
 0001:00062000       __query_new_mode           00463000 f   libucrtd:new_mode.obj
 0001:00062020       __set_new_mode             00463020 f   libucrtd:new_mode.obj
 0001:000620f0       ___p__commode              004630f0 f   libucrtd:ncommode.obj
 0001:00062100       ??$?BP6AXXZ@__crt_fast_encoded_nullptr_t@@QBEPAP6AXXZXZ 00463100 f i libucrtd:onexit.obj
 0001:00062120       ??$?RP6AXXZ@__crt_internal_free_policy@@QBEXQBQ6AXXZ@Z 00463120 f i libucrtd:onexit.obj
 0001:00062150       ??$?RV<lambda_821a00fc0e15a7fd532972332124005d>@@AAV<lambda_942beefa13ab35ff55f86422493ffd6a>@@V<lambda_3ab53bf64df1f1ff33dbc5b1929ce7a7>@@@?$__crt_seh_guarded_call@H@@QAEH$$QAV<lambda_821a00fc0e15a7fd532972332124005d>@@AAV<lambda_942beefa13ab35ff55f86422493ffd6a>@@$$QAV<lambda_3ab53bf64df1f1ff33dbc5b1929ce7a7>@@@Z 00463150 f i libucrtd:onexit.obj
 0001:00062200       ??$?RV<lambda_a12890e7f9ac9927a62bd0bbd5044c78>@@AAV<lambda_e971338317bfa523bb8920b43d823727>@@V<lambda_e618b16d59e79e236350cab8485990d2>@@@?$__crt_seh_guarded_call@H@@QAEH$$QAV<lambda_a12890e7f9ac9927a62bd0bbd5044c78>@@AAV<lambda_e971338317bfa523bb8920b43d823727>@@$$QAV<lambda_e618b16d59e79e236350cab8485990d2>@@@Z 00463200 f i libucrtd:onexit.obj
 0001:000622b0       ??$__acrt_lock_and_call@V<lambda_942beefa13ab35ff55f86422493ffd6a>@@@@YAHW4__acrt_lock_id@@$$QAV<lambda_942beefa13ab35ff55f86422493ffd6a>@@@Z 004632b0 f i libucrtd:onexit.obj
 0001:00062300       ??$__acrt_lock_and_call@V<lambda_e971338317bfa523bb8920b43d823727>@@@@YAHW4__acrt_lock_id@@$$QAV<lambda_e971338317bfa523bb8920b43d823727>@@@Z 00463300 f i libucrtd:onexit.obj
 0001:00062350       ??$__crt_fast_encode_pointer@P6AHXZ@@YAP6AHXZQ6AHXZ@Z 00463350 f i libucrtd:onexit.obj
 0001:000624a0       ??0?$__crt_unique_heap_ptr@P6AXXZU__crt_internal_free_policy@@@@QAE@QAP6AXXZ@Z 004634a0 f i libucrtd:onexit.obj
 0001:000624c0       ??1?$__crt_unique_heap_ptr@P6AXXZU__crt_internal_free_policy@@@@QAE@XZ 004634c0 f i libucrtd:onexit.obj
 0001:00062a30       ?detach@?$__crt_unique_heap_ptr@P6AXXZU__crt_internal_free_policy@@@@QAEPAP6AXXZXZ 00463a30 f i libucrtd:onexit.obj
 0001:00062a60       ?release@?$__crt_unique_heap_ptr@P6AXXZU__crt_internal_free_policy@@@@QAEXXZ 00463a60 f i libucrtd:onexit.obj
 0001:00062aa0       __crt_at_quick_exit        00463aa0 f   libucrtd:onexit.obj
 0001:00062ac0       __crt_atexit               00463ac0 f   libucrtd:onexit.obj
 0001:00062ae0       __execute_onexit_table     00463ae0 f   libucrtd:onexit.obj
 0001:00062b10       __initialize_onexit_table  00463b10 f   libucrtd:onexit.obj
 0001:00062b90       __register_onexit_function 00463b90 f   libucrtd:onexit.obj
 0001:00062e20       ?initialize@?$dual_state_global@PAU__crt_locale_data@@@__crt_state_management@@QAEXQAU__crt_locale_data@@@Z 00463e20 f i libucrtd:initialization.obj
 0001:00062e70       ___acrt_initialize         00463e70 f   libucrtd:initialization.obj
 0001:00062e90       ___acrt_thread_attach      00463e90 f   libucrtd:initialization.obj
 0001:00062eb0       ___acrt_thread_detach      00463eb0 f   libucrtd:initialization.obj
 0001:00062ed0       ___acrt_uninitialize       00463ed0 f   libucrtd:initialization.obj
 0001:00062ef0       ___acrt_uninitialize_critical 00463ef0 f   libucrtd:initialization.obj
 0001:00062f10       __controlfp_s              00463f10 f   libucrtd:contrlfp.obj
 0001:00063070       __get_terminate            00464070 f   libucrtd:terminate.obj
 0001:00063090       _set_terminate             00464090 f   libucrtd:terminate.obj
 0001:000630d0       _terminate                 004640d0 f   libucrtd:terminate.obj
 0001:00065040       __CrtCheckMemory           00466040 f   libucrtd:debug_heap.obj
 0001:00065230       __CrtDoForAllClientObjects 00466230 f   libucrtd:debug_heap.obj
 0001:000653e0       __CrtDumpMemoryLeaks       004663e0 f   libucrtd:debug_heap.obj
 0001:000654a0       __CrtGetAllocHook          004664a0 f   libucrtd:debug_heap.obj
 0001:000654b0       __CrtGetDumpClient         004664b0 f   libucrtd:debug_heap.obj
 0001:000654c0       __CrtIsMemoryBlock         004664c0 f   libucrtd:debug_heap.obj
 0001:00065660       __CrtIsValidHeapPointer    00466660 f   libucrtd:debug_heap.obj
 0001:000656a0       __CrtIsValidPointer        004666a0 f   libucrtd:debug_heap.obj
 0001:000656d0       __CrtMemCheckpoint         004666d0 f   libucrtd:debug_heap.obj
 0001:00065990       __CrtMemDifference         00466990 f   libucrtd:debug_heap.obj
 0001:00065ca0       __CrtMemDumpAllObjectsSince 00466ca0 f   libucrtd:debug_heap.obj
 0001:00065d60       __CrtMemDumpStatistics     00466d60 f   libucrtd:debug_heap.obj
 0001:00065ed0       __CrtReportBlockType       00466ed0 f   libucrtd:debug_heap.obj
 0001:00065f10       __CrtSetAllocHook          00466f10 f   libucrtd:debug_heap.obj
 0001:00065f40       __CrtSetBreakAlloc         00466f40 f   libucrtd:debug_heap.obj
 0001:00065f70       __CrtSetDbgBlockType       00466f70 f   libucrtd:debug_heap.obj
 0001:00066080       __CrtSetDbgFlag            00467080 f   libucrtd:debug_heap.obj
 0001:00066250       __CrtSetDumpClient         00467250 f   libucrtd:debug_heap.obj
 0001:00066280       ___p__crtBreakAlloc        00467280 f   libucrtd:debug_heap.obj
 0001:00066290       ___p__crtDbgFlag           00467290 f   libucrtd:debug_heap.obj
 0001:000662a0       __aligned_free_dbg         004672a0 f   libucrtd:debug_heap.obj
 0001:00066380       __aligned_malloc_dbg       00467380 f   libucrtd:debug_heap.obj
 0001:000663b0       __aligned_msize_dbg        004673b0 f   libucrtd:debug_heap.obj
 0001:00066520       __aligned_offset_malloc_dbg 00467520 f   libucrtd:debug_heap.obj
 0001:00066770       __aligned_offset_realloc_dbg 00467770 f   libucrtd:debug_heap.obj
 0001:00066b40       __aligned_offset_recalloc_dbg 00467b40 f   libucrtd:debug_heap.obj
 0001:00066c30       __aligned_realloc_dbg      00467c30 f   libucrtd:debug_heap.obj
 0001:00066c60       __aligned_recalloc_dbg     00467c60 f   libucrtd:debug_heap.obj
 0001:00066ca0       __calloc_dbg               00467ca0 f   libucrtd:debug_heap.obj
 0001:00066d30       __expand_dbg               00467d30 f   libucrtd:debug_heap.obj
 0001:00066eb0       __free_dbg                 00467eb0 f   libucrtd:debug_heap.obj
 0001:00066f90       __invoke_watson_if_oneof   00467f90 f i libucrtd:debug_heap.obj
 0001:00066fe0       __malloc_dbg               00467fe0 f   libucrtd:debug_heap.obj
 0001:00067010       __msize_dbg                00468010 f   libucrtd:debug_heap.obj
 0001:00067200       __realloc_dbg              00468200 f   libucrtd:debug_heap.obj
 0001:000672d0       __recalloc_dbg             004682d0 f   libucrtd:debug_heap.obj
 0001:00067780       _strcpy_s                  00468780 f   libucrtd:strcpy_s.obj
 0001:000677b0       __set_abort_behavior       004687b0 f   libucrtd:abort.obj
 0001:000677f0       _abort                     004687f0 f   libucrtd:abort.obj
 0001:00067880       ??$?RU?$__crt_report_hook_node@D@@@__crt_internal_free_policy@@QBEXQBU?$__crt_report_hook_node@D@@@Z 00468880 f i libucrtd:dbgrpt.obj
 0001:000678b0       ??$?RU?$__crt_report_hook_node@_W@@@__crt_internal_free_policy@@QBEXQBU?$__crt_report_hook_node@_W@@@Z 004688b0 f i libucrtd:dbgrpt.obj
 0001:000678e0       ??$?RV<lambda_4385efabcfedf7d3ecea3114bb4d80a3>@@AAV<lambda_0e04737ef8baea6dabca2b8414b05b67>@@V<lambda_d865d276f220a9fa71140df531e906d8>@@@?$__crt_seh_guarded_call@H@@QAEH$$QAV<lambda_4385efabcfedf7d3ecea3114bb4d80a3>@@AAV<lambda_0e04737ef8baea6dabca2b8414b05b67>@@$$QAV<lambda_d865d276f220a9fa71140df531e906d8>@@@Z 004688e0 f i libucrtd:dbgrpt.obj
 0001:00067990       ??$?RV<lambda_cc3a1c0f52e01ba2b29fe175588291fc>@@AAV<lambda_fe667bea668416e0f0232b481cd5c955>@@V<lambda_bb8fdd70844b93de4445abd0f0332611>@@@?$__crt_seh_guarded_call@H@@QAEH$$QAV<lambda_cc3a1c0f52e01ba2b29fe175588291fc>@@AAV<lambda_fe667bea668416e0f0232b481cd5c955>@@$$QAV<lambda_bb8fdd70844b93de4445abd0f0332611>@@@Z 00468990 f i libucrtd:dbgrpt.obj
 0001:00067a40       ??$__acrt_lock_and_call@V<lambda_0e04737ef8baea6dabca2b8414b05b67>@@@@YAHW4__acrt_lock_id@@$$QAV<lambda_0e04737ef8baea6dabca2b8414b05b67>@@@Z 00468a40 f i libucrtd:dbgrpt.obj
 0001:00067a90       ??$__acrt_lock_and_call@V<lambda_fe667bea668416e0f0232b481cd5c955>@@@@YAHW4__acrt_lock_id@@$$QAV<lambda_fe667bea668416e0f0232b481cd5c955>@@@Z 00468a90 f i libucrtd:dbgrpt.obj
 0001:00067ae0       ??$__vcrt_va_start_verify_argument_type@QB_W@@YAXXZ 00468ae0 f i libucrtd:dbgrpt.obj
 0001:000689e0       ??$get_module_file_name@AAPAUHINSTANCE__@@AAY0BAF@DK@?$__crt_char_traits@D@@SAKAAPAUHINSTANCE__@@AAY0BAF@D$$QAK@Z 004699e0 f i libucrtd:dbgrpt.obj
 0001:00068a10       ??$get_module_file_name@AAPAUHINSTANCE__@@AAY0BAF@_WK@?$__crt_char_traits@_W@@SAKAAPAUHINSTANCE__@@AAY0BAF@_W$$QAK@Z 00469a10 f i libucrtd:dbgrpt.obj
 0001:00068a40       ??$tcscpy_s@AAY0BAF@DIPBD@?$__crt_char_traits@D@@SAHAAY0BAF@D$$QAI$$QAPBD@Z 00469a40 f i libucrtd:dbgrpt.obj
 0001:00068a70       ??$tcscpy_s@AAY0BAF@_WIPB_W@?$__crt_char_traits@_W@@SAHAAY0BAF@_W$$QAI$$QAPB_W@Z 00469a70 f i libucrtd:dbgrpt.obj
 0001:00068aa0       ??$tcslen@AAY0BAF@D@?$__crt_char_traits@D@@SAIAAY0BAF@D@Z 00469aa0 f i libucrtd:dbgrpt.obj
 0001:00068ac0       ??$tcslen@AAY0BAF@_W@?$__crt_char_traits@_W@@SAIAAY0BAF@_W@Z 00469ac0 f i libucrtd:dbgrpt.obj
 0001:00068ae0       ??$tcslen@ABQBD@?$__crt_char_traits@D@@SAIABQBD@Z 00469ae0 f i libucrtd:dbgrpt.obj
 0001:00068b00       ??$tcslen@ABQB_W@?$__crt_char_traits@_W@@SAIABQB_W@Z 00469b00 f i libucrtd:dbgrpt.obj
 0001:00068c40       ??0?$__crt_unique_heap_ptr@U?$__crt_report_hook_node@D@@U__crt_internal_free_policy@@@@QAE@QAU?$__crt_report_hook_node@D@@@Z 00469c40 f i libucrtd:dbgrpt.obj
 0001:00068c60       ??0?$__crt_unique_heap_ptr@U?$__crt_report_hook_node@_W@@U__crt_internal_free_policy@@@@QAE@QAU?$__crt_report_hook_node@_W@@@Z 00469c60 f i libucrtd:dbgrpt.obj
 0001:00068c80       ??1?$__crt_unique_heap_ptr@U?$__crt_report_hook_node@D@@U__crt_internal_free_policy@@@@QAE@XZ 00469c80 f i libucrtd:dbgrpt.obj
 0001:00068ca0       ??1?$__crt_unique_heap_ptr@U?$__crt_report_hook_node@_W@@U__crt_internal_free_policy@@@@QAE@XZ 00469ca0 f i libucrtd:dbgrpt.obj
 0001:00068cc0       ??B?$__crt_unique_heap_ptr@U?$__crt_report_hook_node@D@@U__crt_internal_free_policy@@@@QBE_NXZ 00469cc0 f i libucrtd:dbgrpt.obj
 0001:00068ce0       ??B?$__crt_unique_heap_ptr@U?$__crt_report_hook_node@_W@@U__crt_internal_free_policy@@@@QBE_NXZ 00469ce0 f i libucrtd:dbgrpt.obj
 0001:00069380       ?detach@?$__crt_unique_heap_ptr@U?$__crt_report_hook_node@D@@U__crt_internal_free_policy@@@@QAEPAU?$__crt_report_hook_node@D@@XZ 0046a380 f i libucrtd:dbgrpt.obj
 0001:000693b0       ?detach@?$__crt_unique_heap_ptr@U?$__crt_report_hook_node@_W@@U__crt_internal_free_policy@@@@QAEPAU?$__crt_report_hook_node@_W@@XZ 0046a3b0 f i libucrtd:dbgrpt.obj
 0001:000693e0       ?get@?$__crt_unique_heap_ptr@U?$__crt_report_hook_node@D@@U__crt_internal_free_policy@@@@QBEPAU?$__crt_report_hook_node@D@@XZ 0046a3e0 f i libucrtd:dbgrpt.obj
 0001:00069400       ?get@?$__crt_unique_heap_ptr@U?$__crt_report_hook_node@_W@@U__crt_internal_free_policy@@@@QBEPAU?$__crt_report_hook_node@_W@@XZ 0046a400 f i libucrtd:dbgrpt.obj
 0001:00069480       ?is_valid@?$__crt_unique_heap_ptr@U?$__crt_report_hook_node@D@@U__crt_internal_free_policy@@@@QBE_NXZ 0046a480 f i libucrtd:dbgrpt.obj
 0001:000694c0       ?is_valid@?$__crt_unique_heap_ptr@U?$__crt_report_hook_node@_W@@U__crt_internal_free_policy@@@@QBE_NXZ 0046a4c0 f i libucrtd:dbgrpt.obj
 0001:00069500       ?release@?$__crt_unique_heap_ptr@U?$__crt_report_hook_node@D@@U__crt_internal_free_policy@@@@QAEXXZ 0046a500 f i libucrtd:dbgrpt.obj
 0001:00069540       ?release@?$__crt_unique_heap_ptr@U?$__crt_report_hook_node@_W@@U__crt_internal_free_policy@@@@QAEXXZ 0046a540 f i libucrtd:dbgrpt.obj
 0001:00069580       __CrtDbgReport             0046a580 f   libucrtd:dbgrpt.obj
 0001:000695e0       __CrtDbgReportW            0046a5e0 f   libucrtd:dbgrpt.obj
 0001:00069640       __CrtSetReportHook2        0046a640 f   libucrtd:dbgrpt.obj
 0001:00069660       __CrtSetReportHookW2       0046a660 f   libucrtd:dbgrpt.obj
 0001:00069680       ___acrt_MessageWindowA     0046a680 f   libucrtd:dbgrpt.obj
 0001:000696b0       ___acrt_MessageWindowW     0046a6b0 f   libucrtd:dbgrpt.obj
 0001:000696e0       __snwprintf_s              0046a6e0 f i libucrtd:dbgrpt.obj
 0001:00069740       __vsnwprintf_s_l           0046a740 f i libucrtd:dbgrpt.obj
 0001:000697b0       ??$is_overflow_condition@K@__crt_strtox@@YA_NIK@Z 0046a7b0 f i libucrtd:atox.obj
 0001:00069820       ??$is_overflow_condition@_K@__crt_strtox@@YA_NI_K@Z 0046a820 f i libucrtd:atox.obj
 0001:000698d0       ??$make_c_string_character_source@D$$T@__crt_strtox@@YA?AV?$c_string_character_source@D@0@QBD$$T@Z 0046a8d0 f i libucrtd:atox.obj
 0001:000698f0       ??$make_c_string_character_source@_W$$T@__crt_strtox@@YA?AV?$c_string_character_source@_W@0@QB_W$$T@Z 0046a8f0 f i libucrtd:atox.obj
 0001:00069910       ??$parse_integer@KV?$c_string_character_source@D@__crt_strtox@@@__crt_strtox@@YAKQAU__crt_locale_pointers@@V?$c_string_character_source@D@0@H_N@Z 0046a910 f i libucrtd:atox.obj
 0001:00069d60       ??$parse_integer@KV?$c_string_character_source@_W@__crt_strtox@@@__crt_strtox@@YAKQAU__crt_locale_pointers@@V?$c_string_character_source@_W@0@H_N@Z 0046ad60 f i libucrtd:atox.obj
 0001:0006a1b0       ??$parse_integer@_KV?$c_string_character_source@D@__crt_strtox@@@__crt_strtox@@YA_KQAU__crt_locale_pointers@@V?$c_string_character_source@D@0@H_N@Z 0046b1b0 f i libucrtd:atox.obj
 0001:0006a6d0       ??$parse_integer@_KV?$c_string_character_source@_W@__crt_strtox@@@__crt_strtox@@YA_KQAU__crt_locale_pointers@@V?$c_string_character_source@_W@0@H_N@Z 0046b6d0 f i libucrtd:atox.obj
 0001:0006ac10       ??$parse_integer_from_string@JD$$T@__crt_strtox@@YAJQBD$$THQAU__crt_locale_pointers@@@Z 0046bc10 f i libucrtd:atox.obj
 0001:0006ac60       ??$parse_integer_from_string@J_W$$T@__crt_strtox@@YAJQB_W$$THQAU__crt_locale_pointers@@@Z 0046bc60 f i libucrtd:atox.obj
 0001:0006acb0       ??$parse_integer_from_string@_JD$$T@__crt_strtox@@YA_JQBD$$THQAU__crt_locale_pointers@@@Z 0046bcb0 f i libucrtd:atox.obj
 0001:0006ad00       ??$parse_integer_from_string@_J_W$$T@__crt_strtox@@YA_JQB_W$$THQAU__crt_locale_pointers@@@Z 0046bd00 f i libucrtd:atox.obj
 0001:0006ad50       ??0?$c_string_character_source@D@__crt_strtox@@QAE@QBDQAPBD@Z 0046bd50 f i libucrtd:atox.obj
 0001:0006ad90       ??0?$c_string_character_source@_W@__crt_strtox@@QAE@QB_WQAPB_W@Z 0046bd90 f i libucrtd:atox.obj
 0001:0006add0       ??1?$c_string_character_source@D@__crt_strtox@@QAE@XZ 0046bdd0 f i libucrtd:atox.obj
 0001:0006ae00       ??1?$c_string_character_source@_W@__crt_strtox@@QAE@XZ 0046be00 f i libucrtd:atox.obj
 0001:0006ae30       ?get@?$c_string_character_source@D@__crt_strtox@@QAEDXZ 0046be30 f i libucrtd:atox.obj
 0001:0006ae70       ?get@?$c_string_character_source@_W@__crt_strtox@@QAE_WXZ 0046be70 f i libucrtd:atox.obj
 0001:0006aeb0       ?is_space@__crt_strtox@@YA_NDQAU__crt_locale_pointers@@@Z 0046beb0 f i libucrtd:atox.obj
 0001:0006af00       ?is_space@__crt_strtox@@YA_N_WPAU__crt_locale_pointers@@@Z 0046bf00 f i libucrtd:atox.obj
 0001:0006af40       ?maximum_signed_value@__crt_strtox@@YAJK@Z 0046bf40 f i libucrtd:atox.obj
 0001:0006af50       ?maximum_signed_value@__crt_strtox@@YA_J_K@Z 0046bf50 f i libucrtd:atox.obj
 0001:0006af70       ?minimum_signed_value@__crt_strtox@@YAJK@Z 0046bf70 f i libucrtd:atox.obj
 0001:0006af80       ?minimum_signed_value@__crt_strtox@@YA_J_K@Z 0046bf80 f i libucrtd:atox.obj
 0001:0006afa0       ?parse_digit@__crt_strtox@@YAID@Z 0046bfa0 f i libucrtd:atox.obj
 0001:0006b020       ?parse_digit@__crt_strtox@@YAI_W@Z 0046c020 f i libucrtd:atox.obj
 0001:0006b0c0       ?restore_state@?$c_string_character_source@D@__crt_strtox@@QAE_NQBD@Z 0046c0c0 f i libucrtd:atox.obj
 0001:0006b0e0       ?restore_state@?$c_string_character_source@_W@__crt_strtox@@QAE_NQB_W@Z 0046c0e0 f i libucrtd:atox.obj
 0001:0006b100       ?save_state@?$c_string_character_source@D@__crt_strtox@@QBEPBDXZ 0046c100 f i libucrtd:atox.obj
 0001:0006b120       ?save_state@?$c_string_character_source@_W@__crt_strtox@@QBEPB_WXZ 0046c120 f i libucrtd:atox.obj
 0001:0006b140       ?unget@?$c_string_character_source@D@__crt_strtox@@QAEXD@Z 0046c140 f i libucrtd:atox.obj
 0001:0006b210       ?unget@?$c_string_character_source@_W@__crt_strtox@@QAEX_W@Z 0046c210 f i libucrtd:atox.obj
 0001:0006b2e0       ?validate@?$c_string_character_source@D@__crt_strtox@@QBE_NXZ 0046c2e0 f i libucrtd:atox.obj
 0001:0006b3a0       ?validate@?$c_string_character_source@_W@__crt_strtox@@QBE_NXZ 0046c3a0 f i libucrtd:atox.obj
 0001:0006b460       ?wide_character_to_digit@__crt_strtox@@YAH_W@Z 0046c460 f i libucrtd:atox.obj
 0001:0006b850       __atoi64                   0046c850 f   libucrtd:atox.obj
 0001:0006b870       __atoi64_l                 0046c870 f   libucrtd:atox.obj
 0001:0006b8a0       __atoi_l                   0046c8a0 f   libucrtd:atox.obj
 0001:0006b8d0       __atol_l                   0046c8d0 f   libucrtd:atox.obj
 0001:0006b900       __atoll_l                  0046c900 f   libucrtd:atox.obj
 0001:0006b930       __wtoi                     0046c930 f   libucrtd:atox.obj
 0001:0006b950       __wtoi64                   0046c950 f   libucrtd:atox.obj
 0001:0006b970       __wtoi64_l                 0046c970 f   libucrtd:atox.obj
 0001:0006b9a0       __wtoi_l                   0046c9a0 f   libucrtd:atox.obj
 0001:0006b9d0       __wtol                     0046c9d0 f   libucrtd:atox.obj
 0001:0006b9f0       __wtol_l                   0046c9f0 f   libucrtd:atox.obj
 0001:0006ba20       __wtoll                    0046ca20 f   libucrtd:atox.obj
 0001:0006ba40       __wtoll_l                  0046ca40 f   libucrtd:atox.obj
 0001:0006ba70       _atoi                      0046ca70 f   libucrtd:atox.obj
 0001:0006ba90       _atol                      0046ca90 f   libucrtd:atox.obj
 0001:0006bab0       _atoll                     0046cab0 f   libucrtd:atox.obj
 0001:0006bad0       ??$__crt_fast_decode_pointer@P6AXPB_W00II@Z@@YAP6AXPB_W00II@ZQ6AX000II@Z@Z 0046cad0 f i libucrtd:invalid_parameter.obj
 0001:0006bb10       ??$__crt_fast_encode_pointer@P6AXPB_W00II@Z@@YAP6AXPB_W00II@ZQ6AX000II@Z@Z 0046cb10 f i libucrtd:invalid_parameter.obj
 0001:0006bb50       ?initialize@?$dual_state_global@P6AXPB_W00II@Z@__crt_state_management@@QAEXQ6AXPB_W00II@Z@Z 0046cb50 f i libucrtd:invalid_parameter.obj
 0001:0006bba0       ?value@?$dual_state_global@P6AXPB_W00II@Z@__crt_state_management@@QAEAAP6AXPB_W00II@ZXZ 0046cba0 f i libucrtd:invalid_parameter.obj
 0001:0006bbc0       ___acrt_call_reportfault   0046cbc0 f   libucrtd:invalid_parameter.obj
 0001:0006bd70       ___acrt_initialize_invalid_parameter_handler 0046cd70 f   libucrtd:invalid_parameter.obj
 0001:0006bd90       __get_invalid_parameter_handler 0046cd90 f   libucrtd:invalid_parameter.obj
 0001:0006bdc0       __get_thread_local_invalid_parameter_handler 0046cdc0 f   libucrtd:invalid_parameter.obj
 0001:0006bdf0       __invalid_parameter        0046cdf0 f   libucrtd:invalid_parameter.obj
 0001:0006bef0       __invalid_parameter_noinfo 0046cef0 f   libucrtd:invalid_parameter.obj
 0001:0006bf10       __invalid_parameter_noinfo_noreturn 0046cf10 f   libucrtd:invalid_parameter.obj
 0001:0006bf50       __invoke_watson            0046cf50 f   libucrtd:invalid_parameter.obj
 0001:0006bfa0       __set_invalid_parameter_handler 0046cfa0 f   libucrtd:invalid_parameter.obj
 0001:0006c000       __set_thread_local_invalid_parameter_handler 0046d000 f   libucrtd:invalid_parameter.obj
 0001:0006c040       ___acrt_errno_from_os_error 0046d040 f   libucrtd:errno.obj
 0001:0006c0e0       ___acrt_errno_map_os_error 0046d0e0 f   libucrtd:errno.obj
 0001:0006c120       ___doserrno                0046d120 f   libucrtd:errno.obj
 0001:0006c150       __errno                    0046d150 f   libucrtd:errno.obj
 0001:0006c180       __get_doserrno             0046d180 f   libucrtd:errno.obj
 0001:0006c230       __get_errno                0046d230 f   libucrtd:errno.obj
 0001:0006c2e0       __set_doserrno             0046d2e0 f   libucrtd:errno.obj
 0001:0006c320       __set_errno                0046d320 f   libucrtd:errno.obj
 0001:0006c3c0       ??$?B$$A6GHPA_WKJ@Z@__crt_fast_encoded_nullptr_t@@QBEP6GHPA_WKJ@ZXZ 0046d3c0 f i libucrtd:winapi_thunks.obj
 0001:0006c3e0       ??$?RV<lambda_9227be29367c048ad7fd93a717dcb1a1>@@AAV<lambda_a463b7b0560cfcaf9b17f27c6ef46564>@@V<lambda_ccea11b5727ccf69be64f5f5d9a08d9f>@@@?$__crt_seh_guarded_call@H@@QAEH$$QAV<lambda_9227be29367c048ad7fd93a717dcb1a1>@@AAV<lambda_a463b7b0560cfcaf9b17f27c6ef46564>@@$$QAV<lambda_ccea11b5727ccf69be64f5f5d9a08d9f>@@@Z 0046d3e0 f i libucrtd:winapi_thunks.obj
 0001:0006c490       ??$__acrt_lock_and_call@V<lambda_a463b7b0560cfcaf9b17f27c6ef46564>@@@@YAHW4__acrt_lock_id@@$$QAV<lambda_a463b7b0560cfcaf9b17f27c6ef46564>@@@Z 0046d490 f i libucrtd:winapi_thunks.obj
 0001:0006c4e0       ??$__crt_fast_decode_pointer@P6GHPA_WKJ@Z@@YAP6GHPA_WKJ@ZQ6GH0KJ@Z@Z 0046d4e0 f i libucrtd:winapi_thunks.obj
 0001:0006c520       ??$__crt_fast_encode_pointer@P6GHPA_WKJ@Z@@YAP6GHPA_WKJ@ZQ6GH0KJ@Z@Z 0046d520 f i libucrtd:winapi_thunks.obj
 0001:0006d0f0       ___acrt_AreFileApisANSI@0  0046e0f0 f   libucrtd:winapi_thunks.obj
 0001:0006d150       ___acrt_CompareStringEx@36 0046e150 f   libucrtd:winapi_thunks.obj
 0001:0006d210       ___acrt_EnumSystemLocalesEx@16 0046e210 f   libucrtd:winapi_thunks.obj
 0001:0006d2a0       ___acrt_FlsAlloc@4         0046e2a0 f   libucrtd:winapi_thunks.obj
 0001:0006d310       ___acrt_FlsFree@4          0046e310 f   libucrtd:winapi_thunks.obj
 0001:0006d380       ___acrt_FlsGetValue@4      0046e380 f   libucrtd:winapi_thunks.obj
 0001:0006d3f0       ___acrt_FlsSetValue@8      0046e3f0 f   libucrtd:winapi_thunks.obj
 0001:0006d460       ___acrt_GetDateFormatEx@28 0046e460 f   libucrtd:winapi_thunks.obj
 0001:0006d510       ___acrt_GetEnabledXStateFeatures@0 0046e510 f   libucrtd:winapi_thunks.obj
 0001:0006d570       ___acrt_GetFileInformationByHandleEx@16 0046e570 f   libucrtd:winapi_thunks.obj
 0001:0006d5f0       ___acrt_GetLocaleInfoEx@16 0046e5f0 f   libucrtd:winapi_thunks.obj
 0001:0006d680       ___acrt_GetSystemTimePreciseAsFileTime@4 0046e680 f   libucrtd:winapi_thunks.obj
 0001:0006d6f0       ___acrt_GetTimeFormatEx@24 0046e6f0 f   libucrtd:winapi_thunks.obj
 0001:0006d7a0       ___acrt_GetUserDefaultLocaleName@8 0046e7a0 f   libucrtd:winapi_thunks.obj
 0001:0006d820       ___acrt_GetXStateFeaturesMask@8 0046e820 f   libucrtd:winapi_thunks.obj
 0001:0006d890       ___acrt_InitializeCriticalSectionEx@12 0046e890 f   libucrtd:winapi_thunks.obj
 0001:0006d910       ___acrt_IsValidLocaleName@4 0046e910 f   libucrtd:winapi_thunks.obj
 0001:0006d990       ___acrt_LCIDToLocaleName@16 0046e990 f   libucrtd:winapi_thunks.obj
 0001:0006da20       ___acrt_LCMapStringEx@36   0046ea20 f   libucrtd:winapi_thunks.obj
 0001:0006dae0       ___acrt_LocaleNameToLCID@8 0046eae0 f   libucrtd:winapi_thunks.obj
 0001:0006db50       ___acrt_LocateXStateFeature@12 0046eb50 f   libucrtd:winapi_thunks.obj
 0001:0006dbc0       ___acrt_MessageBoxA@16     0046ebc0 f   libucrtd:winapi_thunks.obj
 0001:0006dc30       ___acrt_MessageBoxW@16     0046ec30 f   libucrtd:winapi_thunks.obj
 0001:0006dca0       ___acrt_RoInitialize@4     0046eca0 f   libucrtd:winapi_thunks.obj
 0001:0006dd00       ___acrt_RoUninitialize@0   0046ed00 f   libucrtd:winapi_thunks.obj
 0001:0006dd50       ___acrt_RtlGenRandom@8     0046ed50 f   libucrtd:winapi_thunks.obj
 0001:0006ddc0       ___acrt_SetThreadStackGuarantee@4 0046edc0 f   libucrtd:winapi_thunks.obj
 0001:0006de20       ___acrt_can_show_message_box 0046ee20 f   libucrtd:winapi_thunks.obj
 0001:0006de60       ___acrt_can_use_vista_locale_apis 0046ee60 f   libucrtd:winapi_thunks.obj
 0001:0006de90       ___acrt_can_use_xstate_apis 0046ee90 f   libucrtd:winapi_thunks.obj
 0001:0006dec0       ___acrt_get_parent_window  0046eec0 f   libucrtd:winapi_thunks.obj
 0001:0006df60       ___acrt_initialize_winapi_thunks 0046ef60 f   libucrtd:winapi_thunks.obj
 0001:0006dfe0       ___acrt_is_interactive     0046efe0 f   libucrtd:winapi_thunks.obj
 0001:0006e0b0       ___acrt_is_packaged_app    0046f0b0 f   libucrtd:winapi_thunks.obj
 0001:0006e210       ___acrt_uninitialize_winapi_thunks 0046f210 f   libucrtd:winapi_thunks.obj
 0001:0006e2a0       __fcloseall                0046f2a0 f   libucrtd:closeall.obj
 0001:0006e420       ___acrt_stdio_free_buffer_nolock 0046f420 f   libucrtd:_freebuf.obj
 0001:0006e870       ___acrt_initialize_lowio   0046f870 f   libucrtd:ioinit.obj
 0001:0006e930       ___acrt_uninitialize_lowio 0046f930 f   libucrtd:ioinit.obj
 0001:0006e9a0       ??$?RV<lambda_4d8dda1ac129e11742d77ae5e3bbda74>@@AAV<lambda_a8f98972ebaa5f7148d35bffe53bd70d>@@V<lambda_5193b64c98d743723bd5dcf162a72339>@@@?$__crt_seh_guarded_call@H@@QAEH$$QAV<lambda_4d8dda1ac129e11742d77ae5e3bbda74>@@AAV<lambda_a8f98972ebaa5f7148d35bffe53bd70d>@@$$QAV<lambda_5193b64c98d743723bd5dcf162a72339>@@@Z 0046f9a0 f i libucrtd:close.obj
 0001:0006ea50       ??$__acrt_lowio_lock_fh_and_call@V<lambda_a8f98972ebaa5f7148d35bffe53bd70d>@@@@YAHH$$QAV<lambda_a8f98972ebaa5f7148d35bffe53bd70d>@@@Z 0046fa50 f i libucrtd:close.obj
 0001:0006ed10       __close                    0046fd10 f   libucrtd:close.obj
 0001:0006eee0       __close_nolock             0046fee0 f   libucrtd:close.obj
 0001:0006ef50       __fileno                   0046ff50 f   libucrtd:fileno.obj
 0001:0006f020       ??$?RU__crt_stdio_stream_data@@@__crt_internal_free_policy@@QBEXQBU__crt_stdio_stream_data@@@Z 00470020 f i libucrtd:stream.obj
 0001:0006f050       ??0?$__crt_unique_heap_ptr@U__crt_stdio_stream_data@@U__crt_internal_free_policy@@@@QAE@QAU__crt_stdio_stream_data@@@Z 00470050 f i libucrtd:stream.obj
 0001:0006f070       ??0__crt_stdio_stream@@QAE@XZ 00470070 f i libucrtd:stream.obj
 0001:0006f090       ??1?$__crt_unique_heap_ptr@U__crt_stdio_stream_data@@U__crt_internal_free_policy@@@@QAE@XZ 00470090 f i libucrtd:stream.obj
 0001:0006f0b0       ?__acrt_stdio_allocate_stream@@YA?AV__crt_stdio_stream@@XZ 004700b0 f   libucrtd:stream.obj
 0001:0006f1e0       ?__acrt_stdio_free_stream@@YAXV__crt_stdio_stream@@@Z 004701e0 f   libucrtd:stream.obj
 0001:0006f280       ?deallocate@__crt_stdio_stream@@QAEXXZ 00470280 f i libucrtd:stream.obj
 0001:0006f2a0       ?detach@?$__crt_unique_heap_ptr@U__crt_stdio_stream_data@@U__crt_internal_free_policy@@@@QAEPAU__crt_stdio_stream_data@@XZ 004702a0 f i libucrtd:stream.obj
 0001:0006f460       ?lock@__crt_stdio_stream@@QBEXXZ 00470460 f i libucrtd:stream.obj
 0001:0006f490       ?release@?$__crt_unique_heap_ptr@U__crt_stdio_stream_data@@U__crt_internal_free_policy@@@@QAEXXZ 00470490 f i libucrtd:stream.obj
 0001:0006f4d0       ?try_allocate@__crt_stdio_stream@@QAE_NXZ 004704d0 f i libucrtd:stream.obj
 0001:0006f530       ??$__acrt_stdio_parse_mode@D@@YA?AU__acrt_stdio_stream_mode@@QBD@Z 00470530 f i libucrtd:openfile.obj
 0001:0006ffb0       ??$__acrt_stdio_parse_mode@_W@@YA?AU__acrt_stdio_stream_mode@@QB_W@Z 00470fb0 f i libucrtd:openfile.obj
 0001:00070e10       ??$tcsncmp@AAPBDAAY02$$CBDI@?$__crt_char_traits@D@@SAHAAPBDAAY02$$CBD$$QAI@Z 00471e10 f i libucrtd:openfile.obj
 0001:00070e40       ??$tcsncmp@AAPB_WAAY02$$CB_WI@?$__crt_char_traits@_W@@SAHAAPB_WAAY02$$CB_W$$QAI@Z 00471e40 f i libucrtd:openfile.obj
 0001:00070e70       ??$tcsnicmp@AAPBDAAY04$$CBDI@?$__crt_char_traits@D@@SAHAAPBDAAY04$$CBD$$QAI@Z 00471e70 f i libucrtd:openfile.obj
 0001:00070ea0       ??$tcsnicmp@AAPBDAAY06$$CBDI@?$__crt_char_traits@D@@SAHAAPBDAAY06$$CBD$$QAI@Z 00471ea0 f i libucrtd:openfile.obj
 0001:00070ed0       ??$tcsnicmp@AAPBDAAY07$$CBDI@?$__crt_char_traits@D@@SAHAAPBDAAY07$$CBD$$QAI@Z 00471ed0 f i libucrtd:openfile.obj
 0001:00070f00       ??$tcsnicmp@AAPB_WAAY04$$CB_WI@?$__crt_char_traits@_W@@SAHAAPB_WAAY04$$CB_W$$QAI@Z 00471f00 f i libucrtd:openfile.obj
 0001:00070f30       ??$tcsnicmp@AAPB_WAAY06$$CB_WI@?$__crt_char_traits@_W@@SAHAAPB_WAAY06$$CB_W$$QAI@Z 00471f30 f i libucrtd:openfile.obj
 0001:00070f60       ??$tcsnicmp@AAPB_WAAY07$$CB_WI@?$__crt_char_traits@_W@@SAHAAPB_WAAY07$$CB_W$$QAI@Z 00471f60 f i libucrtd:openfile.obj
 0001:00070f90       ??$tsopen_s@PAHABQBDABHABHH@?$__crt_char_traits@D@@SAH$$QAPAHABQBDABH2$$QAH@Z 00471f90 f i libucrtd:openfile.obj
 0001:00070fd0       ??$tsopen_s@PAHABQB_WABHABHH@?$__crt_char_traits@_W@@SAH$$QAPAHABQB_WABH2$$QAH@Z 00471fd0 f i libucrtd:openfile.obj
 0001:00071010       ?__acrt_stdio_parse_mode_D@@YA_NAAU__acrt_stdio_stream_mode@@@Z 00472010 f i libucrtd:openfile.obj
 0001:00071040       ?__acrt_stdio_parse_mode_N@@YA_NAAU__acrt_stdio_stream_mode@@@Z 00472040 f i libucrtd:openfile.obj
 0001:00071060       ?__acrt_stdio_parse_mode_R@@YA_NAAU__acrt_stdio_stream_mode@@AA_N@Z 00472060 f i libucrtd:openfile.obj
 0001:000710a0       ?__acrt_stdio_parse_mode_S@@YA_NAAU__acrt_stdio_stream_mode@@AA_N@Z 004720a0 f i libucrtd:openfile.obj
 0001:000710e0       ?__acrt_stdio_parse_mode_T@@YA_NAAU__acrt_stdio_stream_mode@@@Z 004720e0 f i libucrtd:openfile.obj
 0001:00071120       ?__acrt_stdio_parse_mode_b@@YA_NAAU__acrt_stdio_stream_mode@@@Z 00472120 f i libucrtd:openfile.obj
 0001:00071160       ?__acrt_stdio_parse_mode_c@@YA_NAAU__acrt_stdio_stream_mode@@AA_N@Z 00472160 f i libucrtd:openfile.obj
 0001:000711a0       ?__acrt_stdio_parse_mode_n@@YA_NAAU__acrt_stdio_stream_mode@@AA_N@Z 004721a0 f i libucrtd:openfile.obj
 0001:000711e0       ?__acrt_stdio_parse_mode_plus@@YA_NAAU__acrt_stdio_stream_mode@@AA_N@Z 004721e0 f i libucrtd:openfile.obj
 0001:00071260       ?__acrt_stdio_parse_mode_t@@YA_NAAU__acrt_stdio_stream_mode@@@Z 00472260 f i libucrtd:openfile.obj
 0001:000712a0       __openfile                 004722a0 f   libucrtd:openfile.obj
 0001:000712e0       __wopenfile                004722e0 f   libucrtd:openfile.obj
 0001:00071c30       ___acrt_stdio_flush_and_write_narrow_nolock 00472c30 f   libucrtd:_flsbuf.obj
 0001:00071c60       ___acrt_stdio_flush_and_write_wide_nolock 00472c60 f   libucrtd:_flsbuf.obj
 0001:000728f0       __read                     004738f0 f   libucrtd:read.obj
 0001:00072c90       __read_nolock              00473c90 f   libucrtd:read.obj
 0001:000741f0       ___acrt_stdio_refill_and_read_narrow_nolock 004751f0 f   libucrtd:_filbuf.obj
 0001:00074220       ___acrt_stdio_refill_and_read_wide_nolock 00475220 f   libucrtd:_filbuf.obj
 0001:00074b90       __lseek                    00475b90 f   libucrtd:lseek.obj
 0001:00074bc0       __lseek_nolock             00475bc0 f   libucrtd:lseek.obj
 0001:00074bf0       __lseeki64                 00475bf0 f   libucrtd:lseek.obj
 0001:00074c20       __lseeki64_nolock          00475c20 f   libucrtd:lseek.obj
 0001:00074c50       ___acrt_copy_path_to_wide_string 00475c50 f   libucrtd:string_utilities.obj
 0001:00074ef0       ___acrt_copy_to_char       00475ef0 f   libucrtd:string_utilities.obj
 0001:00075190       __wremove                  00476190 f   libucrtd:wunlink.obj
 0001:000751d0       __wunlink                  004761d0 f   libucrtd:wunlink.obj
 0001:000751f0       __wrename                  004761f0 f   libucrtd:wrename.obj
 0001:00075250       ___isascii                 00476250 f i libucrtd:_ctype.obj
 0001:00075280       ___iscsym                  00476280 f i libucrtd:_ctype.obj
 0001:000752d0       ___iscsymf                 004762d0 f i libucrtd:_ctype.obj
 0001:00075310       ___toascii                 00476310 f i libucrtd:_ctype.obj
 0001:00075320       __isalnum_l                00476320 f i libucrtd:_ctype.obj
 0001:00075370       __isalpha_l                00476370 f i libucrtd:_ctype.obj
 0001:000753c0       __isblank_l                004763c0 f i libucrtd:_ctype.obj
 0001:00075430       __iscntrl_l                00476430 f i libucrtd:_ctype.obj
 0001:00075480       __iscsym_l                 00476480 f i libucrtd:_ctype.obj
 0001:000754d0       __iscsymf_l                004764d0 f i libucrtd:_ctype.obj
 0001:00075520       __isdigit_l                00476520 f i libucrtd:_ctype.obj
 0001:00075570       __isgraph_l                00476570 f i libucrtd:_ctype.obj
 0001:000755c0       __islower_l                004765c0 f i libucrtd:_ctype.obj
 0001:00075610       __isprint_l                00476610 f i libucrtd:_ctype.obj
 0001:00075660       __ispunct_l                00476660 f i libucrtd:_ctype.obj
 0001:000756b0       __isspace_l                004766b0 f i libucrtd:_ctype.obj
 0001:00075700       __isupper_l                00476700 f i libucrtd:_ctype.obj
 0001:00075750       __isxdigit_l               00476750 f i libucrtd:_ctype.obj
 0001:000757a0       _isalnum                   004767a0 f i libucrtd:_ctype.obj
 0001:000757f0       _isalpha                   004767f0 f i libucrtd:_ctype.obj
 0001:00075840       _isblank                   00476840 f i libucrtd:_ctype.obj
 0001:000758b0       _iscntrl                   004768b0 f i libucrtd:_ctype.obj
 0001:00075900       _isdigit                   00476900 f i libucrtd:_ctype.obj
 0001:00075950       _isgraph                   00476950 f i libucrtd:_ctype.obj
 0001:000759a0       _islower                   004769a0 f i libucrtd:_ctype.obj
 0001:000759f0       _isprint                   004769f0 f i libucrtd:_ctype.obj
 0001:00075a40       _ispunct                   00476a40 f i libucrtd:_ctype.obj
 0001:00075a90       _isspace                   00476a90 f i libucrtd:_ctype.obj
 0001:00075ae0       _isupper                   00476ae0 f i libucrtd:_ctype.obj
 0001:00075b30       _isxdigit                  00476b30 f i libucrtd:_ctype.obj
 0001:00075b80       __CrtGetDebugFillThreshold 00476b80 f   libucrtd:debug_fill_threshold.obj
 0001:00075b90       __CrtSetDebugFillThreshold 00476b90 f   libucrtd:debug_fill_threshold.obj
 0001:00075bc0       ??$make_c_string_character_source@DPAPAD@__crt_strtox@@YA?AV?$c_string_character_source@D@0@QBDQAPAD@Z 00476bc0 f i libucrtd:strtox.obj
 0001:00075be0       ??$make_c_string_character_source@_WPAPA_W@__crt_strtox@@YA?AV?$c_string_character_source@_W@0@QB_WQAPA_W@Z 00476be0 f i libucrtd:strtox.obj
 0001:00075c00       ??$parse_integer_from_string@JDPAPAD@__crt_strtox@@YAJQBDQAPADHQAU__crt_locale_pointers@@@Z 00476c00 f i libucrtd:strtox.obj
 0001:00075c50       ??$parse_integer_from_string@J_WPAPA_W@__crt_strtox@@YAJQB_WQAPA_WHQAU__crt_locale_pointers@@@Z 00476c50 f i libucrtd:strtox.obj
 0001:00075ca0       ??$parse_integer_from_string@KDPAPAD@__crt_strtox@@YAKQBDQAPADHQAU__crt_locale_pointers@@@Z 00476ca0 f i libucrtd:strtox.obj
 0001:00075cf0       ??$parse_integer_from_string@K_WPAPA_W@__crt_strtox@@YAKQB_WQAPA_WHQAU__crt_locale_pointers@@@Z 00476cf0 f i libucrtd:strtox.obj
 0001:00075d40       ??$parse_integer_from_string@_JDPAPAD@__crt_strtox@@YA_JQBDQAPADHQAU__crt_locale_pointers@@@Z 00476d40 f i libucrtd:strtox.obj
 0001:00075d90       ??$parse_integer_from_string@_J_WPAPA_W@__crt_strtox@@YA_JQB_WQAPA_WHQAU__crt_locale_pointers@@@Z 00476d90 f i libucrtd:strtox.obj
 0001:00075de0       ??$parse_integer_from_string@_KDPAPAD@__crt_strtox@@YA_KQBDQAPADHQAU__crt_locale_pointers@@@Z 00476de0 f i libucrtd:strtox.obj
 0001:00075e30       ??$parse_integer_from_string@_K_WPAPA_W@__crt_strtox@@YA_KQB_WQAPA_WHQAU__crt_locale_pointers@@@Z 00476e30 f i libucrtd:strtox.obj
 0001:00075e80       __strtoi64                 00476e80 f   libucrtd:strtox.obj
 0001:00075eb0       __strtoi64_l               00476eb0 f   libucrtd:strtox.obj
 0001:00075ee0       __strtoimax_l              00476ee0 f   libucrtd:strtox.obj
 0001:00075f10       __strtol_l                 00476f10 f   libucrtd:strtox.obj
 0001:00075f40       __strtoll_l                00476f40 f   libucrtd:strtox.obj
 0001:00075f70       __strtoui64                00476f70 f   libucrtd:strtox.obj
 0001:00075fa0       __strtoui64_l              00476fa0 f   libucrtd:strtox.obj
 0001:00075fd0       __strtoul_l                00476fd0 f   libucrtd:strtox.obj
 0001:00076000       __strtoull_l               00477000 f   libucrtd:strtox.obj
 0001:00076030       __strtoumax_l              00477030 f   libucrtd:strtox.obj
 0001:00076060       __wcstoi64                 00477060 f   libucrtd:strtox.obj
 0001:00076090       __wcstoi64_l               00477090 f   libucrtd:strtox.obj
 0001:000760c0       __wcstoimax_l              004770c0 f   libucrtd:strtox.obj
 0001:000760f0       __wcstol_l                 004770f0 f   libucrtd:strtox.obj
 0001:00076120       __wcstoll_l                00477120 f   libucrtd:strtox.obj
 0001:00076150       __wcstoui64                00477150 f   libucrtd:strtox.obj
 0001:00076180       __wcstoui64_l              00477180 f   libucrtd:strtox.obj
 0001:000761b0       __wcstoul_l                004771b0 f   libucrtd:strtox.obj
 0001:000761e0       __wcstoull_l               004771e0 f   libucrtd:strtox.obj
 0001:00076210       __wcstoumax_l              00477210 f   libucrtd:strtox.obj
 0001:00076240       _strtoimax                 00477240 f   libucrtd:strtox.obj
 0001:00076270       _strtol                    00477270 f   libucrtd:strtox.obj
 0001:000762a0       _strtoll                   004772a0 f   libucrtd:strtox.obj
 0001:000762d0       _strtoul                   004772d0 f   libucrtd:strtox.obj
 0001:00076300       _strtoull                  00477300 f   libucrtd:strtox.obj
 0001:00076330       _strtoumax                 00477330 f   libucrtd:strtox.obj
 0001:00076360       _wcstoimax                 00477360 f   libucrtd:strtox.obj
 0001:00076390       _wcstol                    00477390 f   libucrtd:strtox.obj
 0001:000763c0       _wcstoll                   004773c0 f   libucrtd:strtox.obj
 0001:000763f0       _wcstoul                   004773f0 f   libucrtd:strtox.obj
 0001:00076420       _wcstoull                  00477420 f   libucrtd:strtox.obj
 0001:00076450       _wcstoumax                 00477450 f   libucrtd:strtox.obj
 0001:00076480       __mbtowc_l                 00477480 f   libucrtd:mbtowc.obj
 0001:00076750       _mbtowc                    00477750 f   libucrtd:mbtowc.obj
 0001:00076780       __wctomb_l                 00477780 f   libucrtd:wctomb.obj
 0001:00076820       __wctomb_s_l               00477820 f   libucrtd:wctomb.obj
 0001:00076c30       _wctomb                    00477c30 f   libucrtd:wctomb.obj
 0001:00076c90       _wctomb_s                  00477c90 f   libucrtd:wctomb.obj
 0001:00077690       ??1?$__crt_simd_cleanup_guard@$00@@QAE@XZ 00478690 f i libucrtd:strnlen.obj
 0001:000776b0       ??1?$__crt_simd_cleanup_guard@$0A@@@QAE@XZ 004786b0 f i libucrtd:strnlen.obj
 0001:000776c0       ?compare_equals@?$__crt_simd_traits@$00E@@SA?AT__m256i@@T2@0@Z 004786c0 f i libucrtd:strnlen.obj
 0001:00077710       ?compare_equals@?$__crt_simd_traits@$00G@@SA?AT__m256i@@T2@0@Z 00478710 f i libucrtd:strnlen.obj
 0001:00077760       ?compare_equals@?$__crt_simd_traits@$0A@E@@SA?AT__m128i@@T2@0@Z 00478760 f i libucrtd:strnlen.obj
 0001:000777b0       ?compare_equals@?$__crt_simd_traits@$0A@G@@SA?AT__m128i@@T2@0@Z 004787b0 f i libucrtd:strnlen.obj
 0001:00077800       ?compute_byte_mask@?$__crt_simd_pack_traits@$00@@SAHT__m256i@@@Z 00478800 f i libucrtd:strnlen.obj
 0001:00077840       ?compute_byte_mask@?$__crt_simd_pack_traits@$0A@@@SAHT__m128i@@@Z 00478840 f i libucrtd:strnlen.obj
 0001:00077880       ?get_zero_pack@?$__crt_simd_pack_traits@$00@@SA?AT__m256i@@XZ 00478880 f i libucrtd:strnlen.obj
 0001:000778c0       ?get_zero_pack@?$__crt_simd_pack_traits@$0A@@@SA?AT__m128i@@XZ 004788c0 f i libucrtd:strnlen.obj
 0001:00077900       _strnlen                   00478900 f   libucrtd:strnlen.obj
 0001:00077920       _wcsnlen                   00478920 f   libucrtd:strnlen.obj
 0001:00077940       ??$?RU__acrt_ptd@@@__crt_internal_free_policy@@QBEXQBU__acrt_ptd@@@Z 00478940 f i libucrtd:per_thread_data.obj
 0001:00077970       ??$?RV<lambda_3518db117f0e7cdb002338c5d3c47b6c>@@AAV<lambda_b2ea41f6bbb362cd97d94c6828d90b61>@@V<lambda_abdedf541bb04549bc734292b4a045d4>@@@?$__crt_seh_guarded_call@X@@QAEX$$QAV<lambda_3518db117f0e7cdb002338c5d3c47b6c>@@AAV<lambda_b2ea41f6bbb362cd97d94c6828d90b61>@@$$QAV<lambda_abdedf541bb04549bc734292b4a045d4>@@@Z 00478970 f i libucrtd:per_thread_data.obj
 0001:00077a10       ??$?RV<lambda_5b71d36f03204c0beab531769a5b5694>@@AAV<lambda_be2b3da3f62db62e9dad5dc70221a656>@@V<lambda_8f9ce462984622f9bf76b59e2aaaf805>@@@?$__crt_seh_guarded_call@X@@QAEX$$QAV<lambda_5b71d36f03204c0beab531769a5b5694>@@AAV<lambda_be2b3da3f62db62e9dad5dc70221a656>@@$$QAV<lambda_8f9ce462984622f9bf76b59e2aaaf805>@@@Z 00478a10 f i libucrtd:per_thread_data.obj
 0001:00077ab0       ??$?RV<lambda_952b238c83a62ef8e81c72265e1e9aa0>@@AAV<lambda_801f60a70ab65355beb13c41cbe335bb>@@V<lambda_84d84f98815add542a0d6e6ca338feb2>@@@?$__crt_seh_guarded_call@X@@QAEX$$QAV<lambda_952b238c83a62ef8e81c72265e1e9aa0>@@AAV<lambda_801f60a70ab65355beb13c41cbe335bb>@@$$QAV<lambda_84d84f98815add542a0d6e6ca338feb2>@@@Z 00478ab0 f i libucrtd:per_thread_data.obj
 0001:00077b50       ??$?RV<lambda_9df27f884b057bc3edfc946cb5b7cf47>@@AAV<lambda_e69574bed617af4e071282c136b37893>@@V<lambda_cc0d902bcbbeb830f749456577db4721>@@@?$__crt_seh_guarded_call@X@@QAEX$$QAV<lambda_9df27f884b057bc3edfc946cb5b7cf47>@@AAV<lambda_e69574bed617af4e071282c136b37893>@@$$QAV<lambda_cc0d902bcbbeb830f749456577db4721>@@@Z 00478b50 f i libucrtd:per_thread_data.obj
 0001:00077bf0       ??$__acrt_lock_and_call@V<lambda_801f60a70ab65355beb13c41cbe335bb>@@@@YAXW4__acrt_lock_id@@$$QAV<lambda_801f60a70ab65355beb13c41cbe335bb>@@@Z 00478bf0 f i libucrtd:per_thread_data.obj
 0001:00077c40       ??$__acrt_lock_and_call@V<lambda_b2ea41f6bbb362cd97d94c6828d90b61>@@@@YAXW4__acrt_lock_id@@$$QAV<lambda_b2ea41f6bbb362cd97d94c6828d90b61>@@@Z 00478c40 f i libucrtd:per_thread_data.obj
 0001:00077c90       ??$__acrt_lock_and_call@V<lambda_be2b3da3f62db62e9dad5dc70221a656>@@@@YAXW4__acrt_lock_id@@$$QAV<lambda_be2b3da3f62db62e9dad5dc70221a656>@@@Z 00478c90 f i libucrtd:per_thread_data.obj
 0001:00077ce0       ??$__acrt_lock_and_call@V<lambda_e69574bed617af4e071282c136b37893>@@@@YAXW4__acrt_lock_id@@$$QAV<lambda_e69574bed617af4e071282c136b37893>@@@Z 00478ce0 f i libucrtd:per_thread_data.obj
 0001:00077f40       ??0?$__crt_unique_heap_ptr@U__acrt_ptd@@U__crt_internal_free_policy@@@@QAE@QAU__acrt_ptd@@@Z 00478f40 f i libucrtd:per_thread_data.obj
 0001:00077f60       ??0__crt_scoped_get_last_error_reset@@QAE@XZ 00478f60 f i libucrtd:per_thread_data.obj
 0001:00077f90       ??1?$__crt_unique_heap_ptr@U__acrt_ptd@@U__crt_internal_free_policy@@@@QAE@XZ 00478f90 f i libucrtd:per_thread_data.obj
 0001:00077fb0       ??1__crt_scoped_get_last_error_reset@@QAE@XZ 00478fb0 f i libucrtd:per_thread_data.obj
 0001:00077fd0       ??B?$__crt_unique_heap_ptr@U__acrt_ptd@@U__crt_internal_free_policy@@@@QBE_NXZ 00478fd0 f i libucrtd:per_thread_data.obj
 0001:00078390       ?dangerous_get_state_array@?$dual_state_global@PAU__crt_locale_data@@@__crt_state_management@@QAEPAPAU__crt_locale_data@@XZ 00479390 f i libucrtd:per_thread_data.obj
 0001:00078570       ?detach@?$__crt_unique_heap_ptr@U__acrt_ptd@@U__crt_internal_free_policy@@@@QAEPAU__acrt_ptd@@XZ 00479570 f i libucrtd:per_thread_data.obj
 0001:000785a0       ?get@?$__crt_unique_heap_ptr@U__acrt_ptd@@U__crt_internal_free_policy@@@@QBEPAU__acrt_ptd@@XZ 004795a0 f i libucrtd:per_thread_data.obj
 0001:00078720       ?is_valid@?$__crt_unique_heap_ptr@U__acrt_ptd@@U__crt_internal_free_policy@@@@QBE_NXZ 00479720 f i libucrtd:per_thread_data.obj
 0001:00078760       ?release@?$__crt_unique_heap_ptr@U__acrt_ptd@@U__crt_internal_free_policy@@@@QAEXXZ 00479760 f i libucrtd:per_thread_data.obj
 0001:00078880       ___acrt_freeptd            00479880 f   libucrtd:per_thread_data.obj
 0001:000788c0       ___acrt_getptd             004798c0 f   libucrtd:per_thread_data.obj
 0001:000788f0       ___acrt_getptd_noexit      004798f0 f   libucrtd:per_thread_data.obj
 0001:00078900       ___acrt_initialize_ptd     00479900 f   libucrtd:per_thread_data.obj
 0001:00078950       ___acrt_uninitialize_ptd   00479950 f   libucrtd:per_thread_data.obj
 0001:00078980       ___threadhandle            00479980 f   libucrtd:per_thread_data.obj
 0001:00078990       ___threadid                00479990 f   libucrtd:per_thread_data.obj
 0001:000789a0       ___acrt_update_locale_info 004799a0 f   libucrtd:locale_update.obj
 0001:000789f0       ___acrt_update_multibyte_info 004799f0 f   libucrtd:locale_update.obj
 0001:00078a30       ?__acrt_fp_classify@@YA?AW4__acrt_fp_class@@ABN@Z 00479a30 f i libucrtd:cvt.obj
 0001:00078b90       ?__acrt_fp_is_negative@@YA_NABN@Z 00479b90 f i libucrtd:cvt.obj
 0001:0007a040       ?strrchr@@YAPADQADH@Z      0047b040 f i libucrtd:cvt.obj
 0001:0007a060       ___acrt_fp_format          0047b060 f   libucrtd:cvt.obj
 0001:0007a610       __fputwc_nolock            0047b610 f   libucrtd:fputwc.obj
 0001:0007a870       __fputwchar                0047b870 f   libucrtd:fputwc.obj
 0001:0007a8a0       __putwc_nolock             0047b8a0 f   libucrtd:fputwc.obj
 0001:0007a8c0       _fputwc                    0047b8c0 f   libucrtd:fputwc.obj
 0001:0007aa10       _putwc                     0047ba10 f   libucrtd:fputwc.obj
 0001:0007aa30       _putwchar                  0047ba30 f   libucrtd:fputwc.obj
 0001:0007aa50       __get_printf_count_output  0047ba50 f   libucrtd:printf_count_output.obj
 0001:0007aa90       __set_printf_count_output  0047ba90 f   libucrtd:printf_count_output.obj
 0001:0007ab00       ?has_temporary_buffer@__crt_stdio_stream@@QBE_NXZ 0047bb00 f i libucrtd:_sftbuf.obj
 0001:0007ab20       ___acrt_stdio_begin_temporary_buffering_nolock 0047bb20 f   libucrtd:_sftbuf.obj
 0001:0007ad50       ___acrt_stdio_end_temporary_buffering_nolock 0047bd50 f   libucrtd:_sftbuf.obj
 0001:0007adf0       ___p___mb_cur_max          0047bdf0 f   libucrtd:nlsdata.obj
 0001:0007ae30       ___acrt_initialize_locks   0047be30 f   libucrtd:locks.obj
 0001:0007aeb0       ___acrt_lock               0047beb0 f   libucrtd:locks.obj
 0001:0007aed0       ___acrt_uninitialize_locks 0047bed0 f   libucrtd:locks.obj
 0001:0007af30       ___acrt_unlock             0047bf30 f   libucrtd:locks.obj
 0001:0007af50       __lock_locales             0047bf50 f   libucrtd:locks.obj
 0001:0007af70       __unlock_locales           0047bf70 f   libucrtd:locks.obj
 0001:0007af90       ??$?RV<lambda_a7d5e04a8e766f2a135287cf7b01dfe7>@@AAV<lambda_e9ab68cc08dfd839979545c079379e6e>@@V<lambda_14e08a59e78d15c51edeee53d25fb3be>@@@?$__crt_seh_guarded_call@H@@QAEH$$QAV<lambda_a7d5e04a8e766f2a135287cf7b01dfe7>@@AAV<lambda_e9ab68cc08dfd839979545c079379e6e>@@$$QAV<lambda_14e08a59e78d15c51edeee53d25fb3be>@@@Z 0047bf90 f i libucrtd:commit.obj
 0001:0007b040       ??$__acrt_lowio_lock_fh_and_call@V<lambda_e9ab68cc08dfd839979545c079379e6e>@@@@YAHH$$QAV<lambda_e9ab68cc08dfd839979545c079379e6e>@@@Z 0047c040 f i libucrtd:commit.obj
 0001:0007b230       __commit                   0047c230 f   libucrtd:commit.obj
 0001:0007c450       __write                    0047d450 f   libucrtd:write.obj
 0001:0007c730       __write_nolock             0047d730 f   libucrtd:write.obj
 0001:0007cc90       ??$__crt_time_is_leap_year@H@@YA_NH@Z 0047dc90 f i libucrtd:asctime.obj
 0001:0007e210       ?__crt_get_2digit_year@@YAHH@Z 0047f210 f i libucrtd:asctime.obj
 0001:0007e230       ?__crt_get_century@@YAHH@Z 0047f230 f i libucrtd:asctime.obj
 0001:0007e250       ?__crt_time_is_day_valid@@YA_NHHH@Z 0047f250 f i libucrtd:asctime.obj
 0001:0007e330       __wasctime                 0047f330 f   libucrtd:asctime.obj
 0001:0007e350       __wasctime_s               0047f350 f   libucrtd:asctime.obj
 0001:0007e380       _asctime                   0047f380 f   libucrtd:asctime.obj
 0001:0007e3a0       _asctime_s                 0047f3a0 f   libucrtd:asctime.obj
 0001:0007f0f0       ??$gmtime_s@ABQAUtm@@ABQBJ@?$__crt_integer_traits@J@@SAHABQAUtm@@ABQBJ@Z 004800f0 f i libucrtd:localtime.obj
 0001:0007f120       ??$gmtime_s@ABQAUtm@@ABQB_J@?$__crt_integer_traits@_J@@SAHABQAUtm@@ABQB_J@Z 00480120 f i libucrtd:localtime.obj
 0001:0007f150       ??$gmtime_s@ABQAUtm@@PAJ@?$__crt_integer_traits@J@@SAHABQAUtm@@$$QAPAJ@Z 00480150 f i libucrtd:localtime.obj
 0001:0007f180       ??$gmtime_s@ABQAUtm@@PA_J@?$__crt_integer_traits@_J@@SAHABQAUtm@@$$QAPA_J@Z 00480180 f i libucrtd:localtime.obj
 0001:0007f1b0       ??$localtime_s@ABQAUtm@@ABQBJ@?$__crt_integer_traits@J@@SAHABQAUtm@@ABQBJ@Z 004801b0 f i libucrtd:localtime.obj
 0001:0007f1e0       ??$localtime_s@ABQAUtm@@ABQB_J@?$__crt_integer_traits@_J@@SAHABQAUtm@@ABQB_J@Z 004801e0 f i libucrtd:localtime.obj
 0001:0007f210       __localtime32              00480210 f   libucrtd:localtime.obj
 0001:0007f230       __localtime32_s            00480230 f   libucrtd:localtime.obj
 0001:0007f250       __localtime64              00480250 f   libucrtd:localtime.obj
 0001:0007f270       __localtime64_s            00480270 f   libucrtd:localtime.obj
 0001:0007f290       __add_exp                  00480290 f   libucrtd:util.obj
 0001:0007f2d0       __decomp                   004802d0 f   libucrtd:util.obj
 0001:0007f440       __get_exp                  00480440 f   libucrtd:util.obj
 0001:0007f480       __set_bexp                 00480480 f   libucrtd:util.obj
 0001:0007f4c0       __set_exp                  004804c0 f   libucrtd:util.obj
 0001:0007f510       __sptype                   00480510 f   libucrtd:util.obj
 0001:0007f5b0       ___clrfp_sse2              004805b0 f   libucrtd:fpctrl.obj
 0001:0007f600       ___ctrlfp_sse2             00480600 f   libucrtd:fpctrl.obj
 0001:0007f670       ___fclrf_sse2              00480670 f   libucrtd:fpctrl.obj
 0001:0007f6a0       ___get_fpsr_sse2           004806a0 f   libucrtd:fpctrl.obj
 0001:0007f6d0       ___set_fpsr_sse2           004806d0 f   libucrtd:fpctrl.obj
 0001:0007f7e0       ___set_statfp_sse2         004807e0 f   libucrtd:fpctrl.obj
 0001:0007f820       ___statfp_sse2             00480820 f   libucrtd:fpctrl.obj
 0001:0007f860       __clrfp                    00480860 f   libucrtd:fpctrl.obj
 0001:0007f880       __ctrlfp                   00480880 f   libucrtd:fpctrl.obj
 0001:0007f8c0       __set_statfp               004808c0 f   libucrtd:fpctrl.obj
 0001:0007f940       __statfp                   00480940 f   libucrtd:fpctrl.obj
 0001:0007f960       ___iswcsym                 00480960 f i libucrtd:_wctype.obj
 0001:0007f9b0       ___iswcsymf                004809b0 f i libucrtd:_wctype.obj
 0001:0007fa00       __isleadbyte_l             00480a00 f i libucrtd:_wctype.obj
 0001:0007fa50       __iswalnum_l               00480a50 f i libucrtd:_wctype.obj
 0001:0007fa70       __iswalpha_l               00480a70 f i libucrtd:_wctype.obj
 0001:0007fa90       __iswblank_l               00480a90 f i libucrtd:_wctype.obj
 0001:0007fad0       __iswcntrl_l               00480ad0 f i libucrtd:_wctype.obj
 0001:0007faf0       __iswcsym_l                00480af0 f i libucrtd:_wctype.obj
 0001:0007fb40       __iswcsymf_l               00480b40 f i libucrtd:_wctype.obj
 0001:0007fb90       __iswdigit_l               00480b90 f i libucrtd:_wctype.obj
 0001:0007fbb0       __iswgraph_l               00480bb0 f i libucrtd:_wctype.obj
 0001:0007fbd0       __iswlower_l               00480bd0 f i libucrtd:_wctype.obj
 0001:0007fbf0       __iswprint_l               00480bf0 f i libucrtd:_wctype.obj
 0001:0007fc10       __iswpunct_l               00480c10 f i libucrtd:_wctype.obj
 0001:0007fc30       __iswspace_l               00480c30 f i libucrtd:_wctype.obj
 0001:0007fc50       __iswupper_l               00480c50 f i libucrtd:_wctype.obj
 0001:0007fc70       __iswxdigit_l              00480c70 f i libucrtd:_wctype.obj
 0001:0007fc90       _isleadbyte                00480c90 f i libucrtd:_wctype.obj
 0001:0007fcb0       _iswalnum                  00480cb0 f i libucrtd:_wctype.obj
 0001:0007fcd0       _iswalpha                  00480cd0 f i libucrtd:_wctype.obj
 0001:0007fcf0       _iswascii                  00480cf0 f i libucrtd:_wctype.obj
 0001:0007fd30       _iswblank                  00480d30 f i libucrtd:_wctype.obj
 0001:0007fd70       _iswcntrl                  00480d70 f i libucrtd:_wctype.obj
 0001:0007fd90       _iswdigit                  00480d90 f i libucrtd:_wctype.obj
 0001:0007fdb0       _iswgraph                  00480db0 f i libucrtd:_wctype.obj
 0001:0007fdd0       _iswlower                  00480dd0 f i libucrtd:_wctype.obj
 0001:0007fdf0       _iswprint                  00480df0 f i libucrtd:_wctype.obj
 0001:0007fe10       _iswpunct                  00480e10 f i libucrtd:_wctype.obj
 0001:0007fe30       _iswspace                  00480e30 f i libucrtd:_wctype.obj
 0001:0007fe50       _iswupper                  00480e50 f i libucrtd:_wctype.obj
 0001:0007fe70       _iswxdigit                 00480e70 f i libucrtd:_wctype.obj
 0001:0007fe90       __chvalidator              00480e90 f   libucrtd:isctype.obj
 0001:0007fef0       __chvalidator_l            00480ef0 f   libucrtd:isctype.obj
 0001:0007ffb0       __isctype                  00480fb0 f   libucrtd:isctype.obj
 0001:00080000       __isctype_l                00481000 f   libucrtd:isctype.obj
 0001:000801e0       ??0?$__crt_scoped_stack_ptr@_W@@QAE@U?$__crt_scoped_stack_ptr_tag@_W@@@Z 004811e0 f i libucrtd:lcmapstringa.obj
 0001:00080200       ??0?$__crt_scoped_stack_ptr_tag@_W@@QAE@QA_W@Z 00481200 f i libucrtd:lcmapstringa.obj
 0001:00080220       ??1?$__crt_scoped_stack_ptr@_W@@QAE@XZ 00481220 f i libucrtd:lcmapstringa.obj
 0001:00080250       ??B?$__crt_scoped_stack_ptr@_W@@QBE_NXZ 00481250 f i libucrtd:lcmapstringa.obj
 0001:00080740       ?get@?$__crt_scoped_stack_ptr@_W@@QBEPA_WXZ 00481740 f i libucrtd:lcmapstringa.obj
 0001:00080760       __MallocaComputeSize       00481760 f i libucrtd:lcmapstringa.obj
 0001:000807a0       __MarkAllocaS              004817a0 f i libucrtd:lcmapstringa.obj
 0001:000807d0       ___acrt_LCMapStringA       004817d0 f   libucrtd:lcmapstringa.obj
 0001:00080840       __freea_crt                00481840 f i libucrtd:lcmapstringa.obj
 0001:000808d0       __set_error_mode           004818d0 f   libucrtd:set_error_mode.obj
 0001:00080ef0       _wcscat_s                  00481ef0 f   libucrtd:wcscat_s.obj
 0001:00081300       _wcscpy_s                  00482300 f   libucrtd:wcscpy_s.obj
 0001:00081860       _wcsncpy_s                 00482860 f   libucrtd:wcsncpy_s.obj
 0001:00081890       _wcslen                    00482890 f   libucrtd:wcslen.obj
 0001:00081c80       ??$message_box@$$TAAPBDAAPBDAAI@?$__crt_char_traits@D@@SAH$$QA$$TAAPBD1AAI@Z 00482c80 f i libucrtd:crtmbox.obj
 0001:00081cb0       ??$message_box@$$TAAPB_WAAPB_WAAI@?$__crt_char_traits@_W@@SAH$$QA$$TAAPB_W1AAI@Z 00482cb0 f i libucrtd:crtmbox.obj
 0001:00081ce0       ??$message_box@$$TABQBDABQBDK@?$__crt_char_traits@D@@SAH$$QA$$TABQBD1$$QAK@Z 00482ce0 f i libucrtd:crtmbox.obj
 0001:00081d10       ??$message_box@$$TABQB_WABQB_WK@?$__crt_char_traits@_W@@SAH$$QA$$TABQB_W1$$QAK@Z 00482d10 f i libucrtd:crtmbox.obj
 0001:00081d40       ??$message_box@PAUHWND__@@ABQBDABQBDABI@?$__crt_char_traits@D@@SAH$$QAPAUHWND__@@ABQBD1ABI@Z 00482d40 f i libucrtd:crtmbox.obj
 0001:00081d70       ??$message_box@PAUHWND__@@ABQB_WABQB_WABI@?$__crt_char_traits@_W@@SAH$$QAPAUHWND__@@ABQB_W1ABI@Z 00482d70 f i libucrtd:crtmbox.obj
 0001:00081e60       ??$output_debug_string@ABQBD@?$__crt_char_traits@D@@SAXABQBD@Z 00482e60 f i libucrtd:crtmbox.obj
 0001:00081e80       ??$output_debug_string@ABQB_W@?$__crt_char_traits@_W@@SAXABQB_W@Z 00482e80 f i libucrtd:crtmbox.obj
 0001:00081ea0       ??0?$__crt_unique_handle_t@U__crt_handle_traits@@@@QAE@QAX@Z 00482ea0 f i libucrtd:crtmbox.obj
 0001:00081ec0       ??1?$__crt_unique_handle_t@U__crt_handle_traits@@@@QAE@XZ 00482ec0 f i libucrtd:crtmbox.obj
 0001:00081ee0       ??B?$__crt_unique_handle_t@U__crt_handle_traits@@@@QBE_NXZ 00482ee0 f i libucrtd:crtmbox.obj
 0001:00081f00       ?close@?$__crt_unique_handle_t@U__crt_handle_traits@@@@QAEXXZ 00482f00 f i libucrtd:crtmbox.obj
 0001:00081f40       ?close@__crt_handle_traits@@SA_NPAX@Z 00482f40 f i libucrtd:crtmbox.obj
 0001:00081f80       ?get@?$__crt_unique_handle_t@U__crt_handle_traits@@@@QBEPAXXZ 00482f80 f i libucrtd:crtmbox.obj
 0001:00081fa0       ?get_invalid_value@__crt_handle_traits@@SAPAXXZ 00482fa0 f i libucrtd:crtmbox.obj
 0001:00081fb0       ?is_valid@?$__crt_unique_handle_t@U__crt_handle_traits@@@@QBE_NXZ 00482fb0 f i libucrtd:crtmbox.obj
 0001:00081ff0       ___acrt_show_narrow_message_box 00482ff0 f   libucrtd:crtmbox.obj
 0001:00082020       ___acrt_show_wide_message_box 00483020 f   libucrtd:crtmbox.obj
 0001:00083330       ??$find_first_file_ex@ABQADW4_FINDEX_INFO_LEVELS@@PAU_WIN32_FIND_DATAA@@W4_FINDEX_SEARCH_OPS@@$$TH@?$__crt_char_traits@D@@SAPAXABQAD$$QAW4_FINDEX_INFO_LEVELS@@$$QAPAU_WIN32_FIND_DATAA@@$$QAW4_FINDEX_SEARCH_OPS@@$$QA$$T$$QAH@Z 00484330 f i libucrtd:argv_wildcards.obj
 0001:00083370       ??$find_first_file_ex@ABQA_WW4_FINDEX_INFO_LEVELS@@PAU_WIN32_FIND_DATAW@@W4_FINDEX_SEARCH_OPS@@$$TH@?$__crt_char_traits@_W@@SAPAXABQA_W$$QAW4_FINDEX_INFO_LEVELS@@$$QAPAU_WIN32_FIND_DATAW@@$$QAW4_FINDEX_SEARCH_OPS@@$$QA$$T$$QAH@Z 00484370 f i libucrtd:argv_wildcards.obj
 0001:000833b0       ??$find_next_file@PAXPAU_WIN32_FIND_DATAA@@@?$__crt_char_traits@D@@SAH$$QAPAX$$QAPAU_WIN32_FIND_DATAA@@@Z 004843b0 f i libucrtd:argv_wildcards.obj
 0001:000833d0       ??$find_next_file@PAXPAU_WIN32_FIND_DATAW@@@?$__crt_char_traits@_W@@SAH$$QAPAX$$QAPAU_WIN32_FIND_DATAW@@@Z 004843d0 f i libucrtd:argv_wildcards.obj
 0001:000833f0       ??$tcsncpy_s@AAPADIAAPADABI@?$__crt_char_traits@D@@SAHAAPAD$$QAI0ABI@Z 004843f0 f i libucrtd:argv_wildcards.obj
 0001:00083420       ??$tcsncpy_s@AAPA_WIAAPA_WABI@?$__crt_char_traits@_W@@SAHAAPA_W$$QAI0ABI@Z 00484420 f i libucrtd:argv_wildcards.obj
 0001:00083450       ??$tcsncpy_s@PAD$$CBIABQBDABI@?$__crt_char_traits@D@@SAH$$QAPAD$$QBIABQBDABI@Z 00484450 f i libucrtd:argv_wildcards.obj
 0001:00083480       ??$tcsncpy_s@PADABIABQBDABI@?$__crt_char_traits@D@@SAH$$QAPADABIABQBD1@Z 00484480 f i libucrtd:argv_wildcards.obj
 0001:000834b0       ??$tcsncpy_s@PA_W$$CBIABQB_WABI@?$__crt_char_traits@_W@@SAH$$QAPA_W$$QBIABQB_WABI@Z 004844b0 f i libucrtd:argv_wildcards.obj
 0001:000834e0       ??$tcsncpy_s@PA_WABIABQB_WABI@?$__crt_char_traits@_W@@SAH$$QAPA_WABIABQB_W1@Z 004844e0 f i libucrtd:argv_wildcards.obj
 0001:00083510       ??$tcspbrk@AAPADAAY02$$CBD@?$__crt_char_traits@D@@SAPADAAPADAAY02$$CBD@Z 00484510 f i libucrtd:argv_wildcards.obj
 0001:00083530       ??$tcspbrk@AAPA_WAAY02$$CB_W@?$__crt_char_traits@_W@@SAPA_WAAPA_WAAY02$$CB_W@Z 00484530 f i libucrtd:argv_wildcards.obj
 0001:00083550       ??0?$__crt_unique_handle_t@U__crt_findfile_traits@@@@QAE@QAX@Z 00484550 f i libucrtd:argv_wildcards.obj
 0001:00083570       ??0?$argument_list@D@?A0x536e2c96@@QAE@XZ 00484570 f i libucrtd:argv_wildcards.obj
 0001:000835b0       ??0?$argument_list@_W@?A0x536e2c96@@QAE@XZ 004845b0 f i libucrtd:argv_wildcards.obj
 0001:000835f0       ??1?$__crt_unique_handle_t@U__crt_findfile_traits@@@@QAE@XZ 004845f0 f i libucrtd:argv_wildcards.obj
 0001:00083610       ??1?$argument_list@D@?A0x536e2c96@@QAE@XZ 00484610 f i libucrtd:argv_wildcards.obj
 0001:00083680       ??1?$argument_list@_W@?A0x536e2c96@@QAE@XZ 00484680 f i libucrtd:argv_wildcards.obj
 0001:000837d0       ?append@?$argument_list@D@?A0x536e2c96@@QAEHQAD@Z 004847d0 f i libucrtd:argv_wildcards.obj
 0001:00083840       ?append@?$argument_list@_W@?A0x536e2c96@@QAEHQA_W@Z 00484840 f i libucrtd:argv_wildcards.obj
 0001:000838b0       ?begin@?$argument_list@D@?A0x536e2c96@@QBEPAPADXZ 004848b0 f i libucrtd:argv_wildcards.obj
 0001:000838d0       ?begin@?$argument_list@_W@?A0x536e2c96@@QBEPAPA_WXZ 004848d0 f i libucrtd:argv_wildcards.obj
 0001:000838f0       ?close@?$__crt_unique_handle_t@U__crt_findfile_traits@@@@QAEXXZ 004848f0 f i libucrtd:argv_wildcards.obj
 0001:00083930       ?close@__crt_findfile_traits@@SA_NPAX@Z 00484930 f i libucrtd:argv_wildcards.obj
 0001:00083970       ?end@?$argument_list@D@?A0x536e2c96@@QBEPAPADXZ 00484970 f i libucrtd:argv_wildcards.obj
 0001:00083990       ?end@?$argument_list@_W@?A0x536e2c96@@QBEPAPA_WXZ 00484990 f i libucrtd:argv_wildcards.obj
 0001:000839b0       ?expand_if_necessary@?$argument_list@D@?A0x536e2c96@@AAEHXZ 004849b0 f i libucrtd:argv_wildcards.obj
 0001:00083b60       ?expand_if_necessary@?$argument_list@_W@?A0x536e2c96@@AAEHXZ 00484b60 f i libucrtd:argv_wildcards.obj
 0001:00083d10       ?get@?$__crt_unique_handle_t@U__crt_findfile_traits@@@@QBEPAXXZ 00484d10 f i libucrtd:argv_wildcards.obj
 0001:00083d30       ?get_invalid_value@__crt_findfile_traits@@SAPAXXZ 00484d30 f i libucrtd:argv_wildcards.obj
 0001:00083d70       ?size@?$argument_list@D@?A0x536e2c96@@QBEIXZ 00484d70 f i libucrtd:argv_wildcards.obj
 0001:00083da0       ?size@?$argument_list@_W@?A0x536e2c96@@QBEIXZ 00484da0 f i libucrtd:argv_wildcards.obj
 0001:00083dd0       ?strpbrk@@YAPADQADQBD@Z    00484dd0 f i libucrtd:argv_wildcards.obj
 0001:00083df0       ?wcspbrk@@YAPA_WPA_WPB_W@Z 00484df0 f i libucrtd:argv_wildcards.obj
 0001:00083e10       ___acrt_expand_narrow_argv_wildcards 00484e10 f   libucrtd:argv_wildcards.obj
 0001:00083e30       ___acrt_expand_wide_argv_wildcards 00484e30 f   libucrtd:argv_wildcards.obj
 0001:00083e50       ??$?RV<lambda_694f386f8d9a4d7d5afe1ac229f209db>@@AAV<lambda_2f900415df1f7f624cdaaefe86d0b1c0>@@V<lambda_17c2d007e408fdf31ce10a4c853c6ffa>@@@?$__crt_seh_guarded_call@X@@QAEX$$QAV<lambda_694f386f8d9a4d7d5afe1ac229f209db>@@AAV<lambda_2f900415df1f7f624cdaaefe86d0b1c0>@@$$QAV<lambda_17c2d007e408fdf31ce10a4c853c6ffa>@@@Z 00484e50 f i libucrtd:mbctype.obj
 0001:00083ef0       ??$__acrt_lock_and_call@V<lambda_2f900415df1f7f624cdaaefe86d0b1c0>@@@@YAXW4__acrt_lock_id@@$$QAV<lambda_2f900415df1f7f624cdaaefe86d0b1c0>@@@Z 00484ef0 f i libucrtd:mbctype.obj
 0001:00084a80       ___acrt_initialize_multibyte 00485a80 f   libucrtd:mbctype.obj
 0001:00084ab0       ___acrt_update_thread_multibyte_data 00485ab0 f   libucrtd:mbctype.obj
 0001:00084c00       ___p__mbcasemap            00485c00 f   libucrtd:mbctype.obj
 0001:00084c20       ___p__mbctype              00485c20 f   libucrtd:mbctype.obj
 0001:00084c40       __getmbcp                  00485c40 f   libucrtd:mbctype.obj
 0001:00084cd0       __setmbcp                  00485cd0 f   libucrtd:mbctype.obj
 0001:00084cf0       __setmbcp_nolock           00485cf0 f   libucrtd:mbctype.obj
 0001:0008530b       __ismbbalnum               0048630b f   libucrtd:ismbbyte.obj
 0001:0008532c       __ismbbalnum_l             0048632c f   libucrtd:ismbbyte.obj
 0001:0008534f       __ismbbalpha               0048634f f   libucrtd:ismbbyte.obj
 0001:00085370       __ismbbalpha_l             00486370 f   libucrtd:ismbbyte.obj
 0001:00085393       __ismbbblank               00486393 f   libucrtd:ismbbyte.obj
 0001:000853be       __ismbbblank_l             004863be f   libucrtd:ismbbyte.obj
 0001:000853eb       __ismbbgraph               004863eb f   libucrtd:ismbbyte.obj
 0001:0008540c       __ismbbgraph_l             0048640c f   libucrtd:ismbbyte.obj
 0001:0008542f       __ismbbkalnum              0048642f f   libucrtd:ismbbyte.obj
 0001:0008544d       __ismbbkalnum_l            0048644d f   libucrtd:ismbbyte.obj
 0001:0008546c       __ismbbkana                0048646c f   libucrtd:ismbbyte.obj
 0001:00085483       __ismbbkana_l              00486483 f   libucrtd:ismbbyte.obj
 0001:000854e8       __ismbbkprint              004864e8 f   libucrtd:ismbbyte.obj
 0001:00085506       __ismbbkprint_l            00486506 f   libucrtd:ismbbyte.obj
 0001:00085525       __ismbbkpunct              00486525 f   libucrtd:ismbbyte.obj
 0001:00085543       __ismbbkpunct_l            00486543 f   libucrtd:ismbbyte.obj
 0001:00085562       __ismbblead                00486562 f   libucrtd:ismbbyte.obj
 0001:00085580       __ismbblead_l              00486580 f   libucrtd:ismbbyte.obj
 0001:0008559f       __ismbbprint               0048659f f   libucrtd:ismbbyte.obj
 0001:000855c0       __ismbbprint_l             004865c0 f   libucrtd:ismbbyte.obj
 0001:000855e3       __ismbbpunct               004865e3 f   libucrtd:ismbbyte.obj
 0001:00085601       __ismbbpunct_l             00486601 f   libucrtd:ismbbyte.obj
 0001:00085620       __ismbbtrail               00486620 f   libucrtd:ismbbyte.obj
 0001:0008563e       __ismbbtrail_l             0048663e f   libucrtd:ismbbyte.obj
 0001:0008565d       ??0?$__crt_unique_handle_t@Uenvironment_strings_traits@?A0xda6148bb@@@@QAE@QA_W@Z 0048665d f i libucrtd:get_environment_from_os.obj
 0001:00085671       ??1?$__crt_unique_handle_t@Uenvironment_strings_traits@?A0xda6148bb@@@@QAE@XZ 00486671 f i libucrtd:get_environment_from_os.obj
 0001:0008568d       ??B?$__crt_unique_handle_t@Uenvironment_strings_traits@?A0xda6148bb@@@@QBE_NXZ 0048668d f i libucrtd:get_environment_from_os.obj
 0001:00085697       ?close@?$__crt_unique_handle_t@Uenvironment_strings_traits@?A0xda6148bb@@@@QAEXXZ 00486697 f i libucrtd:get_environment_from_os.obj
 0001:000856b3       ?close@environment_strings_traits@?A0xda6148bb@@SA_NPA_W@Z 004866b3 f i libucrtd:get_environment_from_os.obj
 0001:0008570d       ?get@?$__crt_unique_handle_t@Uenvironment_strings_traits@?A0xda6148bb@@@@QBEPA_WXZ 0048670d f i libucrtd:get_environment_from_os.obj
 0001:00085710       ?get_invalid_value@environment_strings_traits@?A0xda6148bb@@SAPA_WXZ 00486710 f i libucrtd:get_environment_from_os.obj
 0001:00085713       ?is_valid@?$__crt_unique_handle_t@Uenvironment_strings_traits@?A0xda6148bb@@@@QBE_NXZ 00486713 f i libucrtd:get_environment_from_os.obj
 0001:0008571d       ___dcrt_get_narrow_environment_from_os 0048671d f   libucrtd:get_environment_from_os.obj
 0001:000857d2       ___dcrt_get_wide_environment_from_os 004867d2 f   libucrtd:get_environment_from_os.obj
 0001:00086372       ??$get_or_create_environment_nolock@$$$V@?$__crt_char_traits@D@@SAPAPADXZ 00487372 f i libucrtd:setenv.obj
 0001:00086377       ??$get_or_create_environment_nolock@$$$V@?$__crt_char_traits@_W@@SAPAPA_WXZ 00487377 f i libucrtd:setenv.obj
 0001:0008637c       ??$set_environment_variable@ABQADQAD@?$__crt_char_traits@D@@SAHABQAD$$QBQAD@Z 0048737c f i libucrtd:setenv.obj
 0001:00086398       ??$set_environment_variable@ABQA_WQA_W@?$__crt_char_traits@_W@@SAHABQA_W$$QBQA_W@Z 00487398 f i libucrtd:setenv.obj
 0001:000863b4       ??$tcschr@ABQADD@?$__crt_char_traits@D@@SAPADABQAD$$QAD@Z 004873b4 f i libucrtd:setenv.obj
 0001:000863d4       ??$tcschr@ABQA_WD@?$__crt_char_traits@_W@@SAPA_WABQA_W$$QAD@Z 004873d4 f i libucrtd:setenv.obj
 0001:000863f9       ??$tcscpy_s@AAPADABIAAPAD@?$__crt_char_traits@D@@SAHAAPADABI0@Z 004873f9 f i libucrtd:setenv.obj
 0001:0008641e       ??$tcscpy_s@AAPA_WABIAAPA_W@?$__crt_char_traits@_W@@SAHAAPA_WABI0@Z 0048741e f i libucrtd:setenv.obj
 0001:00086443       ??$tcscpy_s@ABQADABIABQAD@?$__crt_char_traits@D@@SAHABQADABI0@Z 00487443 f i libucrtd:setenv.obj
 0001:00086468       ??$tcscpy_s@ABQA_WABIABQA_W@?$__crt_char_traits@_W@@SAHABQA_WABI0@Z 00487468 f i libucrtd:setenv.obj
 0001:0008648d       ??$tcslen@ABQAD@?$__crt_char_traits@D@@SAIABQAD@Z 0048748d f i libucrtd:setenv.obj
 0001:000864ab       ??$tcslen@ABQA_W@?$__crt_char_traits@_W@@SAIABQA_W@Z 004874ab f i libucrtd:setenv.obj
 0001:000864d0       ??$tcsnicoll@ABQBDAAPADABI@?$__crt_char_traits@D@@SAHABQBDAAPADABI@Z 004874d0 f i libucrtd:setenv.obj
 0001:000864f5       ??$tcsnicoll@ABQB_WAAPA_WABI@?$__crt_char_traits@_W@@SAHABQB_WAAPA_WABI@Z 004874f5 f i libucrtd:setenv.obj
 0001:0008651a       ??$tcsnlen@QADH@?$__crt_char_traits@D@@SAI$$QBQAD$$QAH@Z 0048751a f i libucrtd:setenv.obj
 0001:00086538       ??$tcsnlen@QA_WH@?$__crt_char_traits@_W@@SAI$$QBQA_W$$QAH@Z 00487538 f i libucrtd:setenv.obj
 0001:0008657a       ?strchr@@YAPADQADH@Z       0048757a f i libucrtd:setenv.obj
 0001:00086587       ?wcschr@@YAPA_WPA_W_W@Z    00487587 f i libucrtd:setenv.obj
 0001:00086594       ___dcrt_set_variable_in_narrow_environment_nolock 00487594 f   libucrtd:setenv.obj
 0001:000865a1       ___dcrt_set_variable_in_wide_environment_nolock 004875a1 f   libucrtd:setenv.obj
 0001:000865b0       ??$?RU__crt_lowio_handle_data@@@__crt_internal_free_policy@@QBEXQBU__crt_lowio_handle_data@@@Z 004875b0 f i libucrtd:osfinfo.obj
 0001:000865e0       ??0?$__crt_unique_heap_ptr@U__crt_lowio_handle_data@@U__crt_internal_free_policy@@@@QAE@QAU__crt_lowio_handle_data@@@Z 004875e0 f i libucrtd:osfinfo.obj
 0001:00086600       ??1?$__crt_unique_heap_ptr@U__crt_lowio_handle_data@@U__crt_internal_free_policy@@@@QAE@XZ 00487600 f i libucrtd:osfinfo.obj
 0001:00086620       ??B?$__crt_unique_heap_ptr@U__crt_lowio_handle_data@@U__crt_internal_free_policy@@@@QBE_NXZ 00487620 f i libucrtd:osfinfo.obj
 0001:00086640       ?detach@?$__crt_unique_heap_ptr@U__crt_lowio_handle_data@@U__crt_internal_free_policy@@@@QAEPAU__crt_lowio_handle_data@@XZ 00487640 f i libucrtd:osfinfo.obj
 0001:00086670       ?get@?$__crt_unique_heap_ptr@U__crt_lowio_handle_data@@U__crt_internal_free_policy@@@@QBEPAU__crt_lowio_handle_data@@XZ 00487670 f i libucrtd:osfinfo.obj
 0001:00086690       ?is_valid@?$__crt_unique_heap_ptr@U__crt_lowio_handle_data@@U__crt_internal_free_policy@@@@QBE_NXZ 00487690 f i libucrtd:osfinfo.obj
 0001:000866d0       ?release@?$__crt_unique_heap_ptr@U__crt_lowio_handle_data@@U__crt_internal_free_policy@@@@QAEXXZ 004876d0 f i libucrtd:osfinfo.obj
 0001:00086710       ___acrt_lowio_create_handle_array 00487710 f   libucrtd:osfinfo.obj
 0001:000868a0       ___acrt_lowio_destroy_handle_array 004878a0 f   libucrtd:osfinfo.obj
 0001:00086910       ___acrt_lowio_ensure_fh_exists 00487910 f   libucrtd:osfinfo.obj
 0001:00086ac0       ___acrt_lowio_lock_fh      00487ac0 f   libucrtd:osfinfo.obj
 0001:00086af0       ___acrt_lowio_set_os_handle 00487af0 f   libucrtd:osfinfo.obj
 0001:00086c00       ___acrt_lowio_unlock_fh    00487c00 f   libucrtd:osfinfo.obj
 0001:00086c30       __alloc_osfhnd             00487c30 f   libucrtd:osfinfo.obj
 0001:00086e80       __free_osfhnd              00487e80 f   libucrtd:osfinfo.obj
 0001:00086fa0       __get_osfhandle            00487fa0 f   libucrtd:osfinfo.obj
 0001:00087180       __open_osfhandle           00488180 f   libucrtd:osfinfo.obj
 0001:00087400       ___p__fmode                00488400 f   libucrtd:txtmode.obj
 0001:00087410       ___pctype_func             00488410 f   libucrtd:ctype.obj
 0001:00087450       ___pwctype_func            00488450 f   libucrtd:ctype.obj
 0001:00087460       ??$?RG@__crt_internal_free_policy@@QBEXQBG@Z 00488460 f i libucrtd:initctype.obj
 0001:00087490       ??$?RJ@__crt_internal_free_policy@@QBEXQBJ@Z 00488490 f i libucrtd:initctype.obj
 0001:000874c0       ??0?$__crt_unique_heap_ptr@GU__crt_internal_free_policy@@@@QAE@QAG@Z 004884c0 f i libucrtd:initctype.obj
 0001:000874e0       ??0?$__crt_unique_heap_ptr@JU__crt_internal_free_policy@@@@QAE@QAJ@Z 004884e0 f i libucrtd:initctype.obj
 0001:00087500       ??1?$__crt_unique_heap_ptr@GU__crt_internal_free_policy@@@@QAE@XZ 00488500 f i libucrtd:initctype.obj
 0001:00087520       ??1?$__crt_unique_heap_ptr@JU__crt_internal_free_policy@@@@QAE@XZ 00488520 f i libucrtd:initctype.obj
 0001:00087540       ?detach@?$__crt_unique_heap_ptr@GU__crt_internal_free_policy@@@@QAEPAGXZ 00488540 f i libucrtd:initctype.obj
 0001:00087570       ?detach@?$__crt_unique_heap_ptr@JU__crt_internal_free_policy@@@@QAEPAJXZ 00488570 f i libucrtd:initctype.obj
 0001:000875a0       ?release@?$__crt_unique_heap_ptr@GU__crt_internal_free_policy@@@@QAEXXZ 004885a0 f i libucrtd:initctype.obj
 0001:000875e0       ?release@?$__crt_unique_heap_ptr@JU__crt_internal_free_policy@@@@QAEXXZ 004885e0 f i libucrtd:initctype.obj
 0001:00087620       ____lc_codepage_func       00488620 f   libucrtd:initctype.obj
 0001:00087660       ____lc_collate_cp_func     00488660 f   libucrtd:initctype.obj
 0001:000876a0       ____lc_locale_name_func    004886a0 f   libucrtd:initctype.obj
 0001:000876f0       ____mb_cur_max_func        004886f0 f   libucrtd:initctype.obj
 0001:00087730       ____mb_cur_max_l_func      00488730 f   libucrtd:initctype.obj
 0001:00087770       ___acrt_locale_initialize_ctype 00488770 f   libucrtd:initctype.obj
 0001:00087fc0       ??$?RUlconv@@@__crt_internal_free_policy@@QBEXQBUlconv@@@Z 00488fc0 f i libucrtd:initmon.obj
 0001:00087ff0       ??0?$__crt_unique_heap_ptr@Ulconv@@U__crt_internal_free_policy@@@@QAE@QAUlconv@@@Z 00488ff0 f i libucrtd:initmon.obj
 0001:00088010       ??1?$__crt_unique_heap_ptr@Ulconv@@U__crt_internal_free_policy@@@@QAE@XZ 00489010 f i libucrtd:initmon.obj
 0001:00088030       ?detach@?$__crt_unique_heap_ptr@Ulconv@@U__crt_internal_free_policy@@@@QAEPAUlconv@@XZ 00489030 f i libucrtd:initmon.obj
 0001:00088060       ?release@?$__crt_unique_heap_ptr@Ulconv@@U__crt_internal_free_policy@@@@QAEXXZ 00489060 f i libucrtd:initmon.obj
 0001:000880a0       ___acrt_locale_free_monetary 004890a0 f   libucrtd:initmon.obj
 0001:000882b0       ___acrt_locale_initialize_monetary 004892b0 f   libucrtd:initmon.obj
 0001:00088b00       ___acrt_locale_free_numeric 00489b00 f   libucrtd:initnum.obj
 0001:00088be0       ___acrt_locale_initialize_numeric 00489be0 f   libucrtd:initnum.obj
 0001:00089130       ??$?RU__crt_lc_time_data@@@__crt_internal_free_policy@@QBEXQBU__crt_lc_time_data@@@Z 0048a130 f i libucrtd:inittime.obj
 0001:00089220       ??0?$__crt_unique_heap_ptr@U__crt_lc_time_data@@U__crt_internal_free_policy@@@@QAE@QAU__crt_lc_time_data@@@Z 0048a220 f i libucrtd:inittime.obj
 0001:00089240       ??1?$__crt_unique_heap_ptr@U__crt_lc_time_data@@U__crt_internal_free_policy@@@@QAE@XZ 0048a240 f i libucrtd:inittime.obj
 0001:00089260       ??B?$__crt_unique_heap_ptr@U__crt_lc_time_data@@U__crt_internal_free_policy@@@@QBE_NXZ 0048a260 f i libucrtd:inittime.obj
 0001:00089280       ?detach@?$__crt_unique_heap_ptr@U__crt_lc_time_data@@U__crt_internal_free_policy@@@@QAEPAU__crt_lc_time_data@@XZ 0048a280 f i libucrtd:inittime.obj
 0001:00089300       ?get@?$__crt_unique_heap_ptr@U__crt_lc_time_data@@U__crt_internal_free_policy@@@@QBEPAU__crt_lc_time_data@@XZ 0048a300 f i libucrtd:inittime.obj
 0001:000898f0       ?is_valid@?$__crt_unique_heap_ptr@U__crt_lc_time_data@@U__crt_internal_free_policy@@@@QBE_NXZ 0048a8f0 f i libucrtd:inittime.obj
 0001:00089930       ?release@?$__crt_unique_heap_ptr@U__crt_lc_time_data@@U__crt_internal_free_policy@@@@QAEXXZ 0048a930 f i libucrtd:inittime.obj
 0001:00089970       ___acrt_locale_free_time   0048a970 f   libucrtd:inittime.obj
 0001:00089b10       ___acrt_locale_initialize_time 0048ab10 f   libucrtd:inittime.obj
 0001:00089ba0       _wcscmp                    0048aba0 f   libucrtd:wcscmp.obj
 0001:00089c20       _wcscspn                   0048ac20 f   libucrtd:wcscspn.obj
 0001:00089cb0       _wcsncmp                   0048acb0 f   libucrtd:wcsncmp.obj
 0001:00089d20       _wcspbrk                   0048ad20 f   libucrtd:wcspbrk.obj
 0001:00089da0       ___acrt_GetStringTypeA     0048ada0 f   libucrtd:getstringtypea.obj
 0001:00089fc0       ___acrt_add_locale_ref     0048afc0 f   libucrtd:locale_refcounting.obj
 0001:0008a100       ___acrt_free_locale        0048b100 f   libucrtd:locale_refcounting.obj
 0001:0008a470       ___acrt_locale_add_lc_time_reference 0048b470 f   libucrtd:locale_refcounting.obj
 0001:0008a4b0       ___acrt_locale_free_lc_time_if_unreferenced 0048b4b0 f   libucrtd:locale_refcounting.obj
 0001:0008a510       ___acrt_locale_release_lc_time_reference 0048b510 f   libucrtd:locale_refcounting.obj
 0001:0008a550       ___acrt_release_locale_ref 0048b550 f   libucrtd:locale_refcounting.obj
 0001:0008a6a0       ___acrt_update_thread_locale_data 0048b6a0 f   libucrtd:locale_refcounting.obj
 0001:0008a7b0       __updatetlocinfoEx_nolock  0048b7b0 f   libucrtd:locale_refcounting.obj
 0001:0008b610       ___acrt_get_qualified_locale 0048c610 f   libucrtd:get_qualified_locale.obj
 0001:0008c980       ___acrt_get_qualified_locale_downlevel 0048d980 f   libucrtd:getqloc_downlevel.obj
 0001:0008cce0       _localeconv                0048dce0 f   libucrtd:localeconv.obj
 0001:0008cd30       ___acrt_getheap            0048dd30 f   libucrtd:heap_handle.obj
 0001:0008cd80       ___acrt_initialize_heap    0048dd80 f   libucrtd:heap_handle.obj
 0001:0008cdb0       ___acrt_uninitialize_heap  0048ddb0 f   libucrtd:heap_handle.obj
 0001:0008cdd0       __get_heap_handle          0048ddd0 f   libucrtd:heap_handle.obj
 0001:0008ce20       ___acrt_execute_initializers 0048de20 f   libucrtd:shared_initialization.obj
 0001:0008cf20       ___acrt_execute_uninitializers 0048df20 f   libucrtd:shared_initialization.obj
 0001:0008cfb0       ??$?B$$A6AHI@Z@__crt_fast_encoded_nullptr_t@@QBEP6AHI@ZXZ 0048dfb0 f i libucrtd:new_handler.obj
 0001:0008cfd0       ??$__crt_fast_decode_pointer@P6AHI@Z@@YAP6AHI@ZQ6AHI@Z@Z 0048dfd0 f i libucrtd:new_handler.obj
 0001:0008d010       ??$__crt_fast_encode_pointer@P6AHI@Z@@YAP6AHI@ZQ6AHI@Z@Z 0048e010 f i libucrtd:new_handler.obj
 0001:0008d050       ?_set_new_handler@@YAP6AHI@ZH@Z 0048e050 f   libucrtd:new_handler.obj
 0001:0008d0c0       ?initialize@?$dual_state_global@P6AHI@Z@__crt_state_management@@QAEXQ6AHI@Z@Z 0048e0c0 f i libucrtd:new_handler.obj
 0001:0008d110       ?value@?$dual_state_global@P6AHI@Z@__crt_state_management@@QAEAAP6AHI@ZXZ 0048e110 f i libucrtd:new_handler.obj
 0001:0008d130       ___acrt_initialize_new_handler 0048e130 f   libucrtd:new_handler.obj
 0001:0008d150       __callnewh                 0048e150 f   libucrtd:new_handler.obj
 0001:0008d1c0       __query_new_handler        0048e1c0 f   libucrtd:new_handler.obj
 0001:0008d280       __set_new_handler          0048e280 f   libucrtd:new_handler.obj
 0001:0008d360       ??$?B$$A6AXH@Z@__crt_fast_encoded_nullptr_t@@QBEP6AXH@ZXZ 0048e360 f i libucrtd:signal.obj
 0001:0008d380       ??$?RV<lambda_a048d3beccc847880fc8490e18b82769>@@AAV<lambda_ec61778202f4f5fc7e7711acc23c3bca>@@V<lambda_f7496a158712204296dd6628a163878e>@@@?$__crt_seh_guarded_call@P6AXH@Z@@QAEP6AXH@Z$$QAV<lambda_a048d3beccc847880fc8490e18b82769>@@AAV<lambda_ec61778202f4f5fc7e7711acc23c3bca>@@$$QAV<lambda_f7496a158712204296dd6628a163878e>@@@Z 0048e380 f i libucrtd:signal.obj
 0001:0008d430       ??$__acrt_lock_and_call@V<lambda_ec61778202f4f5fc7e7711acc23c3bca>@@@@YAP6AXH@ZW4__acrt_lock_id@@$$QAV<lambda_ec61778202f4f5fc7e7711acc23c3bca>@@@Z 0048e430 f i libucrtd:signal.obj
 0001:0008d480       ??$__crt_fast_decode_pointer@P6AXH@Z@@YAP6AXH@ZQ6AXH@Z@Z 0048e480 f i libucrtd:signal.obj
 0001:0008d4c0       ??$__crt_fast_encode_pointer@P6AXH@Z@@YAP6AXH@ZQ6AXH@Z@Z 0048e4c0 f i libucrtd:signal.obj
 0001:0008d840       ?initialize@?$dual_state_global@P6AXH@Z@__crt_state_management@@QAEXQ6AXH@Z@Z 0048e840 f i libucrtd:signal.obj
 0001:0008d960       ?value@?$dual_state_global@P6AXH@Z@__crt_state_management@@QAEAAP6AXH@ZXZ 0048e960 f i libucrtd:signal.obj
 0001:0008d980       ___acrt_get_sigabrt_handler 0048e980 f   libucrtd:signal.obj
 0001:0008d9a0       ___acrt_initialize_signal_handlers 0048e9a0 f   libucrtd:signal.obj
 0001:0008d9f0       ___fpecode                 0048e9f0 f   libucrtd:signal.obj
 0001:0008da10       ___pxcptinfoptrs           0048ea10 f   libucrtd:signal.obj
 0001:0008da30       _raise                     0048ea30 f   libucrtd:signal.obj
 0001:0008df00       _signal                    0048ef00 f   libucrtd:signal.obj
 0001:0008e4c0       ___control87_2             0048f4c0 f   libucrtd:ieee87.obj
 0001:0008e630       ___fpreset_sse2            0048f630 f   libucrtd:ieee87.obj
 0001:0008ea80       __clearfp                  0048fa80 f   libucrtd:ieee87.obj
 0001:0008eae0       __control87                0048fae0 f   libucrtd:ieee87.obj
 0001:0008ebc0       __controlfp                0048fbc0 f   libucrtd:ieee87.obj
 0001:0008ebf0       __fpreset                  0048fbf0 f   libucrtd:ieee87.obj
 0001:0008ee20       __set_controlfp            0048fe20 f   libucrtd:ieee87.obj
 0001:0008eed0       __statusfp                 0048fed0 f   libucrtd:ieee87.obj
 0001:0008ef30       __statusfp2                0048ff30 f   libucrtd:ieee87.obj
 0001:0008ef80       ??$__crt_interlocked_exchange_pointer@X$$T@@YAPAXPDSAX$$T@Z 0048ff80 f i libucrtd:free_base.obj
 0001:0008efb0       ___acrt_get_msvcrt_heap_handle 0048ffb0 f   libucrtd:free_base.obj
 0001:0008f0a0       __free_base                004900a0 f   libucrtd:free_base.obj
 0001:0008f100       __msize                    00490100 f   libucrtd:msize.obj
 0001:0008f120       __realloc_base             00490120 f   libucrtd:realloc_base.obj
 0001:0008f1e0       __aligned_free             004901e0 f   libucrtd:align.obj
 0001:0008f200       __aligned_free_base        00490200 f   libucrtd:align.obj
 0001:0008f250       __aligned_malloc           00490250 f   libucrtd:align.obj
 0001:0008f280       __aligned_malloc_base      00490280 f   libucrtd:align.obj
 0001:0008f2a0       __aligned_msize            004902a0 f   libucrtd:align.obj
 0001:0008f2d0       __aligned_msize_base       004902d0 f   libucrtd:align.obj
 0001:0008f450       __aligned_offset_malloc    00490450 f   libucrtd:align.obj
 0001:0008f480       __aligned_offset_malloc_base 00490480 f   libucrtd:align.obj
 0001:0008f6a0       __aligned_offset_realloc   004906a0 f   libucrtd:align.obj
 0001:0008f6d0       __aligned_offset_realloc_base 004906d0 f   libucrtd:align.obj
 0001:0008fab0       __aligned_offset_recalloc  00490ab0 f   libucrtd:align.obj
 0001:0008fae0       __aligned_offset_recalloc_base 00490ae0 f   libucrtd:align.obj
 0001:0008fbc0       __aligned_realloc          00490bc0 f   libucrtd:align.obj
 0001:0008fbf0       __aligned_realloc_base     00490bf0 f   libucrtd:align.obj
 0001:0008fc20       __aligned_recalloc         00490c20 f   libucrtd:align.obj
 0001:0008fc50       __aligned_recalloc_base    00490c50 f   libucrtd:align.obj
 0001:0008fce0       __expand                   00490ce0 f   libucrtd:expand.obj
 0001:0008fd10       __expand_base              00490d10 f   libucrtd:expand.obj
 0001:0008fe90       __CrtDefaultAllocHook      00490e90 f   libucrtd:debug_heap_hook.obj
 0001:0008fea0       __CrtGetReportHook         00490ea0 f   libucrtd:dbgrptt.obj
 0001:0008feb0       __CrtSetReportFile         00490eb0 f   libucrtd:dbgrptt.obj
 0001:0008ffe0       __CrtSetReportHook         00490fe0 f   libucrtd:dbgrptt.obj
 0001:00090010       __CrtSetReportMode         00491010 f   libucrtd:dbgrptt.obj
 0001:000901a0       __VCrtDbgReportA           004911a0 f   libucrtd:dbgrptt.obj
 0001:00090c60       __VCrtDbgReportW           00491c60 f   libucrtd:dbgrptt.obj
 0001:00091880       __snprintf_s               00492880 f i libucrtd:dbgrptt.obj
 0001:000918e0       __vsnprintf_s              004928e0 f i libucrtd:dbgrptt.obj
 0001:00091910       __vsnprintf_s_l            00492910 f i libucrtd:dbgrptt.obj
 0001:00091980       __vsnwprintf_s             00492980 f i libucrtd:dbgrptt.obj
 0001:000919b0       __iswctype_l               004929b0 f   libucrtd:iswctype.obj
 0001:000919d0       _iswctype                  004929d0 f   libucrtd:iswctype.obj
 0001:00091c90       ___acrt_DownlevelLCIDToLocaleName 00492c90 f   libucrtd:lcidtoname_downlevel.obj
 0001:00091d90       ___acrt_DownlevelLocaleNameToLCID 00492d90 f   libucrtd:lcidtoname_downlevel.obj
 0001:00091de0       __wcsnicmp                 00492de0 f   libucrtd:wcsnicmp.obj
 0001:00092050       __wcsnicmp_l               00493050 f   libucrtd:wcsnicmp.obj
 0001:00092350       __strnicmp                 00493350 f   libucrtd:strnicmp.obj
 0001:00092590       __strnicmp_l               00493590 f   libucrtd:strnicmp.obj
 0001:000928c0       ??$__vcrt_va_start_verify_argument_type@$$CBH@@YAXXZ 004938c0 f i libucrtd:open.obj
 0001:00093370       ??$tsopen_nolock@PAHABQAHABQBDABHABHABHABH@?$__crt_char_traits@D@@SAH$$QAPAHABQAHABQBDABH333@Z 00494370 f i libucrtd:open.obj
 0001:000933c0       ??$tsopen_nolock@PAHABQAHABQB_WABHABHABHABH@?$__crt_char_traits@_W@@SAH$$QAPAHABQAHABQB_WABH333@Z 004943c0 f i libucrtd:open.obj
 0001:00093410       ??$tsopen_nolock@PAHPAHABQBDABHHABHH@?$__crt_char_traits@D@@SAH$$QAPAH0ABQBDABH$$QAH23@Z 00494410 f i libucrtd:open.obj
 0001:00093460       ??$tsopen_nolock@PAHPAHABQB_WABHHABHH@?$__crt_char_traits@_W@@SAH$$QAPAH0ABQB_WABH$$QAH23@Z 00494460 f i libucrtd:open.obj
 0001:000942a0       __open                     004952a0 f   libucrtd:open.obj
 0001:00094300       __sopen                    00495300 f   libucrtd:open.obj
 0001:00094390       __sopen_dispatch           00495390 f   libucrtd:open.obj
 0001:000943c0       __sopen_nolock             004953c0 f   libucrtd:open.obj
 0001:00094450       __sopen_s                  00495450 f   libucrtd:open.obj
 0001:00094480       __wopen                    00495480 f   libucrtd:open.obj
 0001:000944e0       __wsopen                   004954e0 f   libucrtd:open.obj
 0001:00094570       __wsopen_dispatch          00495570 f   libucrtd:open.obj
 0001:000945a0       __wsopen_nolock            004955a0 f   libucrtd:open.obj
 0001:00094ca0       __wsopen_s                 00495ca0 f   libucrtd:open.obj
 0001:00094cd0       __isatty                   00495cd0 f   libucrtd:isatty.obj
 0001:00094dd0       ___acrt_stdio_allocate_buffer_nolock 00495dd0 f   libucrtd:_getbuf.obj
 0001:00094f30       ___acrt_fp_strflt_to_string 00495f30 f   libucrtd:_fptostr.obj
 0001:00095ad0       ??0big_integer@__crt_strtox@@QAE@ABU01@@Z 00496ad0 f i libucrtd:cfout.obj
 0001:00095b20       ??0big_integer@__crt_strtox@@QAE@XZ 00496b20 f i libucrtd:cfout.obj
 0001:00095b60       ??0scoped_fp_state_reset@?A0x48fbfdd4@@QAE@XZ 00496b60 f i libucrtd:cfout.obj
 0001:00095bc0       ??1scoped_fp_state_reset@?A0x48fbfdd4@@QAE@XZ 00496bc0 f i libucrtd:cfout.obj
 0001:00095bf0       ??4big_integer@__crt_strtox@@QAEAAU01@ABU01@@Z 00496bf0 f i libucrtd:cfout.obj
 0001:00095c40       ??8__crt_strtox@@YA_NABUbig_integer@0@0@Z 00496c40 f i libucrtd:cfout.obj
 0001:00095cb0       ??9__crt_strtox@@YA_NABUbig_integer@0@0@Z 00496cb0 f i libucrtd:cfout.obj
 0001:00095d00       ?add_carry@__crt_strtox@@YAIAAIII@Z 00496d00 f i libucrtd:cfout.obj
 0001:00095d50       ?add_multiply_carry@__crt_strtox@@YAIAAIIII@Z 00496d50 f i libucrtd:cfout.obj
 0001:00095da0       ?bit_scan_reverse@__crt_strtox@@YAII@Z 00496da0 f i libucrtd:cfout.obj
 0001:00095de0       ?count_sequential_high_zeroes@__crt_strtox@@YAII@Z 00496de0 f i libucrtd:cfout.obj
 0001:00095e30       ?divide@__crt_strtox@@YA_KAAUbig_integer@1@ABU21@@Z 00496e30 f i libucrtd:cfout.obj
 0001:00096b50       ?is_zero@__crt_strtox@@YA_NABUbig_integer@1@@Z 00497b50 f i libucrtd:cfout.obj
 0001:00096b80       ?make_big_integer@__crt_strtox@@YA?AUbig_integer@1@_K@Z 00497b80 f i libucrtd:cfout.obj
 0001:00096c60       ?make_big_integer_power_of_two@__crt_strtox@@YA?AUbig_integer@1@I@Z 00497c60 f i libucrtd:cfout.obj
 0001:00096d40       ?multiply@__crt_strtox@@YA_NAAUbig_integer@1@ABU21@@Z 00497d40 f i libucrtd:cfout.obj
 0001:000971a0       ?multiply@__crt_strtox@@YA_NAAUbig_integer@1@I@Z 004981a0 f i libucrtd:cfout.obj
 0001:000972a0       ?multiply_64_32@__crt_strtox@@YA_K_KI@Z 004982a0 f i libucrtd:cfout.obj
 0001:000972c0       ?multiply_by_power_of_ten@__crt_strtox@@YA_NAAUbig_integer@1@I@Z 004982c0 f i libucrtd:cfout.obj
 0001:000974c0       ?multiply_core@__crt_strtox@@YAIQAIII@Z 004984c0 f i libucrtd:cfout.obj
 0001:00097540       ?shift_left@__crt_strtox@@YA_NAAUbig_integer@1@I@Z 00498540 f i libucrtd:cfout.obj
 0001:00097960       ___acrt_fltout             00498960 f   libucrtd:cfout.obj
 0001:00097dec       ??$?RV<lambda_4980db0136e49a56f91ef52c46ca659a>@@AAV<lambda_6e3e78bb6855d1e4040e022c1b427e22>@@V<lambda_9c074eaf62197b4fd0274ed9e7824161>@@@?$__crt_seh_guarded_call@G@@QAEG$$QAV<lambda_4980db0136e49a56f91ef52c46ca659a>@@AAV<lambda_6e3e78bb6855d1e4040e022c1b427e22>@@$$QAV<lambda_9c074eaf62197b4fd0274ed9e7824161>@@@Z 00498dec f i libucrtd:putwch.obj
 0001:00097e61       ??$__acrt_lock_and_call@V<lambda_6e3e78bb6855d1e4040e022c1b427e22>@@@@YAGW4__acrt_lock_id@@$$QAV<lambda_6e3e78bb6855d1e4040e022c1b427e22>@@@Z 00498e61 f i libucrtd:putwch.obj
 0001:00097ef9       __putwch                   00498ef9 f   libucrtd:putwch.obj
 0001:00097f1d       __putwch_nolock            00498f1d f   libucrtd:putwch.obj
 0001:00097f80       ?dangerous_get_state_array@?$dual_state_global@PAPAD@__crt_state_management@@QAEPAPAPADXZ 00498f80 f i libucrtd:timeset.obj
 0001:00097fa0       ?initialize@?$dual_state_global@H@__crt_state_management@@QAEXH@Z 00498fa0 f i libucrtd:timeset.obj
 0001:00097ff0       ?initialize@?$dual_state_global@J@__crt_state_management@@QAEXJ@Z 00498ff0 f i libucrtd:timeset.obj
 0001:00098040       ?value@?$dual_state_global@H@__crt_state_management@@QAEAAHXZ 00499040 f i libucrtd:timeset.obj
 0001:00098060       ___acrt_initialize_timeset 00499060 f   libucrtd:timeset.obj
 0001:000980f0       ___daylight                004990f0 f   libucrtd:timeset.obj
 0001:00098110       ___dstbias                 00499110 f   libucrtd:timeset.obj
 0001:00098130       ___timezone                00499130 f   libucrtd:timeset.obj
 0001:00098150       ___tzname                  00499150 f   libucrtd:timeset.obj
 0001:00098170       __get_daylight             00499170 f   libucrtd:timeset.obj
 0001:00098230       __get_dstbias              00499230 f   libucrtd:timeset.obj
 0001:000982f0       __get_timezone             004992f0 f   libucrtd:timeset.obj
 0001:000983b0       __get_tzname               004993b0 f   libucrtd:timeset.obj
 0001:00098640       ??$?RUtm@@@__crt_internal_free_policy@@QBEXQBUtm@@@Z 00499640 f i libucrtd:gmtime.obj
 0001:00098670       ??$__crt_time_elapsed_leap_years@H@@YAHH@Z 00499670 f i libucrtd:gmtime.obj
 0001:00098e30       ??0?$__crt_unique_heap_ptr@Utm@@U__crt_internal_free_policy@@@@QAE@QAUtm@@@Z 00499e30 f i libucrtd:gmtime.obj
 0001:00098e50       ??1?$__crt_unique_heap_ptr@Utm@@U__crt_internal_free_policy@@@@QAE@XZ 00499e50 f i libucrtd:gmtime.obj
 0001:000990a0       ?detach@?$__crt_unique_heap_ptr@Utm@@U__crt_internal_free_policy@@@@QAEPAUtm@@XZ 0049a0a0 f i libucrtd:gmtime.obj
 0001:000990d0       ?release@?$__crt_unique_heap_ptr@Utm@@U__crt_internal_free_policy@@@@QAEXXZ 0049a0d0 f i libucrtd:gmtime.obj
 0001:00099110       ___getgmtimebuf            0049a110 f   libucrtd:gmtime.obj
 0001:000991c0       __gmtime32                 0049a1c0 f   libucrtd:gmtime.obj
 0001:000991e0       __gmtime32_s               0049a1e0 f   libucrtd:gmtime.obj
 0001:00099200       __gmtime64                 0049a200 f   libucrtd:gmtime.obj
 0001:00099220       __gmtime64_s               0049a220 f   libucrtd:gmtime.obj
 0001:00099680       ?_set_daylight@@YAXH@Z     0049a680 f i libucrtd:tzset.obj
 0001:000996a0       ?_set_dstbias@@YAXJ@Z      0049a6a0 f i libucrtd:tzset.obj
 0001:000996c0       ?_set_timezone@@YAXJ@Z     0049a6c0 f i libucrtd:tzset.obj
 0001:0009a2c0       ___tzset                   0049b2c0 f   libucrtd:tzset.obj
 0001:0009a390       __isindst                  0049b390 f   libucrtd:tzset.obj
 0001:0009a440       __tzset                    0049b440 f   libucrtd:tzset.obj
 0001:0009a4d0       ___strncnt                 0049b4d0 f   libucrtd:strncnt.obj
 0001:0009a530       ??1scoped_global_state_reset@__crt_state_management@@QAE@XZ 0049b530 f i libucrtd:qsort.obj
 0001:0009a6b0       _qsort                     0049b6b0 f   libucrtd:qsort.obj
 0001:0009b3e0       _strncpy_s                 0049c3e0 f   libucrtd:strncpy_s.obj
 0001:0009b410       _strpbrk                   0049c410 f   libucrtd:strpbrk.obj
 0001:0009b460       __mbsdec                   0049c460 f   libucrtd:mbsdec.obj
 0001:0009b47c       __mbsdec_l                 0049c47c f   libucrtd:mbsdec.obj
 0001:0009b5e0       __wcsnicoll                0049c5e0 f   libucrtd:wcsnicol.obj
 0001:0009b8d0       __wcsnicoll_l              0049c8d0 f   libucrtd:wcsnicol.obj
 0001:0009bc70       __strnicoll                0049cc70 f   libucrtd:strnicol.obj
 0001:0009bcd0       __strnicoll_l              0049ccd0 f   libucrtd:strnicol.obj
 0001:0009c1f0       ___acrt_GetLocaleInfoA     0049d1f0 f   libucrtd:getlocaleinfoa.obj
 0001:0009dbc0       __i64toa                   0049ebc0 f   libucrtd:xtoa.obj
 0001:0009dc30       __i64toa_s                 0049ec30 f   libucrtd:xtoa.obj
 0001:0009dca0       __i64tow                   0049eca0 f   libucrtd:xtoa.obj
 0001:0009dd10       __i64tow_s                 0049ed10 f   libucrtd:xtoa.obj
 0001:0009dd80       __itoa                     0049ed80 f   libucrtd:xtoa.obj
 0001:0009dde0       __itoa_s                   0049ede0 f   libucrtd:xtoa.obj
 0001:0009de40       __itow                     0049ee40 f   libucrtd:xtoa.obj
 0001:0009dea0       __itow_s                   0049eea0 f   libucrtd:xtoa.obj
 0001:0009df00       __ltoa                     0049ef00 f   libucrtd:xtoa.obj
 0001:0009df60       __ltoa_s                   0049ef60 f   libucrtd:xtoa.obj
 0001:0009dfc0       __ltow                     0049efc0 f   libucrtd:xtoa.obj
 0001:0009e020       __ltow_s                   0049f020 f   libucrtd:xtoa.obj
 0001:0009e080       __ui64toa                  0049f080 f   libucrtd:xtoa.obj
 0001:0009e0b0       __ui64toa_s                0049f0b0 f   libucrtd:xtoa.obj
 0001:0009e0e0       __ui64tow                  0049f0e0 f   libucrtd:xtoa.obj
 0001:0009e110       __ui64tow_s                0049f110 f   libucrtd:xtoa.obj
 0001:0009e140       __ultoa                    0049f140 f   libucrtd:xtoa.obj
 0001:0009e170       __ultoa_s                  0049f170 f   libucrtd:xtoa.obj
 0001:0009e1a0       __ultow                    0049f1a0 f   libucrtd:xtoa.obj
 0001:0009e1d0       __ultow_s                  0049f1d0 f   libucrtd:xtoa.obj
 0001:0009e200       __wcsicmp                  0049f200 f   libucrtd:wcsicmp.obj
 0001:0009e440       __wcsicmp_l                0049f440 f   libucrtd:wcsicmp.obj
 0001:0009e740       __malloc_base              0049f740 f   libucrtd:malloc_base.obj
 0001:0009ec60       __mbstowcs_l               0049fc60 f   libucrtd:mbstowcs.obj
 0001:0009ec90       __mbstowcs_s_l             0049fc90 f   libucrtd:mbstowcs.obj
 0001:0009f140       _mbstowcs                  004a0140 f   libucrtd:mbstowcs.obj
 0001:0009f1a0       _mbstowcs_s                004a01a0 f   libucrtd:mbstowcs.obj
 0001:0009f9c0       __wcstombs_l               004a09c0 f   libucrtd:wcstombs.obj
 0001:0009f9f0       __wcstombs_s_l             004a09f0 f   libucrtd:wcstombs.obj
 0001:0009fe30       _wcstombs                  004a0e30 f   libucrtd:wcstombs.obj
 0001:0009fe60       _wcstombs_s                004a0e60 f   libucrtd:wcstombs.obj
 0001:000a03a0       _strcat_s                  004a13a0 f   libucrtd:strcat_s.obj
 0001:000a03d0       __towlower_l               004a13d0 f   libucrtd:towlower.obj
 0001:000a0570       _towlower                  004a1570 f   libucrtd:towlower.obj
 0001:000a0590       ___ascii_strnicmp          004a1590 f   libucrtd:_strnicm.obj
 0001:000a0610       ??$?RV<lambda_e87d504cbc7d400fcbe2d82cf548b8f7>@@AAV<lambda_0e5c436e1fba8d7954c4c0cd61485ee8>@@V<lambda_ae6bc716cac9627e2d882580dc02b217>@@@?$__crt_seh_guarded_call@H@@QAEH$$QAV<lambda_e87d504cbc7d400fcbe2d82cf548b8f7>@@AAV<lambda_0e5c436e1fba8d7954c4c0cd61485ee8>@@$$QAV<lambda_ae6bc716cac9627e2d882580dc02b217>@@@Z 004a1610 f i libucrtd:chsize.obj
 0001:000a06c0       ??$__acrt_lowio_lock_fh_and_call@V<lambda_0e5c436e1fba8d7954c4c0cd61485ee8>@@@@YAHH$$QAV<lambda_0e5c436e1fba8d7954c4c0cd61485ee8>@@@Z 004a16c0 f i libucrtd:chsize.obj
 0001:000a08b0       __chsize                   004a18b0 f   libucrtd:chsize.obj
 0001:000a08f0       __chsize_nolock            004a18f0 f   libucrtd:chsize.obj
 0001:000a0bf0       __chsize_s                 004a1bf0 f   libucrtd:chsize.obj
 0001:000a0e70       __umask                    004a1e70 f   libucrtd:umask.obj
 0001:000a0eb0       __umask_s                  004a1eb0 f   libucrtd:umask.obj
 0001:000a1010       _log10                     004a2010 f   libucrtd:log10.obj
 0001:000a1050       __CIlog10                  004a2050 f   libucrtd:log10.obj
 0001:000a108b       __CIlog10_default          004a208b f   libucrtd:log10.obj
 0001:000a109f       __log10_default            004a209f     libucrtd:log10.obj
 0001:000a11c0       _ceil                      004a21c0 f   libucrtd:ceil_pentium4.obj
 0001:000a1200       __ceil_pentium4            004a2200 f   libucrtd:ceil_pentium4.obj
 0001:000a1330       _fegetenv                  004a2330 f   libucrtd:fegetenv.obj
 0001:000a1360       _fesetenv                  004a2360 f   libucrtd:fesetenv.obj
 0001:000a13e0       _feholdexcept              004a23e0 f   libucrtd:feholdexcept.obj
 0001:000a145f       ___dcrt_lowio_initialize_console_output 004a245f f   libucrtd:initcon.obj
 0001:000a1485       ___dcrt_terminate_console_output 004a2485 f   libucrtd:initcon.obj
 0001:000a20c3       ??$tcscpy_s@AAPADABIABQBD@?$__crt_char_traits@D@@SAHAAPADABIABQBD@Z 004a30c3 f i libucrtd:getenv.obj
 0001:000a20e8       ??$tcscpy_s@AAPA_WABIABQB_W@?$__crt_char_traits@_W@@SAHAAPA_WABIABQB_W@Z 004a30e8 f i libucrtd:getenv.obj
 0001:000a210d       ??$tcscpy_s@ABQADABIABQBD@?$__crt_char_traits@D@@SAHABQADABIABQBD@Z 004a310d f i libucrtd:getenv.obj
 0001:000a2132       ??$tcscpy_s@ABQA_WABIABQB_W@?$__crt_char_traits@_W@@SAHABQA_WABIABQB_W@Z 004a3132 f i libucrtd:getenv.obj
 0001:000a2157       ??$tcsnicoll@AAPADABQBDABI@?$__crt_char_traits@D@@SAHAAPADABQBDABI@Z 004a3157 f i libucrtd:getenv.obj
 0001:000a217c       ??$tcsnicoll@AAPA_WABQB_WABI@?$__crt_char_traits@_W@@SAHAAPA_WABQB_WABI@Z 004a317c f i libucrtd:getenv.obj
 0001:000a21a1       ??$tcsnlen@ABQBDH@?$__crt_char_traits@D@@SAIABQBD$$QAH@Z 004a31a1 f i libucrtd:getenv.obj
 0001:000a21bf       ??$tcsnlen@ABQB_WH@?$__crt_char_traits@_W@@SAIABQB_W$$QAH@Z 004a31bf f i libucrtd:getenv.obj
 0001:000a21dd       ??$tcsnlen@PADH@?$__crt_char_traits@D@@SAI$$QAPAD$$QAH@Z 004a31dd f i libucrtd:getenv.obj
 0001:000a21fb       ??$tcsnlen@PA_WH@?$__crt_char_traits@_W@@SAI$$QAPA_W$$QAH@Z 004a31fb f i libucrtd:getenv.obj
 0001:000a2219       __dupenv_s                 004a3219 f   libucrtd:getenv.obj
 0001:000a223e       __dupenv_s_dbg             004a323e f   libucrtd:getenv.obj
 0001:000a224b       __wdupenv_s                004a324b f   libucrtd:getenv.obj
 0001:000a2270       __wdupenv_s_dbg            004a3270 f   libucrtd:getenv.obj
 0001:000a227d       __wgetenv                  004a327d f   libucrtd:getenv.obj
 0001:000a228a       __wgetenv_s                004a328a f   libucrtd:getenv.obj
 0001:000a2297       _getenv                    004a3297 f   libucrtd:getenv.obj
 0001:000a22a4       _getenv_s                  004a32a4 f   libucrtd:getenv.obj
 0001:000a22c0       ___acrt_CompareStringW     004a32c0 f   libucrtd:comparestringw.obj
 0001:000a2940       ___acrt_CompareStringA     004a3940 f   libucrtd:comparestringa.obj
 0001:000a29b0       ___acrt_LCMapStringW       004a39b0 f   libucrtd:lcmapstringw.obj
 0001:000a2a30       ___acrt_initialize_sse2    004a3a30 f   libucrtd:mathfcns.obj
 0001:000a2a50       __set_SSE2_enable          004a3a50 f   libucrtd:mathfcns.obj
 0001:000a2ab0       __CIlog10_pentium4         004a3ab0 f   libucrtd:log10_pentium4.obj
 0001:000a2ac8       __log10_pentium4           004a3ac8     libucrtd:log10_pentium4.obj
 0001:000a2e01       __fFEXP                    004a3e01     libucrtd:87tran.obj
 0001:000a2e58       __rtinfpopse               004a3e58     libucrtd:87tran.obj
 0001:000a2e5a       __rtinfnpopse              004a3e5a     libucrtd:87tran.obj
 0001:000a2e6a       __fFLN                     004a3e6a     libucrtd:87tran.obj
 0001:000a2f1f       __rtinfpop                 004a3f1f     libucrtd:87tran.obj
 0001:000a2f21       __rtinfnpop                004a3f21     libucrtd:87tran.obj
 0001:000a2f3e       __ffexpm1                  004a3f3e     libucrtd:87tran.obj
 0001:000a3070       __trandisp1                004a4070 f   libucrtd:87disp.obj
 0001:000a30d7       __trandisp2                004a40d7 f   libucrtd:87disp.obj
 0001:000a3163       __rttospopde               004a4163     libucrtd:87disp.obj
 0001:000a3168       __rttospop                 004a4168     libucrtd:87disp.obj
 0001:000a316a       __rtnospop                 004a416a     libucrtd:87disp.obj
 0001:000a316c       __rttosnpop                004a416c     libucrtd:87disp.obj
 0001:000a316d       __rtnospopde               004a416d     libucrtd:87disp.obj
 0001:000a3174       __rtzeropop                004a4174     libucrtd:87disp.obj
 0001:000a3176       __rtzeronpop               004a4176     libucrtd:87disp.obj
 0001:000a317b       __rtzerospop               004a417b     libucrtd:87disp.obj
 0001:000a3188       __rtonepop                 004a4188     libucrtd:87disp.obj
 0001:000a318a       __rtonenpop                004a418a     libucrtd:87disp.obj
 0001:000a318f       __tosnan1                  004a418f     libucrtd:87disp.obj
 0001:000a31ba       __nosnan2                  004a41ba     libucrtd:87disp.obj
 0001:000a31bc       __tosnan2                  004a41bc     libucrtd:87disp.obj
 0001:000a31e4       __nan2                     004a41e4     libucrtd:87disp.obj
 0001:000a3223       __rtindfpop                004a4223     libucrtd:87disp.obj
 0001:000a3225       __rtindfnpop               004a4225     libucrtd:87disp.obj
 0001:000a3236       __rttosnpopde              004a4236     libucrtd:87disp.obj
 0001:000a3240       __rtatan2inf               004a4240     libucrtd:87disp.obj
 0001:000a325d       __rtchsifneg               004a425d     libucrtd:87disp.obj
 0001:000a32f0       ___setfflag                004a42f0 f   libucrtd:fp_flags.obj
 0001:000a3320       __twoToTOS                 004a4320 f   libucrtd:common.obj
 0001:000a3335       __load_CW                  004a4335 f   libucrtd:common.obj
 0001:000a334c       __convertTOStoQNaN         004a434c f   libucrtd:common.obj
 0001:000a3365       __fload_withFB             004a4365 f   libucrtd:common.obj
 0001:000a33a8       __checkTOS_withFB          004a43a8 f   libucrtd:common.obj
 0001:000a33be       __fast_exit                004a43be f   libucrtd:common.obj
 0001:000a33cb       __math_exit                004a43cb f   libucrtd:common.obj
 0001:000a33f5       __check_overflow_exit      004a43f5 f   libucrtd:common.obj
 0001:000a3409       __check_range_exit         004a4409 f   libucrtd:common.obj
 0001:000a3510       __startTwoArgErrorHandling 004a4510 f   libucrtd:genexcep.obj
 0001:000a3527       __startOneArgErrorHandling 004a4527 f   libucrtd:genexcep.obj
 0001:000a3580       ___libm_error_support      004a4580 f   libucrtd:libm_error.obj
 0001:000a3cc0       ___libm_setusermatherr     004a4cc0 f   libucrtd:libm_error.obj
 0001:000a3d00       __ceil_default             004a4d00 f   libucrtd:ceil.obj
 0001:000a3e60       ___acrt_fenv_get_fp_status_word_from_exception_mask 004a4e60 f   libucrtd:_fenvutils.obj
 0001:000a45e0       __getfpcontrolword         004a55e0 f   libucrtd:_fenvutils.obj
 0001:000a4650       __getfpstatusword          004a5650 f   libucrtd:_fenvutils.obj
 0001:000a46c0       __setfpcontrolword         004a56c0 f   libucrtd:_fenvutils.obj
 0001:000a47b0       __setfpstatusword          004a57b0 f   libucrtd:_fenvutils.obj
 0001:000a48a0       __d_inttype                004a58a0 f   libucrtd:powhlp.obj
 0001:000a4950       __powhlp                   004a5950 f   libucrtd:powhlp.obj
 0001:000a4b60       __87except                 004a5b60 f   libucrtd:87except.obj
 0001:000a4dd0       __frnd                     004a5dd0 f   libucrtd:frnd.obj
 0001:000a4df0       __chgsign                  004a5df0 f   libucrtd:ieeemisc.obj
 0001:000a4e30       __chgsignf                 004a5e30 f   libucrtd:ieeemisc.obj
 0001:000a4e80       __copysign                 004a5e80 f   libucrtd:ieeemisc.obj
 0001:000a4ec0       __copysignf                004a5ec0 f   libucrtd:ieeemisc.obj
 0001:000a4f20       __finite                   004a5f20 f   libucrtd:ieeemisc.obj
 0001:000a4f50       __fpclass                  004a5f50 f   libucrtd:ieeemisc.obj
 0001:000a5080       __isnan                    004a6080 f   libucrtd:ieeemisc.obj
 0001:000a50e0       __logb                     004a60e0 f   libucrtd:ieeemisc.obj
 0001:000a5240       __nextafter                004a6240 f   libucrtd:ieeemisc.obj
 0001:000a5270       __scalb                    004a6270 f   libucrtd:ieeemisc.obj
 0001:000a52a0       _ldexp                     004a62a0 f   libucrtd:ldexp.obj
 0001:000a5630       _nextafter                 004a6630 f   libucrtd:nextafter.obj
 0001:000a5660       _nexttoward                004a6660 f   libucrtd:nexttoward.obj
 0001:000a5a80       __d_int                    004a6a80 f   libucrtd:_test.obj
 0001:000a5dd0       __dtest                    004a6dd0 f   libucrtd:_test.obj
 0001:000a5f30       __fd_int                   004a6f30 f   libucrtd:_test.obj
 0001:000a6180       __fdtest                   004a7180 f   libucrtd:_test.obj
 0001:000a6280       __fperrraise               004a7280 f   libucrtd:_test.obj
 0001:000a62c0       __ld_int                   004a72c0 f   libucrtd:_test.obj
 0001:000a62e0       __ldtest                   004a72e0 f   libucrtd:_test.obj
 0001:000a6420       _fegetexceptflag           004a7420 f   libucrtd:fegetexceptflag.obj
 0001:000a6480       _fesetexceptflag           004a7480 f   libucrtd:fesetexceptflag.obj
 0001:000a6520       _fetestexcept              004a7520 f   libucrtd:fetestexcept.obj
 0001:000a6550       _UnhandledExceptionFilter@4 004a7550 f   kernel32:KERNEL32.dll
 0001:000a6556       _SetUnhandledExceptionFilter@4 004a7556 f   kernel32:KERNEL32.dll
 0001:000a655c       _GetCurrentProcess@0       004a755c f   kernel32:KERNEL32.dll
 0001:000a6562       _TerminateProcess@8        004a7562 f   kernel32:KERNEL32.dll
 0001:000a6568       _IsProcessorFeaturePresent@4 004a7568 f   kernel32:KERNEL32.dll
 0001:000a656e       _QueryPerformanceCounter@4 004a756e f   kernel32:KERNEL32.dll
 0001:000a6574       _GetCurrentProcessId@0     004a7574 f   kernel32:KERNEL32.dll
 0001:000a657a       _GetCurrentThreadId@0      004a757a f   kernel32:KERNEL32.dll
 0001:000a6580       _GetSystemTimeAsFileTime@4 004a7580 f   kernel32:KERNEL32.dll
 0001:000a6586       _InitializeSListHead@4     004a7586 f   kernel32:KERNEL32.dll
 0001:000a658c       _IsDebuggerPresent@0       004a758c f   kernel32:KERNEL32.dll
 0001:000a6592       _GetStartupInfoW@4         004a7592 f   kernel32:KERNEL32.dll
 0001:000a6598       _GetModuleHandleW@4        004a7598 f   kernel32:KERNEL32.dll
 0001:000a659e       _InterlockedPushEntrySList@8 004a759e f   kernel32:KERNEL32.dll
 0001:000a65a4       _InterlockedFlushSList@4   004a75a4 f   kernel32:KERNEL32.dll
 0001:000a65aa       _RtlUnwind@16              004a75aa f   kernel32:KERNEL32.dll
 0001:000a65b0       _GetLastError@0            004a75b0 f   kernel32:KERNEL32.dll
 0001:000a65b6       _SetLastError@4            004a75b6 f   kernel32:KERNEL32.dll
 0001:000a65bc       _EnterCriticalSection@4    004a75bc f   kernel32:KERNEL32.dll
 0001:000a65c2       _LeaveCriticalSection@4    004a75c2 f   kernel32:KERNEL32.dll
 0001:000a65c8       _DeleteCriticalSection@4   004a75c8 f   kernel32:KERNEL32.dll
 0001:000a65ce       _InitializeCriticalSectionAndSpinCount@8 004a75ce f   kernel32:KERNEL32.dll
 0001:000a65d4       _TlsAlloc@0                004a75d4 f   kernel32:KERNEL32.dll
 0001:000a65da       _TlsGetValue@4             004a75da f   kernel32:KERNEL32.dll
 0001:000a65e0       _TlsSetValue@8             004a75e0 f   kernel32:KERNEL32.dll
 0001:000a65e6       _TlsFree@4                 004a75e6 f   kernel32:KERNEL32.dll
 0001:000a65ec       _FreeLibrary@4             004a75ec f   kernel32:KERNEL32.dll
 0001:000a65f2       _GetProcAddress@8          004a75f2 f   kernel32:KERNEL32.dll
 0001:000a65f8       _LoadLibraryExW@12         004a75f8 f   kernel32:KERNEL32.dll
 0001:000a65fe       _ReadFile@20               004a75fe f   kernel32:KERNEL32.dll
 0001:000a6604       _MultiByteToWideChar@24    004a7604 f   kernel32:KERNEL32.dll
 0001:000a660a       _ExitProcess@4             004a760a f   kernel32:KERNEL32.dll
 0001:000a6610       _GetModuleHandleExW@12     004a7610 f   kernel32:KERNEL32.dll
 0001:000a6616       _RaiseException@16         004a7616 f   kernel32:KERNEL32.dll
 0001:000a661c       _GetStdHandle@4            004a761c f   kernel32:KERNEL32.dll
 0001:000a6622       _WriteFile@20              004a7622 f   kernel32:KERNEL32.dll
 0001:000a6628       _GetModuleFileNameW@12     004a7628 f   kernel32:KERNEL32.dll
 0001:000a662e       _GetModuleFileNameA@12     004a762e f   kernel32:KERNEL32.dll
 0001:000a6634       _WideCharToMultiByte@32    004a7634 f   kernel32:KERNEL32.dll
 0001:000a663a       _GetCommandLineA@0         004a763a f   kernel32:KERNEL32.dll
 0001:000a6640       _GetCommandLineW@0         004a7640 f   kernel32:KERNEL32.dll
 0001:000a6646       _GetACP@0                  004a7646 f   kernel32:KERNEL32.dll
 0001:000a664c       _HeapAlloc@12              004a764c f   kernel32:KERNEL32.dll
 0001:000a6652       _HeapValidate@12           004a7652 f   kernel32:KERNEL32.dll
 0001:000a6658       _GetSystemInfo@4           004a7658 f   kernel32:KERNEL32.dll
 0001:000a665e       _GetDateFormatW@24         004a765e f   kernel32:KERNEL32.dll
 0001:000a6664       _GetTimeFormatW@24         004a7664 f   kernel32:KERNEL32.dll
 0001:000a666a       _CompareStringW@24         004a766a f   kernel32:KERNEL32.dll
 0001:000a6670       _LCMapStringW@24           004a7670 f   kernel32:KERNEL32.dll
 0001:000a6676       _GetLocaleInfoW@16         004a7676 f   kernel32:KERNEL32.dll
 0001:000a667c       _IsValidLocale@8           004a767c f   kernel32:KERNEL32.dll
 0001:000a6682       _GetUserDefaultLCID@0      004a7682 f   kernel32:KERNEL32.dll
 0001:000a6688       _EnumSystemLocalesW@8      004a7688 f   kernel32:KERNEL32.dll
 0001:000a668e       _GetFileType@4             004a768e f   kernel32:KERNEL32.dll
 0001:000a6694       _CloseHandle@4             004a7694 f   kernel32:KERNEL32.dll
 0001:000a669a       _GetConsoleMode@8          004a769a f   kernel32:KERNEL32.dll
 0001:000a66a0       _ReadConsoleW@20           004a76a0 f   kernel32:KERNEL32.dll
 0001:000a66a6       _SetFilePointerEx@20       004a76a6 f   kernel32:KERNEL32.dll
 0001:000a66ac       _DeleteFileW@4             004a76ac f   kernel32:KERNEL32.dll
 0001:000a66b2       _MoveFileExW@12            004a76b2 f   kernel32:KERNEL32.dll
 0001:000a66b8       _GetCurrentThread@0        004a76b8 f   kernel32:KERNEL32.dll
 0001:000a66be       _FlushFileBuffers@4        004a76be f   kernel32:KERNEL32.dll
 0001:000a66c4       _GetConsoleCP@0            004a76c4 f   kernel32:KERNEL32.dll
 0001:000a66ca       _OutputDebugStringA@4      004a76ca f   kernel32:KERNEL32.dll
 0001:000a66d0       _OutputDebugStringW@4      004a76d0 f   kernel32:KERNEL32.dll
 0001:000a66d6       _WaitForSingleObjectEx@12  004a76d6 f   kernel32:KERNEL32.dll
 0001:000a66dc       _CreateThread@24           004a76dc f   kernel32:KERNEL32.dll
 0001:000a66e2       _FindClose@4               004a76e2 f   kernel32:KERNEL32.dll
 0001:000a66e8       _FindFirstFileExA@24       004a76e8 f   kernel32:KERNEL32.dll
 0001:000a66ee       _FindFirstFileExW@24       004a76ee f   kernel32:KERNEL32.dll
 0001:000a66f4       _FindNextFileW@8           004a76f4 f   kernel32:KERNEL32.dll
 0001:000a66fa       _IsValidCodePage@4         004a76fa f   kernel32:KERNEL32.dll
 0001:000a6700       _GetOEMCP@0                004a7700 f   kernel32:KERNEL32.dll
 0001:000a6706       _GetCPInfo@8               004a7706 f   kernel32:KERNEL32.dll
 0001:000a670c       _GetEnvironmentStringsW@0  004a770c f   kernel32:KERNEL32.dll
 0001:000a6712       _FreeEnvironmentStringsW@4 004a7712 f   kernel32:KERNEL32.dll
 0001:000a6718       _SetEnvironmentVariableA@8 004a7718 f   kernel32:KERNEL32.dll
 0001:000a671e       _SetEnvironmentVariableW@8 004a771e f   kernel32:KERNEL32.dll
 0001:000a6724       _SetStdHandle@8            004a7724 f   kernel32:KERNEL32.dll
 0001:000a672a       _GetStringTypeW@16         004a772a f   kernel32:KERNEL32.dll
 0001:000a6730       _GetProcessHeap@0          004a7730 f   kernel32:KERNEL32.dll
 0001:000a6736       _SetConsoleCtrlHandler@8   004a7736 f   kernel32:KERNEL32.dll
 0001:000a673c       _HeapFree@12               004a773c f   kernel32:KERNEL32.dll
 0001:000a6742       _HeapReAlloc@16            004a7742 f   kernel32:KERNEL32.dll
 0001:000a6748       _HeapSize@12               004a7748 f   kernel32:KERNEL32.dll
 0001:000a674e       _HeapQueryInformation@20   004a774e f   kernel32:KERNEL32.dll
 0001:000a6754       _WriteConsoleW@20          004a7754 f   kernel32:KERNEL32.dll
 0001:000a675a       _CreateFileW@28            004a775a f   kernel32:KERNEL32.dll
 0001:000a6760       _GetTimeZoneInformation@4  004a7760 f   kernel32:KERNEL32.dll
 0001:000a6766       _SetEndOfFile@4            004a7766 f   kernel32:KERNEL32.dll
 0001:000a676c       _EncodePointer@4           004a776c f   kernel32:KERNEL32.dll
 0001:000a6772       _DecodePointer@4           004a7772 f   kernel32:KERNEL32.dll
 0001:000a6780       __FindPESection            004a7780 f   LIBCMTD:pesect.obj
 0001:000a6810       __IsNonwritableInCurrentImage 004a7810 f   LIBCMTD:pesect.obj
 0001:000a6990       __ValidateImageBase        004a7990 f   LIBCMTD:pesect.obj
 0001:000a6a10       __allshl                   004a7a10 f   LIBCMTD:llshl.obj
 0001:000a6a40       __aulldiv                  004a7a40 f   LIBCMTD:ulldiv.obj
 0001:000a6ad0       __aullrem                  004a7ad0 f   LIBCMTD:ullrem.obj
 0001:000a6b70       ??1type_info@@UAE@XZ       004a7b70 f   LIBCMTD:std_type_info_static.obj
 0001:000a6b90       ??_Etype_info@@UAEPAXI@Z   004a7b90 f i LIBCMTD:std_type_info_static.obj
 0001:000a6b90       ??_Gtype_info@@UAEPAXI@Z   004a7b90 f i LIBCMTD:std_type_info_static.obj
 0001:000a6bd0       __alldiv                   004a7bd0 f   LIBCMTD:lldiv.obj
 0001:000a6cb0       __chkstk                   004a7cb0 f   LIBCMTD:chkstk.obj
 0001:000a6cb0       __alloca_probe             004a7cb0 f   LIBCMTD:chkstk.obj
 0001:000a6cf0       __allmul                   004a7cf0 f   LIBCMTD:llmul.obj
 0001:000a6d40       __allrem                   004a7d40 f   LIBCMTD:llrem.obj
 0001:000a6e20       __aullshr                  004a7e20 f   LIBCMTD:ullshr.obj
 0001:000a6e50       __ftol2_sse                004a7e50 f   LIBCMTD:_ftol2_.obj
 0001:000a6e59       __ftol2_pentium4           004a7e59 f   LIBCMTD:_ftol2_.obj
 0001:000a6e6c       __ftol2_sse_excpt          004a7e6c f   LIBCMTD:_ftol2_.obj
 0001:000a6e90       __ftol2                    004a7e90 f   LIBCMTD:_ftol2_.obj
 0001:000a6f40       __SEH_prolog4              004a7f40 f   LIBCMTD:_sehprolg4_.obj
 0001:000a6f86       __SEH_epilog4              004a7f86 f   LIBCMTD:_sehprolg4_.obj
 0001:000a6fc0       ??3@YAXPAXI@Z              004a7fc0 f   LIBCMTD:delete_scalar_size.obj
 0001:000a6fe0       ??3@YAXPAX@Z               004a7fe0 f   LIBCMTD:delete_scalar.obj
 0001:000a7210       _memcmp                    004a8210 f   libvcruntimed:_memcmp_.obj
 0001:000a7d10       _memmove                   004a8d10 f   libvcruntimed:memmove.obj
 0001:000a83f0       _strrchr                   004a93f0 f   libvcruntimed:strrchr.obj
 0001:000a8580       ?_CallCatchBlock2@@YAPAXPAUEHRegistrationNode@@PBU_s_FuncInfo@@PAXHK@Z 004a9580 f   libvcruntimed:trnsctrl.obj
 0001:000a8610       ?_CallSETranslator@@YAHPAUEHExceptionRecord@@PAUEHRegistrationNode@@PAX2PBU_s_FuncInfo@@H1@Z 004a9610 f   libvcruntimed:trnsctrl.obj
 0001:000a8740       ?_GetRangeOfTrysToCheck@@YAPBU_s_TryBlockMapEntry@@PBU_s_FuncInfo@@HHPAI1@Z 004a9740 f   libvcruntimed:trnsctrl.obj
 0001:000a8840       ?_JumpToContinuation@@YGXPAXPAUEHRegistrationNode@@@Z 004a9840 f   libvcruntimed:trnsctrl.obj
 0001:000a8880       ?_UnwindNestedFrames@@YGXPAUEHRegistrationNode@@PAUEHExceptionRecord@@@Z 004a9880 f   libvcruntimed:trnsctrl.obj
 0001:000a88f0       __CatchGuardHandler        004a98f0 f   libvcruntimed:trnsctrl.obj
 0001:000a8950       __CreateFrameInfo          004a9950 f   libvcruntimed:trnsctrl.obj
 0001:000a8990       __FindAndUnlinkFrame       004a9990 f   libvcruntimed:trnsctrl.obj
 0001:000a8a20       __IsExceptionObjectToBeDestroyed 004a9a20 f   libvcruntimed:trnsctrl.obj
 0001:000a8a70       __TranslatorGuardHandler   004a9a70 f   libvcruntimed:trnsctrl.obj
 0001:000a8b50       ___CxxFrameHandler         004a9b50 f   libvcruntimed:trnsctrl.obj
 0001:000a8ba0       ___CxxFrameHandler2        004a9ba0 f   libvcruntimed:trnsctrl.obj
 0001:000a8bf0       ___CxxFrameHandler3        004a9bf0 f   libvcruntimed:trnsctrl.obj
 0001:000a8c40       ___CxxLongjmpUnwind@4      004a9c40 f   libvcruntimed:trnsctrl.obj
 0001:000a8c90       _strchr                    004a9c90 f   libvcruntimed:strchr.obj
 0001:000a8cfe       ___from_strstr_to_strchr   004a9cfe     libvcruntimed:strchr.obj
 0001:000a8e10       _wcschr                    004a9e10 f   libvcruntimed:wcschr.obj
 0001:000a8fd0       __CallSettingFrame@12      004a9fd0 f   libvcruntimed:lowhelpr.obj
 0001:000a8ff7       __NLG_Return               004a9ff7     libvcruntimed:lowhelpr.obj
 0001:000a9030       ___DestructExceptionObject 004aa030 f   libvcruntimed:frame.obj
 0001:000a91b0       ??0bad_exception@std@@QAE@ABV01@@Z 004aa1b0 f i libvcruntimed:frame.obj
 0001:000a91e0       ??0bad_exception@std@@QAE@XZ 004aa1e0 f i libvcruntimed:frame.obj
 0001:000a9210       ??0exception@std@@QAE@ABV01@@Z 004aa210 f i libvcruntimed:frame.obj
 0001:000a9260       ??0exception@std@@QAE@QBDH@Z 004aa260 f i libvcruntimed:frame.obj
 0001:000a92a0       ??1bad_exception@std@@UAE@XZ 004aa2a0 f i libvcruntimed:frame.obj
 0001:000a92c0       ??1exception@std@@UAE@XZ   004aa2c0 f i libvcruntimed:frame.obj
 0001:000a92f0       ??8type_info@@QBE_NABV0@@Z 004aa2f0 f i libvcruntimed:frame.obj
 0001:000a9340       ??_Ebad_exception@std@@UAEPAXI@Z 004aa340 f i libvcruntimed:frame.obj
 0001:000a9340       ??_Gbad_exception@std@@UAEPAXI@Z 004aa340 f i libvcruntimed:frame.obj
 0001:000a9380       ??_Eexception@std@@UAEPAXI@Z 004aa380 f i libvcruntimed:frame.obj
 0001:000a9380       ??_Gexception@std@@UAEPAXI@Z 004aa380 f i libvcruntimed:frame.obj
 0001:000aa250       ?_CallMemberFunction0@@YGXQAX0@Z 004ab250 f i libvcruntimed:frame.obj
 0001:000aa260       ?_CallMemberFunction1@@YGXQAX00@Z 004ab260 f i libvcruntimed:frame.obj
 0001:000aa270       ?_CallMemberFunction2@@YGXQAX00H@Z 004ab270 f i libvcruntimed:frame.obj
 0001:000aa280       ?_ValidateExecute@@YA_NP6GHXZ@Z 004ab280 f i libvcruntimed:frame.obj
 0001:000aa2a0       ?_ValidateRead@@YA_NPBXI@Z 004ab2a0 f i libvcruntimed:frame.obj
 0001:000aa2c0       ?_ValidateWrite@@YA_NPAXI@Z 004ab2c0 f i libvcruntimed:frame.obj
 0001:000aa2e0       ?raw_name@type_info@@QBEPBDXZ 004ab2e0 f i libvcruntimed:frame.obj
 0001:000aa300       ?what@exception@std@@UBEPBDXZ 004ab300 f i libvcruntimed:frame.obj
 0001:000aa340       __SetWinRTOutOfMemoryExceptionCallback 004ab340 f   libvcruntimed:frame.obj
 0001:000aa350       ___AdjustPointer           004ab350 f   libvcruntimed:frame.obj
 0001:000aa3b0       ___BuildCatchObject        004ab3b0 f   libvcruntimed:frame.obj
 0001:000aa500       ___BuildCatchObjectHelper  004ab500 f   libvcruntimed:frame.obj
 0001:000aa8f0       ___CxxDetectRethrow        004ab8f0 f   libvcruntimed:frame.obj
 0001:000aa990       ___CxxExceptionFilter      004ab990 f   libvcruntimed:frame.obj
 0001:000aac00       ___CxxQueryExceptionSize   004abc00 f   libvcruntimed:frame.obj
 0001:000aac10       ___CxxRegisterExceptionObject 004abc10 f   libvcruntimed:frame.obj
 0001:000aad80       ___CxxUnregisterExceptionObject 004abd80 f   libvcruntimed:frame.obj
 0001:000aaf30       ___FrameUnwindFilter       004abf30 f   libvcruntimed:frame.obj
 0001:000aafc0       ___FrameUnwindToState      004abfc0 f   libvcruntimed:frame.obj
 0001:000ab1a0       ___GetPlatformExceptionInfo 004ac1a0 f   libvcruntimed:frame.obj
 0001:000ab240       ___InternalCxxFrameHandler 004ac240 f   libvcruntimed:frame.obj
 0001:000ab450       ___TypeMatch               004ac450 f   libvcruntimed:frame.obj
 0001:000ab560       ___current_exception       004ac560 f   libvcruntimed:frame.obj
 0001:000ab570       ___current_exception_context 004ac570 f   libvcruntimed:frame.obj
 0001:000ab580       ___processing_throw        004ac580 f   libvcruntimed:frame.obj
 0001:000ab590       ___std_terminate           004ac590 f   libvcruntimed:frame.obj
 0001:000ab5a0       ___uncaught_exception      004ac5a0 f   libvcruntimed:frame.obj
 0001:000ab5d0       ___uncaught_exceptions     004ac5d0 f   libvcruntimed:frame.obj
 0001:000ab5e0       __is_exception_typeof      004ac5e0 f   libvcruntimed:frame.obj
 0001:000ab720       __get_unexpected           004ac720 f   libvcruntimed:unexpected.obj
 0001:000ab740       _set_unexpected            004ac740 f   libvcruntimed:unexpected.obj
 0001:000ab780       _unexpected                004ac780 f   libvcruntimed:unexpected.obj
 0001:000ab7c0       ??$?RD@__crt_public_free_policy@@QBEXQBD@Z 004ac7c0 f i libvcruntimed:std_exception.obj
 0001:000ab7e0       ??0?$__crt_unique_heap_ptr@DU__crt_public_free_policy@@@@QAE@QAD@Z 004ac7e0 f i libvcruntimed:std_exception.obj
 0001:000ab800       ??1?$__crt_unique_heap_ptr@DU__crt_public_free_policy@@@@QAE@XZ 004ac800 f i libvcruntimed:std_exception.obj
 0001:000ab820       ??B?$__crt_unique_heap_ptr@DU__crt_public_free_policy@@@@QBE_NXZ 004ac820 f i libvcruntimed:std_exception.obj
 0001:000ab840       ?detach@?$__crt_unique_heap_ptr@DU__crt_public_free_policy@@@@QAEPADXZ 004ac840 f i libvcruntimed:std_exception.obj
 0001:000ab870       ?get@?$__crt_unique_heap_ptr@DU__crt_public_free_policy@@@@QBEPADXZ 004ac870 f i libvcruntimed:std_exception.obj
 0001:000ab890       ?is_valid@?$__crt_unique_heap_ptr@DU__crt_public_free_policy@@@@QBE_NXZ 004ac890 f i libvcruntimed:std_exception.obj
 0001:000ab8d0       ?release@?$__crt_unique_heap_ptr@DU__crt_public_free_policy@@@@QAEXXZ 004ac8d0 f i libvcruntimed:std_exception.obj
 0001:000ab900       ___std_exception_copy      004ac900 f   libvcruntimed:std_exception.obj
 0001:000aba20       ___std_exception_destroy   004aca20 f   libvcruntimed:std_exception.obj
 0001:000aba60       __CxxThrowException@8      004aca60 f   libvcruntimed:throw.obj
 0002:00000000       ___xc_a                    004af000     LIBCMTD:initializers.obj
 0002:00000208       ___xc_z                    004af208     LIBCMTD:initializers.obj
 0002:0000030c       ___xi_a                    004af30c     LIBCMTD:initializers.obj
 0002:00000618       ___acrt_stdio_initializer  004af618     libucrtd:stdio_initializer.obj
 0002:0000061c       ___acrt_multibyte_initializer 004af61c     libucrtd:multibyte_initializer.obj
 0002:00000620       ___acrt_timeset_initializer 004af620     libucrtd:timeset_initializer.obj
 0002:00000624       ___acrt_tran_sse2_initializer 004af624     libucrtd:sse2_initializer.obj
 0002:0000072c       ___xi_z                    004af72c     LIBCMTD:initializers.obj
 0002:00000830       ___xp_a                    004af830     LIBCMTD:initializers.obj
 0002:00000934       ___acrt_locale_terminator  004af934     libucrtd:locale_initializer.obj
 0002:00000938       ___dcrt_console_output_terminator 004af938     libucrtd:console_output_initializer.obj
 0002:00000a40       ___acrt_stdio_terminator   004afa40     libucrtd:stdio_initializer.obj
 0002:00000b44       ___xp_z                    004afb44     LIBCMTD:initializers.obj
 0002:00000c48       ___xt_a                    004afc48     LIBCMTD:initializers.obj
 0002:00000d4c       ___xt_z                    004afd4c     LIBCMTD:initializers.obj
 0002:00000e50       ??_C@_09CAGALGBH@g_funcs?4h?$AA@ 004afe50     extractfuncs.obj
 0002:00000e5c       ??_C@_0O@JIFNGALB@g_func_decs?4h?$AA@ 004afe5c     extractfuncs.obj
 0002:00000e6c       ??_C@_01LFCBOECM@?4?$AA@   004afe6c     extractfuncs.obj
 0002:00000e70       ??_C@_01KICIPPFI@?2?$AA@   004afe70     extractfuncs.obj
 0002:00000e74       ??_C@_0M@FCHOHLON@g_funcs?4tmp?$AA@ 004afe74     extractfuncs.obj
 0002:00000e84       ??_C@_0BF@LKJHJGEN@?$HL?$CC?$CFs?$CC?0?5?$CIbyte?5?$CK?$CJ?$CFs?$HN?0?6?$AA@ 004afe84     extractfuncs.obj
 0002:00000ea0       ??_C@_07CEMGAJGD@?$HL0?0?50?$HN?6?$AA@ 004afea0     extractfuncs.obj
 0002:00000eac       ??_C@_02JDPG@rb?$AA@       004afeac     extractfuncs.obj
 0002:00000eb0       ??_C@_0BB@EBILFMCD@debug?2g_save?4obj?$AA@ 004afeb0     extractfuncs.obj
 0002:00000ec4       ??_C@_0BB@NJFPCMFN@debug?2g_save?4sbr?$AA@ 004afec4     extractfuncs.obj
 0002:00000ed8       ??_C@_0BD@DCNELBJL@release?2g_save?4obj?$AA@ 004afed8     extractfuncs.obj
 0002:00000ef0       ??_C@_0BD@KKAAMBOF@release?2g_save?4sbr?$AA@ 004afef0     extractfuncs.obj
 0002:00000f08       ??_C@_0BA@MFJDKPFO@g_func_decs?4tmp?$AA@ 004aff08     extractfuncs.obj
 0002:00000f1c       ??_C@_0M@JEGJJKJ@extern?5?$CFs?$DL?6?$AA@ 004aff1c     extractfuncs.obj
 0002:00000f2c       ??_C@_0DB@CLKPMKME@Updated?5the?5function?5table?0?5reco@ 004aff2c     extractfuncs.obj
 0002:00000f68       ??_C@_09BGDGKKKF@GetBotAPI?$AA@ 004aff68     extractfuncs.obj
 0002:00000f74       ??_C@_04GHJNJNPO@main?$AA@ 004aff74     extractfuncs.obj
 0002:00000f7c       ??_C@_07HGGPAHEN@WinMain?$AA@ 004aff7c     extractfuncs.obj
 0002:00000f88       ??_C@_01CLKCMJKC@?5?$AA@   004aff88     extractfuncs.obj
 0002:00000f8c       ??_C@_04JKNALMKK@qmax?$AA@ 004aff8c     extractfuncs.obj
 0002:00000f94       ??_C@_04IIFLFIMF@qmin?$AA@ 004aff94     extractfuncs.obj
 0002:00000f9c       ??_C@_03FPNDANKK@F?$CFd?$AA@ 004aff9c     extractfuncs.obj
 0002:00000fa0       ??_C@_08GCOIMEJE@bg_lib?4c?$AA@ 004affa0     extractfuncs.obj
 0002:00000fac       ??_C@_0BB@CEADDNCK@error?5opening?5?$CFs?$AA@ 004affac     extractfuncs.obj
 0002:00000fc0       ??_C@_06GGHJAEBN@static?$AA@ 004affc0     extractfuncs.obj
 0002:00000fc8       ??_C@_0BF@DEOAGBJE@screwing?5up?5file?5?$CFs?6?$AA@ 004affc8     extractfuncs.obj
 0002:00000fe4       ??_C@_0BC@CBHACCGB@error?5opening?5?$CFs?6?$AA@ 004affe4     extractfuncs.obj
 0002:00000ffc       ??_C@_02GMLFBBN@wb?$AA@    004afffc     extractfuncs.obj
 0002:00001000       ??_C@_0BO@FAHNIHBH@USAGE?3?5screwup?5?$DMfile?5filter?$DO?6?$AA@ 004b0000     extractfuncs.obj
 0002:00001024       ??_C@_0BE@DPLJFOML@openlog?5?$DMfilename?$DO?6?$AA@ 004b0024     l_log.obj
 0002:0000103c       ??_C@_0BP@DENECPGL@log?5file?5?$CFs?5is?5already?5opened?6?$AA@ 004b003c     l_log.obj
 0002:00001064       ??_C@_0BM@MCGFOLNG@can?8t?5open?5the?5log?5file?5?$CFs?6?$AA@ 004b0064     l_log.obj
 0002:00001088       ??_C@_0BG@EDNKAKOJ@no?5log?5file?5to?5close?6?$AA@ 004b0088     l_log.obj
 0002:000010a4       ??_C@_0BJ@GMGFLNFJ@can?8t?5close?5log?5file?5?$CFs?6?$AA@ 004b00a4     l_log.obj
 0002:000010c4       ??_C@_02HEBPBKGD@if?$AA@   004b00c4     l_precomp.obj
 0002:000010c8       ??_C@_05LOELCHJN@ifdef?$AA@ 004b00c8     l_precomp.obj
 0002:000010d0       ??_C@_06ENONKJGC@ifndef?$AA@ 004b00d0     l_precomp.obj
 0002:000010d8       ??_C@_04GNFOIEOK@elif?$AA@ 004b00d8     l_precomp.obj
 0002:000010e0       ??_C@_04FHMCPBIP@else?$AA@ 004b00e0     l_precomp.obj
 0002:000010e8       ??_C@_05PAODFFED@endif?$AA@ 004b00e8     l_precomp.obj
 0002:000010f0       ??_C@_07FHOHOHLG@include?$AA@ 004b00f0     l_precomp.obj
 0002:000010fc       ??_C@_06EPMMJFDC@define?$AA@ 004b00fc     l_precomp.obj
 0002:00001104       ??_C@_05PKCPKOLM@undef?$AA@ 004b0104     l_precomp.obj
 0002:0000110c       ??_C@_04HJPCFDOP@line?$AA@ 004b010c     l_precomp.obj
 0002:00001114       ??_C@_05KKCIMGE@error?$AA@ 004b0114     l_precomp.obj
 0002:0000111c       ??_C@_06PGFLMPLC@pragma?$AA@ 004b011c     l_precomp.obj
 0002:00001124       ??_C@_04KGAGIKCD@eval?$AA@ 004b0124     l_precomp.obj
 0002:0000112c       ??_C@_09BLDJOION@evalfloat?$AA@ 004b012c     l_precomp.obj
 0002:00001138       ??_C@_07FNDAMPLK@evalint?$AA@ 004b0138     l_precomp.obj
 0002:00001144       ??_C@_0BF@BJHHBLMD@Q_strncpyz?3?5NULL?5src?$AA@ 004b0144     l_precomp.obj
 0002:00001160       ??_C@_0BJ@OLBOPICM@Q_strncpyz?3?5destsize?5?$DM?51?$AA@ 004b0160     l_precomp.obj
 0002:00001180       ??_C@_0BI@DBGANKKJ@?$CFs?5recursively?5included?$AA@ 004b0180     l_precomp.obj
 0002:0000119c       ??_C@_0BE@PFGKJJGH@out?5of?5token?5space?6?$AA@ 004b019c     l_precomp.obj
 0002:000011b4       ??_C@_0P@IFDFMCIL@missing?5?$CDendif?$AA@ 004b01b4     l_precomp.obj
 0002:000011c8       ??_C@_0BI@CAHOPMH@define?5?$CFs?5missing?5parms?$AA@ 004b01c8     l_precomp.obj
 0002:000011e4       ??_C@_0CE@LBMAFIHE@define?5with?5more?5than?5?$CFd?5paramet@ 004b01e4     l_precomp.obj
 0002:00001210       ??_C@_01ODHLEDKK@?$CI?$AA@ 004b0210     l_precomp.obj
 0002:00001214       ??_C@_0BO@CIDPMME@define?5?$CFs?5with?5too?5many?5parms?$AA@ 004b0214     l_precomp.obj
 0002:00001238       ??_C@_0BN@LKHLCMOF@define?5?$CFs?5has?5too?5many?5parms?$AA@ 004b0238     l_precomp.obj
 0002:0000125c       ??_C@_0BF@PPHAFKBJ@define?5?$CFs?5incomplete?$AA@ 004b025c     l_precomp.obj
 0002:00001278       ??_C@_01IHBHIGKO@?0?$AA@   004b0278     l_precomp.obj
 0002:0000127c       ??_C@_0BB@HBCKCGHH@too?5many?5comma?8s?$AA@ 004b027c     l_precomp.obj
 0002:00001290       ??_C@_01PKGAHCOL@?$CJ?$AA@ 004b0290     l_precomp.obj
 0002:00001294       ??_C@_0BF@GHJFDBAE@too?5few?5define?5parms?$AA@ 004b0294     l_precomp.obj
 0002:000012b0       ??_C@_01BJJEKLCA@?$CC?$AA@ 004b02b0     l_precomp.obj
 0002:000012b4       ??_C@_04CFMCHKOF@?$CF4d?3?$AA@ 004b02b4     l_precomp.obj
 0002:000012bc       ??_C@_03EEBNCBOD@?5?$CFs?$AA@ 004b02bc     l_precomp.obj
 0002:000012c0       ??_C@_01EEMJAFIK@?6?$AA@   004b02c0     l_precomp.obj
 0002:000012c4       ??_C@_08ICCNKGAE@__LINE__?$AA@ 004b02c4     l_precomp.obj
 0002:000012d0       ??_C@_08FMJNKKCK@__FILE__?$AA@ 004b02d0     l_precomp.obj
 0002:000012dc       ??_C@_08HHMBOFCN@__DATE__?$AA@ 004b02dc     l_precomp.obj
 0002:000012e8       ??_C@_08JBLMAOHN@__TIME__?$AA@ 004b02e8     l_precomp.obj
 0002:000012f4       ??_C@_02DPKJAMEF@?$CFd?$AA@ 004b02f4     l_precomp.obj
 0002:000012f8       ??_C@_0BH@FGJBFJMP@can?8t?5stringize?5tokens?$AA@ 004b02f8     l_precomp.obj
 0002:00001314       ??_C@_0CO@FIAHGJJO@stringizing?5operator?5without?5def@ 004b0314     l_precomp.obj
 0002:0000134c       ??_C@_0BH@DDBOIAKK@can?8t?5merge?5?$CFs?5with?5?$CFs?$AA@ 004b034c     l_precomp.obj
 0002:00001368       ??_C@_0BL@MDEODINB@?$CDinclude?5without?5file?5name?$AA@ 004b0368     l_precomp.obj
 0002:00001388       ??_C@_0BM@MKHAAFFA@?$CDinclude?5missing?5trailing?5?$DO?$AA@ 004b0388     l_precomp.obj
 0002:000013ac       ??_C@_0CH@BILCEFJF@?$CDinclude?5without?5file?5name?5betwe@ 004b03ac     l_precomp.obj
 0002:000013dc       ??_C@_0BC@ELACKGMC@file?5?$CFs?5not?5found?$AA@ 004b03dc     l_precomp.obj
 0002:000013f4       ??_C@_0BD@IELPOLI@undef?5without?5name?$AA@ 004b03f4     l_precomp.obj
 0002:0000140c       ??_C@_0BI@LCFFDKMI@expected?5name?0?5found?5?$CFs?$AA@ 004b040c     l_precomp.obj
 0002:00001428       ??_C@_0P@CHOGDKAE@can?8t?5undef?5?$CFs?$AA@ 004b0428     l_precomp.obj
 0002:0000143c       ??_C@_0BF@EDHDDJPD@?$CDdefine?5without?5name?$AA@ 004b043c     l_precomp.obj
 0002:00001458       ??_C@_0CG@PGNFJILG@expected?5name?5after?5?$CDdefine?0?5fou@ 004b0458     l_precomp.obj
 0002:00001488       ??_C@_0BC@PNHKPGCD@can?8t?5redefine?5?$CFs?$AA@ 004b0488     l_precomp.obj
 0002:000014a0       ??_C@_0BD@PFJBIMHG@redefinition?5of?5?$CFs?$AA@ 004b04a0     l_precomp.obj
 0002:000014b8       ??_C@_0BK@OHINAMCG@expected?5define?5parameter?$AA@ 004b04b8     l_precomp.obj
 0002:000014d8       ??_C@_0BJ@CDAIKNHD@invalid?5define?5parameter?$AA@ 004b04d8     l_precomp.obj
 0002:000014f8       ??_C@_0BP@HPJAJOKD@two?5the?5same?5define?5parameters?$AA@ 004b04f8     l_precomp.obj
 0002:00001520       ??_C@_0CB@JHGJFPBB@define?5parameters?5not?5terminated@ 004b0520     l_precomp.obj
 0002:00001548       ??_C@_0BG@PHCEBIF@define?5not?5terminated?$AA@ 004b0548     l_precomp.obj
 0002:00001564       ??_C@_0CF@FNOAJAKF@recursive?5define?5?$CIremoved?5recurs@ 004b0564     l_precomp.obj
 0002:00001590       ??_C@_02IEBMKJDF@?$CD?$CD?$AA@ 004b0590     l_precomp.obj
 0002:00001594       ??_C@_0BJ@FCHLMCOB@define?5with?5misplaced?5?$CD?$CD?$AA@ 004b0594     l_precomp.obj
 0002:000015b4       ??_C@_07GADFAJMP@?$CKextern?$AA@ 004b05b4     l_precomp.obj
 0002:000015c0       ??_C@_0BE@IMBJDEPK@?$CDifdef?5without?5name?$AA@ 004b05c0     l_precomp.obj
 0002:000015d8       ??_C@_0CF@NLPAJGLD@expected?5name?5after?5?$CDifdef?0?5foun@ 004b05d8     l_precomp.obj
 0002:00001604       ??_C@_0BA@NPOEMJCD@misplaced?5?$CDelse?$AA@ 004b0604     l_precomp.obj
 0002:00001618       ??_C@_0BC@LGACBGNI@?$CDelse?5after?5?$CDelse?$AA@ 004b0618     l_precomp.obj
 0002:00001630       ??_C@_0BB@CPALJMLI@misplaced?5?$CDendif?$AA@ 004b0630     l_precomp.obj
 0002:00001644       ??_C@_0BK@PKFCEECE@syntax?5error?5in?5?$CDif?1?$CDelif?$AA@ 004b0644     l_precomp.obj
 0002:00001664       ??_C@_07MJAJDDLG@defined?$AA@ 004b0664     l_precomp.obj
 0002:00001670       ??_C@_0BP@FCIAONAD@undefined?5name?5?$CFs?5in?5?$CDif?1?$CDelif?$AA@ 004b0670     l_precomp.obj
 0002:00001698       ??_C@_0CC@OHHFNCNF@defined?5without?5name?5in?5?$CDif?1?$CDeli@ 004b0698     l_precomp.obj
 0002:000016c0       ??_C@_0BB@IEFGIMAH@out?5value?5space?6?$AA@ 004b06c0     l_precomp.obj
 0002:000016d4       ??_C@_0BP@FNAPCIDI@defined?5without?5?$CJ?5in?5?$CDif?1?$CDelif?$AA@ 004b06d4     l_precomp.obj
 0002:000016fc       ??_C@_0CC@DNHHPAPI@misplaced?5minus?5sign?5in?5?$CDif?1?$CDeli@ 004b06fc     l_precomp.obj
 0002:00001724       ??_C@_0BJ@FLJMGJFD@too?5many?5?$CJ?5in?5?$CDif?1?$CDelsif?$AA@ 004b0724     l_precomp.obj
 0002:00001744       ??_C@_0DA@OGPMIBNF@illigal?5operator?5?$CFs?5on?5floating?5@ 004b0744     l_precomp.obj
 0002:00001780       ??_C@_0CA@FEDLLKBK@?$CB?5or?5?$HO?5after?5value?5in?5?$CDif?1?$CDelif?$AA@ 004b0780     l_precomp.obj
 0002:000017a8       ??_C@_0CI@GGOHGOKI@operator?5?$CFs?5after?5operator?5in?5?$CDi@ 004b07a8     l_precomp.obj
 0002:000017d8       ??_C@_0CB@PFAFLJI@invalid?5operator?5?$CFs?5in?5?$CDif?1?$CDelif@ 004b07d8     l_precomp.obj
 0002:00001800       ??_C@_0BE@HPOEFGCE@out?5operator?5space?6?$AA@ 004b0800     l_precomp.obj
 0002:00001818       ??_C@_0BI@ONNIJHPK@unknown?5?$CFs?5in?5?$CDif?1?$CDelif?$AA@ 004b0818     l_precomp.obj
 0002:00001834       ??_C@_0BP@NIBGGAAE@trailing?5operator?5in?5?$CDif?1?$CDelif?$AA@ 004b0834     l_precomp.obj
 0002:0000185c       ??_C@_0BI@MJMEGLFD@too?5many?5?$CI?5in?5?$CDif?1?$CDelif?$AA@ 004b085c     l_precomp.obj
 0002:00001878       ??_C@_0BL@BNPPJONA@mising?5values?5in?5?$CDif?1?$CDelif?$AA@ 004b0878     l_precomp.obj
 0002:00001898       ??_C@_0BJ@JILHHGIH@?3?5without?5?$DP?5in?5?$CDif?1?$CDelif?$AA@ 004b0898     l_precomp.obj
 0002:000018b8       ??_C@_0BH@CHBBNAOH@?$DP?5after?5?$DP?5in?5?$CDif?1?$CDelif?$AA@ 004b08b8     l_precomp.obj
 0002:000018d4       ??_C@_0BJ@GGKGDEMC@no?5value?5after?5?$CDif?1?$CDelif?$AA@ 004b08d4     l_precomp.obj
 0002:000018f4       ??_C@_0BP@GDBMMIIP@can?8t?5evaluate?5?$CFs?0?5not?5defined?$AA@ 004b08f4     l_precomp.obj
 0002:0000191c       ??_C@_0BC@JLPCHENH@can?8t?5evaluate?5?$CFs?$AA@ 004b091c     l_precomp.obj
 0002:00001934       ??_C@_0CH@DDGJDDBD@no?5leading?5?$CI?5after?5$evalint?1$eva@ 004b0934     l_precomp.obj
 0002:00001964       ??_C@_0BE@NEDCJHGJ@nothing?5to?5evaluate?$AA@ 004b0964     l_precomp.obj
 0002:0000197c       ??_C@_0BA@OFHILMEG@misplaced?5?$CDelif?$AA@ 004b097c     l_precomp.obj
 0002:00001990       ??_C@_0BO@PLIOJNDH@?$CDline?5directive?5not?5supported?$AA@ 004b0990     l_precomp.obj
 0002:000019b4       ??_C@_00CNPNBAHC@?$AA@     004b09b4     l_precomp.obj
 0002:000019b8       ??_C@_0BF@PIGJJAAO@?$CDerror?5directive?3?5?$CFs?$AA@ 004b09b8     l_precomp.obj
 0002:000019d4       ??_C@_0CA@KICMIAFO@?$CDpragma?5directive?5not?5supported?$AA@ 004b09d4     l_precomp.obj
 0002:000019fc       ??_C@_01JOAMLHOP@?9?$AA@   004b09fc     l_precomp.obj
 0002:00001a00       ??_C@_05NBLIHODN@?$CF1?42f?$AA@ 004b0a00     l_precomp.obj
 0002:00001a08       ??_C@_0BF@PIJDPBJF@found?5?$CD?5without?5name?$AA@ 004b0a08     l_precomp.obj
 0002:00001a24       ??_C@_0BH@CKLPJCIG@found?5?$CD?5at?5end?5of?5line?$AA@ 004b0a24     l_precomp.obj
 0002:00001a40       ??_C@_0CB@OMHFNJIL@unknown?5precompiler?5directive?5?$CFs@ 004b0a40     l_precomp.obj
 0002:00001a68       ??_C@_0BF@GDJCPOIP@found?5$?5without?5name?$AA@ 004b0a68     l_precomp.obj
 0002:00001a84       ??_C@_0BH@KCNOOMN@found?5$?5at?5end?5of?5line?$AA@ 004b0a84     l_precomp.obj
 0002:00001aa0       ??_C@_0BK@JEDPJDDM@couldn?8t?5find?5expected?5?$CFs?$AA@ 004b0aa0     l_precomp.obj
 0002:00001ac0       ??_C@_0BG@PHOMHNKB@expected?5?$CFs?0?5found?5?$CFs?$AA@ 004b0ac0     l_precomp.obj
 0002:00001adc       ??_C@_0BN@ECGBICMG@couldn?8t?5read?5expected?5token?$AA@ 004b0adc     l_precomp.obj
 0002:00001b00       ??_C@_06ICGJLFIM@string?$AA@ 004b0b00     l_precomp.obj
 0002:00001b08       ??_C@_07IDLNMGBF@literal?$AA@ 004b0b08     l_precomp.obj
 0002:00001b14       ??_C@_06EBGNBFIA@number?$AA@ 004b0b14     l_precomp.obj
 0002:00001b1c       ??_C@_04MEMAJGDJ@name?$AA@ 004b0b1c     l_precomp.obj
 0002:00001b24       ??_C@_0M@CCLOEHNM@punctuation?$AA@ 004b0b24     l_precomp.obj
 0002:00001b34       ??_C@_0BI@DOMAOFAI@expected?5a?5?$CFs?0?5found?5?$CFs?$AA@ 004b0b34     l_precomp.obj
 0002:00001b50       ??_C@_07EEKBCPDP@decimal?$AA@ 004b0b50     l_precomp.obj
 0002:00001b5c       ??_C@_03IJNDAFDK@hex?$AA@  004b0b5c     l_precomp.obj
 0002:00001b60       ??_C@_05NANFMDJ@octal?$AA@ 004b0b60     l_precomp.obj
 0002:00001b68       ??_C@_06FNFBAEBE@binary?$AA@ 004b0b68     l_precomp.obj
 0002:00001b70       ??_C@_05BOODDNDJ@?5long?$AA@ 004b0b70     l_precomp.obj
 0002:00001b78       ??_C@_09GBGALIGL@?5unsigned?$AA@ 004b0b78     l_precomp.obj
 0002:00001b84       ??_C@_06EOECJFKG@?5float?$AA@ 004b0b84     l_precomp.obj
 0002:00001b8c       ??_C@_08LLKPIPDF@?5integer?$AA@ 004b0b8c     l_precomp.obj
 0002:00001b98       ??_C@_08EFPOOAED@found?5?$CFs?$AA@ 004b0b98     l_precomp.obj
 0002:00001ba8       __real@0000000000000000    004b0ba8     l_precomp.obj
 0002:00001bb8       __real@3ff0000000000000    004b0bb8     l_precomp.obj
 0002:00001bd0       __xmm@80000000000000008000000000000000 004b0bd0     l_precomp.obj
 0002:00001be4       ??_C@_03IKFCCPFF@?$DO?$DO?$DN?$AA@ 004b0be4     l_script.obj
 0002:00001be8       ??_C@_03CDNPDDLA@?$DM?$DM?$DN?$AA@ 004b0be8     l_script.obj
 0002:00001bec       ??_C@_03KHICJKCI@?4?4?4?$AA@ 004b0bec     l_script.obj
 0002:00001bf0       ??_C@_02PPKAJPJL@?$CG?$CG?$AA@ 004b0bf0     l_script.obj
 0002:00001bf4       ??_C@_02NONPIBCD@?$HM?$HM?$AA@ 004b0bf4     l_script.obj
 0002:00001bf8       ??_C@_02EEKDKGMJ@?$DO?$DN?$AA@ 004b0bf8     l_script.obj
 0002:00001bfc       ??_C@_02EHCHHCKH@?$DM?$DN?$AA@ 004b0bfc     l_script.obj
 0002:00001c00       ??_C@_02EGOFBIJA@?$DN?$DN?$AA@ 004b0c00     l_script.obj
 0002:00001c04       ??_C@_02FDNJECIE@?$CB?$DN?$AA@ 004b0c04     l_script.obj
 0002:00001c08       ??_C@_02FPIMKNGF@?$CK?$DN?$AA@ 004b0c08     l_script.obj
 0002:00001c0c       ??_C@_02FJEHGPIO@?1?$DN?$AA@ 004b0c0c     l_script.obj
 0002:00001c10       ??_C@_02FENAOKFI@?$CF?$DN?$AA@ 004b0c10     l_script.obj
 0002:00001c14       ??_C@_02FOEOMHFC@?$CL?$DN?$AA@ 004b0c14     l_script.obj
 0002:00001c18       ??_C@_02FKMDLLOA@?9?$DN?$AA@ 004b0c18     l_script.obj
 0002:00001c1c       ??_C@_02ECNGHCIF@?$CL?$CL?$AA@ 004b0c1c     l_script.obj
 0002:00001c20       ??_C@_02BAABKJLB@?9?9?$AA@ 004b0c20     l_script.obj
 0002:00001c24       ??_C@_02FGJGFEAB@?$CG?$DN?$AA@ 004b0c24     l_script.obj
 0002:00001c28       ??_C@_02DHLNPPGH@?$HM?$DN?$AA@ 004b0c28     l_script.obj
 0002:00001c2c       ??_C@_02MHEGNOJ@?$FO?$DN?$AA@ 004b0c2c     l_script.obj
 0002:00001c30       ??_C@_02GPIOPFAK@?$DO?$DO?$AA@ 004b0c30     l_script.obj
 0002:00001c34       ??_C@_02FODMEDOG@?$DM?$DM?$AA@ 004b0c34     l_script.obj
 0002:00001c38       ??_C@_02HBOOOICD@?9?$DO?$AA@ 004b0c38     l_script.obj
 0002:00001c3c       ??_C@_02MOLJINC@?3?3?$AA@  004b0c3c     l_script.obj
 0002:00001c40       ??_C@_02FNAGIBCP@?4?$CK?$AA@ 004b0c40     l_script.obj
 0002:00001c44       ??_C@_01NBENCBCI@?$CK?$AA@ 004b0c44     l_script.obj
 0002:00001c48       ??_C@_01KMDKNFGN@?1?$AA@   004b0c48     l_script.obj
 0002:00001c4c       ??_C@_01FGNFDNOH@?$CF?$AA@ 004b0c4c     l_script.obj
 0002:00001c50       ??_C@_01MIFGBAGJ@?$CL?$AA@ 004b0c50     l_script.obj
 0002:00001c54       ??_C@_01NEMOKFLO@?$DN?$AA@ 004b0c54     l_script.obj
 0002:00001c58       ??_C@_01HNPIGOCE@?$CG?$AA@ 004b0c58     l_script.obj
 0002:00001c5c       ??_C@_01DNKMNLPK@?$HM?$AA@ 004b0c5c     l_script.obj
 0002:00001c60       ??_C@_01JKBOJNNK@?$FO?$AA@ 004b0c60     l_script.obj
 0002:00001c64       ??_C@_01PJKLJHI@?$HO?$AA@  004b0c64     l_script.obj
 0002:00001c68       ??_C@_01DCLJPIOD@?$CB?$AA@ 004b0c68     l_script.obj
 0002:00001c6c       ??_C@_01PPODPGHN@?$DO?$AA@ 004b0c6c     l_script.obj
 0002:00001c70       ??_C@_01MNNFJEPP@?$DM?$AA@ 004b0c70     l_script.obj
 0002:00001c74       ??_C@_01ICJEACDI@?$DL?$AA@ 004b0c74     l_script.obj
 0002:00001c78       ??_C@_01JLIPDDHJ@?3?$AA@   004b0c78     l_script.obj
 0002:00001c7c       ??_C@_01OGPIMHDM@?$DP?$AA@ 004b0c7c     l_script.obj
 0002:00001c80       ??_C@_01HCONENDN@?$HL?$AA@ 004b0c80     l_script.obj
 0002:00001c84       ??_C@_01CELHOKLL@?$HN?$AA@ 004b0c84     l_script.obj
 0002:00001c88       ??_C@_01OHGJGJJP@?$FL?$AA@ 004b0c88     l_script.obj
 0002:00001c8c       ??_C@_01LBDDMOBJ@?$FN?$AA@ 004b0c8c     l_script.obj
 0002:00001c90       ??_C@_01IPJKGB@?$CD?$AA@   004b0c90     l_script.obj
 0002:00001c94       ??_C@_01EPMOAMKG@$?$AA@    004b0c94     l_script.obj
 0002:00001c98       ??_C@_0BD@CDGAFDMK@unkown?5punctuation?$AA@ 004b0c98     l_script.obj
 0002:00001cb0       ??_C@_0CE@DDEEFDJP@too?5large?5value?5in?5escape?5charac@ 004b0cb0     l_script.obj
 0002:00001cdc       ??_C@_0BE@LNBHEDIG@unknown?5escape?5char?$AA@ 004b0cdc     l_script.obj
 0002:00001cf4       ??_C@_0CC@MBLDNBAM@string?5longer?5than?5MAX_TOKEN?5?$DN?5?$CF@ 004b0cf4     l_script.obj
 0002:00001d1c       ??_C@_0BH@PEPCDKK@missing?5trailing?5quote?$AA@ 004b0d1c     l_script.obj
 0002:00001d38       ??_C@_0BJ@FPJNGGBK@newline?5inside?5string?5?$CFs?$AA@ 004b0d38     l_script.obj
 0002:00001d58       ??_C@_0CA@MNDCIFOG@name?5longer?5than?5MAX_TOKEN?5?$DN?5?$CFd?$AA@ 004b0d58     l_script.obj
 0002:00001d80       ??_C@_0CO@IEAAEMOC@hexadecimal?5number?5longer?5than?5M@ 004b0d80     l_script.obj
 0002:00001db8       ??_C@_0CJ@GOJFKF@binary?5number?5longer?5than?5MAX_TO@ 004b0db8     l_script.obj
 0002:00001dec       ??_C@_0CC@HHKGPIHJ@number?5longer?5than?5MAX_TOKEN?5?$DN?5?$CF@ 004b0dec     l_script.obj
 0002:00001e14       ??_C@_0BO@LNDMFPAB@end?5of?5file?5before?5trailing?5?8?$AA@ 004b0e14     l_script.obj
 0002:00001e38       ??_C@_0CI@KHNHEENA@too?5many?5characters?5in?5literal?0?5@ 004b0e38     l_script.obj
 0002:00001e68       ??_C@_0CL@IOHHDOB@primitive?5token?5longer?5than?5MAX_@ 004b0e68     l_script.obj
 0002:00001e9c       ??_C@_0BB@HHMOOKCN@can?8t?5read?5token?$AA@ 004b0e9c     l_script.obj
 0002:00001eb0       ??_C@_0BP@BHDDOFIL@BUG?3?5wrong?5punctuation?5subtype?$AA@ 004b0eb0     l_script.obj
 0002:00001ed8       ??_C@_0CA@NFDKBKI@expected?5float?5value?0?5found?5?$CFs?6?$AA@ 004b0ed8     l_script.obj
 0002:00001f00       ??_C@_0CC@CKEDEGB@expected?5integer?5value?0?5found?5?$CFs@ 004b0f00     l_script.obj
 0002:00001f28       __real@4024000000000000    004b0f28     l_script.obj
 0002:00001f38       __real@bff0000000000000    004b0f38     l_script.obj
 0002:00001f50       __xmm@41f00000000000000000000000000000 004b0f50     l_script.obj
 0002:00002018       ??_C@_0DF@NOINFFIM@f?3?2dd?2vctools?2crt?2vcruntime?2src?2@ 004b1018     libvcruntimed:std_type_info.obj
 0002:00002058       ??_C@_0DN@JAECLCAP@f?3?2dd?2vctools?2crt?2vcruntime?2src?2@ 004b1058     libvcruntimed:per_thread_data.obj
 0002:000020b8       ??_C@_1BC@DNHGCMLG@?$AAa?$AAd?$AAv?$AAa?$AAp?$AAi?$AA3?$AA2?$AA?$AA@ 004b10b8     libvcruntimed:winapi_downlevel.obj
 0002:000020d0       ??_C@_1DM@KHCHBNEB@?$AAa?$AAp?$AAi?$AA?9?$AAm?$AAs?$AA?9?$AAw?$AAi?$AAn?$AA?9?$AAc?$AAo?$AAr?$AAe?$AA?9?$AAf?$AAi?$AAb?$AAe?$AAr?$AAs?$AA?9?$AAl?$AA1?$AA?9?$AA1?$AA?9?$AA1?$AA?$AA@ 004b10d0     libvcruntimed:winapi_downlevel.obj
 0002:00002118       ??_C@_1DK@LPPGFMPP@?$AAa?$AAp?$AAi?$AA?9?$AAm?$AAs?$AA?9?$AAw?$AAi?$AAn?$AA?9?$AAc?$AAo?$AAr?$AAe?$AA?9?$AAs?$AAy?$AAn?$AAc?$AAh?$AA?9?$AAl?$AA1?$AA?9?$AA2?$AA?9?$AA0?$AA?$AA@ 004b1118     libvcruntimed:winapi_downlevel.obj
 0002:00002160       ??_C@_1BC@GDMECMAK@?$AAk?$AAe?$AAr?$AAn?$AAe?$AAl?$AA3?$AA2?$AA?$AA@ 004b1160     libvcruntimed:winapi_downlevel.obj
 0002:00002178       ??_C@_17CNPHIMPH@?$AA?$CF?$AAl?$AAs?$AA?$AA@ 004b1178     libvcruntimed:winapi_downlevel.obj
 0002:00002188       ??_C@_1EM@LBIFGLGH@?$AAc?$AAa?$AAc?$AAh?$AAe?$AAd?$AA_?$AAh?$AAa?$AAn?$AAd?$AAl?$AAe?$AA?5?$AA?$DN?$AA?$DN?$AA?5?$AAI?$AAN?$AAV?$AAA?$AAL?$AAI?$AAD?$AA_?$AAH?$AAA?$AAN?$AAD?$AAL?$AAE?$AA_@ 004b1188     libvcruntimed:winapi_downlevel.obj
 0002:000021e8       ??_C@_1HM@FGPKDEPG@?$AAf?$AA?3?$AA?2?$AAd?$AAd?$AA?2?$AAv?$AAc?$AAt?$AAo?$AAo?$AAl?$AAs?$AA?2?$AAc?$AAr?$AAt?$AA?2?$AAv?$AAc?$AAr?$AAu?$AAn?$AAt?$AAi?$AAm?$AAe?$AA?2?$AAs?$AAr?$AAc?$AA?2@ 004b11e8     libvcruntimed:winapi_downlevel.obj
 0002:0000227c       ??_C@_1DI@MAHEDLDB@?$AAc?$AAa?$AAc?$AAh?$AAe?$AAd?$AA_?$AAh?$AAa?$AAn?$AAd?$AAl?$AAe?$AA?5?$AA?$DN?$AA?$DN?$AA?5?$AAn?$AAe?$AAw?$AA_?$AAh?$AAa?$AAn?$AAd?$AAl?$AAe?$AA?$AA@ 004b127c     libvcruntimed:winapi_downlevel.obj
 0002:000022c0       ??_C@_1FC@IBNCGNKL@?$AAc?$AAa?$AAc?$AAh?$AAe?$AAd?$AA_?$AAf?$AAp?$AA?5?$AA?$DN?$AA?$DN?$AA?5?$AAi?$AAn?$AAv?$AAa?$AAl?$AAi?$AAd?$AA_?$AAf?$AAu?$AAn?$AAc?$AAt?$AAi?$AAo?$AAn?$AA_?$AAs?$AAe@ 004b12c0     libvcruntimed:winapi_downlevel.obj
 0002:00002324       ??_C@_1CI@GDJBAGLP@?$AAc?$AAa?$AAc?$AAh?$AAe?$AAd?$AA_?$AAf?$AAp?$AA?5?$AA?$DN?$AA?$DN?$AA?5?$AAn?$AAe?$AAw?$AA_?$AAf?$AAp?$AA?$AA@ 004b1324     libvcruntimed:winapi_downlevel.obj
 0002:00002358       ??_C@_0O@BAMBGLIE@EventRegister?$AA@ 004b1358     libvcruntimed:winapi_downlevel.obj
 0002:0000236c       ??_C@_0BE@BJEEGHGK@EventSetInformation?$AA@ 004b136c     libvcruntimed:winapi_downlevel.obj
 0002:00002388       ??_C@_0BA@FAKLIPIC@EventUnregister?$AA@ 004b1388     libvcruntimed:winapi_downlevel.obj
 0002:000023a0       ??_C@_0BD@PKLHJPHD@EventWriteTransfer?$AA@ 004b13a0     libvcruntimed:winapi_downlevel.obj
 0002:000023c4       ??_C@_08KNHFBNJ@FlsAlloc?$AA@ 004b13c4     libvcruntimed:winapi_downlevel.obj
 0002:000023dc       ??_C@_07PEJMOBNF@FlsFree?$AA@ 004b13dc     libvcruntimed:winapi_downlevel.obj
 0002:000023f4       ??_C@_0M@GDNOONDI@FlsGetValue?$AA@ 004b13f4     libvcruntimed:winapi_downlevel.obj
 0002:00002410       ??_C@_0M@JCPCPOEF@FlsSetValue?$AA@ 004b1410     libvcruntimed:winapi_downlevel.obj
 0002:0000242c       ??_C@_0BM@HCFOFFN@InitializeCriticalSectionEx?$AA@ 004b142c     libvcruntimed:winapi_downlevel.obj
 0002:00002630       ??_C@_08EHJDFFNH@__based?$CI?$AA@ 004b1630     libvcruntimed:undname.obj
 0002:0000263c       ??_C@_07KOLFKCDI@__cdecl?$AA@ 004b163c     libvcruntimed:undname.obj
 0002:00002648       ??_C@_08GHMPAG@__pascal?$AA@ 004b1648     libvcruntimed:undname.obj
 0002:00002654       ??_C@_09IFJBGAPI@__stdcall?$AA@ 004b1654     libvcruntimed:undname.obj
 0002:00002660       ??_C@_0L@NPHFGOKO@__thiscall?$AA@ 004b1660     libvcruntimed:undname.obj
 0002:00002670       ??_C@_0L@JMKHOMEK@__fastcall?$AA@ 004b1670     libvcruntimed:undname.obj
 0002:00002680       ??_C@_0N@BCKKPABJ@__vectorcall?$AA@ 004b1680     libvcruntimed:undname.obj
 0002:00002690       ??_C@_09HIJEGCPM@__clrcall?$AA@ 004b1690     libvcruntimed:undname.obj
 0002:0000269c       ??_C@_06GHPCKEAG@__eabi?$AA@ 004b169c     libvcruntimed:undname.obj
 0002:000026a4       ??_C@_07JOMMBBKO@__ptr64?$AA@ 004b16a4     libvcruntimed:undname.obj
 0002:000026b0       ??_C@_0L@PILCLIHE@__restrict?$AA@ 004b16b0     libvcruntimed:undname.obj
 0002:000026c0       ??_C@_0M@GFIIJFMG@__unaligned?$AA@ 004b16c0     libvcruntimed:undname.obj
 0002:000026d0       ??_C@_09DHDLOLLB@restrict?$CI?$AA@ 004b16d0     libvcruntimed:undname.obj
 0002:000026dc       ??_C@_04NIHEBCM@?5new?$AA@ 004b16dc     libvcruntimed:undname.obj
 0002:000026e4       ??_C@_07FPCDHGMM@?5delete?$AA@ 004b16e4     libvcruntimed:undname.obj
 0002:000026f0       ??_C@_02GPECMEKF@?$FL?$FN?$AA@ 004b16f0     libvcruntimed:undname.obj
 0002:000026f4       ??_C@_08LHJFAFGD@operator?$AA@ 004b16f4     libvcruntimed:undname.obj
 0002:00002700       ??_C@_03MNHNFDLC@?9?$DO?$CK?$AA@ 004b1700     libvcruntimed:undname.obj
 0002:00002704       ??_C@_02HCKGKOFO@?$CI?$CJ?$AA@ 004b1704     libvcruntimed:undname.obj
 0002:00002708       ??_C@_09IFPLHPGF@?$GAvftable?8?$AA@ 004b1708     libvcruntimed:undname.obj
 0002:00002714       ??_C@_09BLBHBJP@?$GAvbtable?8?$AA@ 004b1714     libvcruntimed:undname.obj
 0002:00002720       ??_C@_07FEEIOKP@?$GAvcall?8?$AA@ 004b1720     libvcruntimed:undname.obj
 0002:0000272c       ??_C@_08LLFFHHDJ@?$GAtypeof?8?$AA@ 004b172c     libvcruntimed:undname.obj
 0002:00002738       ??_C@_0BF@KDPPACIK@?$GAlocal?5static?5guard?8?$AA@ 004b1738     libvcruntimed:undname.obj
 0002:00002754       ??_C@_08OBABFOLI@?$GAstring?8?$AA@ 004b1754     libvcruntimed:undname.obj
 0002:00002760       ??_C@_0BD@JDLKDPAB@?$GAvbase?5destructor?8?$AA@ 004b1760     libvcruntimed:undname.obj
 0002:00002778       ??_C@_0BN@DEGPLNFK@?$GAvector?5deleting?5destructor?8?$AA@ 004b1778     libvcruntimed:undname.obj
 0002:0000279c       ??_C@_0BO@OBMKPJIG@?$GAdefault?5constructor?5closure?8?$AA@ 004b179c     libvcruntimed:undname.obj
 0002:000027c0       ??_C@_0BN@IMDCHIKM@?$GAscalar?5deleting?5destructor?8?$AA@ 004b17c0     libvcruntimed:undname.obj
 0002:000027e4       ??_C@_0BO@PFGOCPJJ@?$GAvector?5constructor?5iterator?8?$AA@ 004b17e4     libvcruntimed:undname.obj
 0002:00002808       ??_C@_0BN@LFPFMEDL@?$GAvector?5destructor?5iterator?8?$AA@ 004b1808     libvcruntimed:undname.obj
 0002:0000282c       ??_C@_0CE@IKBNEHA@?$GAvector?5vbase?5constructor?5iterat@ 004b182c     libvcruntimed:undname.obj
 0002:00002858       ??_C@_0BL@NILFHHPC@?$GAvirtual?5displacement?5map?8?$AA@ 004b1858     libvcruntimed:undname.obj
 0002:00002878       ??_C@_0CB@JONCMFFK@?$GAeh?5vector?5constructor?5iterator?8@ 004b1878     libvcruntimed:undname.obj
 0002:000028a0       ??_C@_0CA@GCEOPDGL@?$GAeh?5vector?5destructor?5iterator?8?$AA@ 004b18a0     libvcruntimed:undname.obj
 0002:000028c8       ??_C@_0CH@OOJPLCPH@?$GAeh?5vector?5vbase?5constructor?5ite@ 004b18c8     libvcruntimed:undname.obj
 0002:000028f8       ??_C@_0BL@LLKPOHJI@?$GAcopy?5constructor?5closure?8?$AA@ 004b18f8     libvcruntimed:undname.obj
 0002:00002918       ??_C@_0BA@KBCDOMBN@?$GAudt?5returning?8?$AA@ 004b1918     libvcruntimed:undname.obj
 0002:0000292c       ??_C@_03KLGMFNMG@?$GAEH?$AA@ 004b192c     libvcruntimed:undname.obj
 0002:00002930       ??_C@_05KHLCHHI@?$GARTTI?$AA@ 004b1930     libvcruntimed:undname.obj
 0002:00002938       ??_C@_0BA@KKLDJDLB@?$GAlocal?5vftable?8?$AA@ 004b1938     libvcruntimed:undname.obj
 0002:0000294c       ??_C@_0CE@IIHCMGGL@?$GAlocal?5vftable?5constructor?5closu@ 004b194c     libvcruntimed:undname.obj
 0002:00002978       ??_C@_06FHBGPFGH@?5new?$FL?$FN?$AA@ 004b1978     libvcruntimed:undname.obj
 0002:00002980       ??_C@_09LBNFPBCA@?5delete?$FL?$FN?$AA@ 004b1980     libvcruntimed:undname.obj
 0002:0000298c       ??_C@_0P@HJKNJFNN@?$GAomni?5callsig?8?$AA@ 004b198c     libvcruntimed:undname.obj
 0002:000029a0       ??_C@_0BL@CNOONJFP@?$GAplacement?5delete?5closure?8?$AA@ 004b19a0     libvcruntimed:undname.obj
 0002:000029c0       ??_C@_0BN@CKNJLHMB@?$GAplacement?5delete?$FL?$FN?5closure?8?$AA@ 004b19c0     libvcruntimed:undname.obj
 0002:000029e4       ??_C@_0CG@CFDHKGGD@?$GAmanaged?5vector?5constructor?5iter@ 004b19e4     libvcruntimed:undname.obj
 0002:00002a14       ??_C@_0CF@IMGKMJNO@?$GAmanaged?5vector?5destructor?5itera@ 004b1a14     libvcruntimed:undname.obj
 0002:00002a40       ??_C@_0CG@HLDDJMAG@?$GAeh?5vector?5copy?5constructor?5iter@ 004b1a40     libvcruntimed:undname.obj
 0002:00002a70       ??_C@_0CM@FCBBDIGB@?$GAeh?5vector?5vbase?5copy?5constructo@ 004b1a70     libvcruntimed:undname.obj
 0002:00002aa4       ??_C@_0BL@CLIPGLGB@?$GAdynamic?5initializer?5for?5?8?$AA@ 004b1aa4     libvcruntimed:undname.obj
 0002:00002ac4       ??_C@_0CB@PDBIFEP@?$GAdynamic?5atexit?5destructor?5for?5?8@ 004b1ac4     libvcruntimed:undname.obj
 0002:00002aec       ??_C@_0CD@CGAJBKEJ@?$GAvector?5copy?5constructor?5iterato@ 004b1aec     libvcruntimed:undname.obj
 0002:00002b18       ??_C@_0CJ@GJELGAMM@?$GAvector?5vbase?5copy?5constructor?5i@ 004b1b18     libvcruntimed:undname.obj
 0002:00002b4c       ??_C@_0CL@FGIJHLCE@?$GAmanaged?5vector?5copy?5constructor@ 004b1b4c     libvcruntimed:undname.obj
 0002:00002b80       ??_C@_0BM@PMGGMLDN@?$GAlocal?5static?5thread?5guard?8?$AA@ 004b1b80     libvcruntimed:undname.obj
 0002:00002ba4       ??_C@_0N@BDNMDMOL@operator?5?$CC?$CC?5?$AA@ 004b1ba4     libvcruntimed:undname.obj
 0002:00002bb4       ??_C@_0BC@DAFEJGAK@?5Type?5Descriptor?8?$AA@ 004b1bb4     libvcruntimed:undname.obj
 0002:00002bcc       ??_C@_0BM@LDKODKLH@?5Base?5Class?5Descriptor?5at?5?$CI?$AA@ 004b1bcc     libvcruntimed:undname.obj
 0002:00002bf0       ??_C@_0BD@LGICGFMM@?5Base?5Class?5Array?8?$AA@ 004b1bf0     libvcruntimed:undname.obj
 0002:00002c08       ??_C@_0BN@MECKDCOJ@?5Class?5Hierarchy?5Descriptor?8?$AA@ 004b1c08     libvcruntimed:undname.obj
 0002:00002c2c       ??_C@_0BK@CFCOFLF@?5Complete?5Object?5Locator?8?$AA@ 004b1c2c     libvcruntimed:undname.obj
 0002:00002c4c       ??_C@_04HEJADOOB@CV?3?5?$AA@ 004b1c4c     libvcruntimed:undname.obj
 0002:00002c54       ??_C@_0BE@JAEOCHPE@template?9parameter?9?$AA@ 004b1c54     libvcruntimed:undname.obj
 0002:00002c6c       ??_C@_0O@KHGCOMHP@generic?9type?9?$AA@ 004b1c6c     libvcruntimed:undname.obj
 0002:00002c7c       ??_C@_01NLNLIGKH@?$GA?$AA@ 004b1c7c     libvcruntimed:undname.obj
 0002:00002c80       ??_C@_01GEODFPGF@?8?$AA@   004b1c80     libvcruntimed:undname.obj
 0002:00002c84       ??_C@_0BG@JNJLAMPM@?$GAanonymous?5namespace?8?$AA@ 004b1c84     libvcruntimed:undname.obj
 0002:00002ca0       ??_C@_02OHHJMEON@?8?8?$AA@ 004b1ca0     libvcruntimed:undname.obj
 0002:00002ca4       ??_C@_0BN@IBLMMFAP@?$GAnon?9type?9template?9parameter?$AA@ 004b1ca4     libvcruntimed:undname.obj
 0002:00002cc8       ??_C@_04GKJNKENE@void?$AA@ 004b1cc8     libvcruntimed:undname.obj
 0002:00002cd0       ??_C@_0BE@EODMJLIF@?$GAtemplate?9parameter?$AA@ 004b1cd0     libvcruntimed:undname.obj
 0002:00002ce8       ??_C@_04HIBGFPH@NULL?$AA@  004b1ce8     libvcruntimed:undname.obj
 0002:00002cf0       ??_C@_0BK@IHCCFNEL@?$GAtemplate?9type?9parameter?9?$AA@ 004b1cf0     libvcruntimed:undname.obj
 0002:00002d10       ??_C@_0BK@OFCNNNKO@?$GAgeneric?9class?9parameter?9?$AA@ 004b1d10     libvcruntimed:undname.obj
 0002:00002d30       ??_C@_0BL@NGJBLFIL@?$GAgeneric?9method?9parameter?9?$AA@ 004b1d30     libvcruntimed:undname.obj
 0002:00002d50       ??_C@_03OPGICMGF@?$HN?8?5?$AA@ 004b1d50     libvcruntimed:undname.obj
 0002:00002d54       ??_C@_02IGFCGPIL@?$HN?8?$AA@ 004b1d54     libvcruntimed:undname.obj
 0002:00002d58       ??_C@_0N@CBHHHENL@?$GAvtordispex?$HL?$AA@ 004b1d58     libvcruntimed:undname.obj
 0002:00002d68       ??_C@_0L@GHPFDFH@?$GAvtordisp?$HL?$AA@ 004b1d68     libvcruntimed:undname.obj
 0002:00002d78       ??_C@_0L@HNGCOGAE@?$GAadjustor?$HL?$AA@ 004b1d78     libvcruntimed:undname.obj
 0002:00002d88       ??_C@_0CB@KJDOOODE@?$GAlocal?5static?5destructor?5helper?8@ 004b1d88     libvcruntimed:undname.obj
 0002:00002db0       ??_C@_0DB@ILEFOCIJ@?$GAtemplate?5static?5data?5member?5con@ 004b1db0     libvcruntimed:undname.obj
 0002:00002dec       ??_C@_0DA@HGFJFBBE@?$GAtemplate?5static?5data?5member?5des@ 004b1dec     libvcruntimed:undname.obj
 0002:00002e28       ??_C@_07PGOEDBHP@static?5?$AA@ 004b1e28     libvcruntimed:undname.obj
 0002:00002e34       ??_C@_08NIEOINHE@virtual?5?$AA@ 004b1e34     libvcruntimed:undname.obj
 0002:00002e40       ??_C@_09LAPHOOG@private?3?5?$AA@ 004b1e40     libvcruntimed:undname.obj
 0002:00002e4c       ??_C@_0M@GAIFPFIP@protected?3?5?$AA@ 004b1e4c     libvcruntimed:undname.obj
 0002:00002e5c       ??_C@_08GPDDCMKI@public?3?5?$AA@ 004b1e5c     libvcruntimed:undname.obj
 0002:00002e68       ??_C@_08KJLFOPNE@?$FLthunk?$FN?3?$AA@ 004b1e68     libvcruntimed:undname.obj
 0002:00002e74       ??_C@_0M@DHNBOJMP@extern?5?$CCC?$CC?5?$AA@ 004b1e74     libvcruntimed:undname.obj
 0002:00002e84       ??_C@_02KCKGHPCA@?$CJ?5?$AA@ 004b1e84     libvcruntimed:undname.obj
 0002:00002e88       ??_C@_05CIHEBHNO@char?5?$AA@ 004b1e88     libvcruntimed:undname.obj
 0002:00002e90       ??_C@_06EHJMALKF@short?5?$AA@ 004b1e90     libvcruntimed:undname.obj
 0002:00002e98       ??_C@_04LAHKHJMA@int?5?$AA@ 004b1e98     libvcruntimed:undname.obj
 0002:00002ea0       ??_C@_05CJIMAING@long?5?$AA@ 004b1ea0     libvcruntimed:undname.obj
 0002:00002ea8       ??_C@_09EBBEKKIH@unsigned?5?$AA@ 004b1ea8     libvcruntimed:undname.obj
 0002:00002eb4       ??_C@_05BEFAKPML@void?5?$AA@ 004b1eb4     libvcruntimed:undname.obj
 0002:00002ebc       ??_C@_08PABEKFH@volatile?$AA@ 004b1ebc     libvcruntimed:undname.obj
 0002:00002ec8       ??_C@_0BA@LKIJLKPP@std?3?3nullptr_t?5?$AA@ 004b1ec8     libvcruntimed:undname.obj
 0002:00002edc       ??_C@_0P@GCOCNKDM@std?3?3nullptr_t?$AA@ 004b1edc     libvcruntimed:undname.obj
 0002:00002ef0       ??_C@_0L@EGPHHEKN@?$DMellipsis?$DO?$AA@ 004b1ef0     libvcruntimed:undname.obj
 0002:00002f00       ??_C@_04EENFHACM@?0?4?4?4?$AA@ 004b1f00     libvcruntimed:undname.obj
 0002:00002f08       ??_C@_0M@ELJOJFFH@?0?$DMellipsis?$DO?$AA@ 004b1f08     libvcruntimed:undname.obj
 0002:00002f18       ??_C@_07HDJPLPEK@?5throw?$CI?$AA@ 004b1f18     libvcruntimed:undname.obj
 0002:00002f24       ??_C@_03PBJBJNON@cpu?$AA@  004b1f24     libvcruntimed:undname.obj
 0002:00002f28       ??_C@_03DCBBJBAA@amp?$AA@  004b1f28     libvcruntimed:undname.obj
 0002:00002f2c       ??_C@_02KEGNLNML@?0?5?$AA@ 004b1f2c     libvcruntimed:undname.obj
 0002:00002f30       ??_C@_04ENMBGAPA@char?$AA@ 004b1f30     libvcruntimed:undname.obj
 0002:00002f38       ??_C@_05BFKKPKCG@short?$AA@ 004b1f38     libvcruntimed:undname.obj
 0002:00002f40       ??_C@_03JBIPMCLC@int?$AA@  004b1f40     libvcruntimed:undname.obj
 0002:00002f44       ??_C@_04GOKPGOLB@long?$AA@ 004b1f44     libvcruntimed:undname.obj
 0002:00002f4c       ??_C@_05KNFBNCOH@float?$AA@ 004b1f4c     libvcruntimed:undname.obj
 0002:00002f54       ??_C@_06BNJCAIGJ@double?$AA@ 004b1f54     libvcruntimed:undname.obj
 0002:00002f5c       ??_C@_04DDKJGDCM@bool?$AA@ 004b1f5c     libvcruntimed:undname.obj
 0002:00002f64       ??_C@_06EBGKOKIG@__int8?$AA@ 004b1f64     libvcruntimed:undname.obj
 0002:00002f6c       ??_C@_07ICFHOGAF@__int16?$AA@ 004b1f6c     libvcruntimed:undname.obj
 0002:00002f78       ??_C@_07OFLPPHGP@__int32?$AA@ 004b1f78     libvcruntimed:undname.obj
 0002:00002f84       ??_C@_07LFCOJCAC@__int64?$AA@ 004b1f84     libvcruntimed:undname.obj
 0002:00002f90       ??_C@_08GAHOLHEO@__int128?$AA@ 004b1f90     libvcruntimed:undname.obj
 0002:00002f9c       ??_C@_09EEKGDCPH@?$DMunknown?$DO?$AA@ 004b1f9c     libvcruntimed:undname.obj
 0002:00002fa8       ??_C@_08HBIPOFJB@char16_t?$AA@ 004b1fa8     libvcruntimed:undname.obj
 0002:00002fb4       ??_C@_08IECNCBKG@char32_t?$AA@ 004b1fb4     libvcruntimed:undname.obj
 0002:00002fc0       ??_C@_07CLGGIAMF@wchar_t?$AA@ 004b1fc0     libvcruntimed:undname.obj
 0002:00002fcc       ??_C@_06GCICPBLB@__w64?5?$AA@ 004b1fcc     libvcruntimed:undname.obj
 0002:00002fd4       ??_C@_07NFANNNEC@UNKNOWN?$AA@ 004b1fd4     libvcruntimed:undname.obj
 0002:00002fe0       ??_C@_07EDHNAJHC@signed?5?$AA@ 004b1fe0     libvcruntimed:undname.obj
 0002:00002fec       ??_C@_05BNCCCJPP@const?$AA@ 004b1fec     libvcruntimed:undname.obj
 0002:00002ff4       ??_C@_09EFNPDFFP@?5volatile?$AA@ 004b1ff4     libvcruntimed:undname.obj
 0002:00003000       ??_C@_0P@GCIFDJCJ@?$GAunknown?5ecsu?8?$AA@ 004b2000     libvcruntimed:undname.obj
 0002:00003014       ??_C@_06MOJHIBMG@union?5?$AA@ 004b2014     libvcruntimed:undname.obj
 0002:0000301c       ??_C@_07DIBCDNGL@struct?5?$AA@ 004b201c     libvcruntimed:undname.obj
 0002:00003028       ??_C@_06LJBABKPM@class?5?$AA@ 004b2028     libvcruntimed:undname.obj
 0002:00003030       ??_C@_08KOFANOFK@coclass?5?$AA@ 004b2030     libvcruntimed:undname.obj
 0002:0000303c       ??_C@_0N@DLIEFKNA@cointerface?5?$AA@ 004b203c     libvcruntimed:undname.obj
 0002:0000304c       ??_C@_05LJGMCFOG@enum?5?$AA@ 004b204c     libvcruntimed:undname.obj
 0002:00003054       ??_C@_09GAIEOBLP@volatile?5?$AA@ 004b2054     libvcruntimed:undname.obj
 0002:00003060       ??_C@_06LIJLOJAG@const?5?$AA@ 004b2060     libvcruntimed:undname.obj
 0002:00003068       ??_C@_02KJPKDIBN@?$CG?5?$AA@ 004b2068     libvcruntimed:undname.obj
 0002:0000306c       ??_C@_03PCKGMOPB@?$CG?$CG?5?$AA@ 004b206c     libvcruntimed:undname.obj
 0002:00003070       ??_C@_0M@EALIELKG@cli?3?3array?$DM?$AA@ 004b2070     libvcruntimed:undname.obj
 0002:00003080       ??_C@_0O@GKABPPIF@cli?3?3pin_ptr?$DM?$AA@ 004b2080     libvcruntimed:undname.obj
 0002:00003090       ??_C@_02GOGNNPBN@?$CJ?$FL?$AA@ 004b2090     libvcruntimed:undname.obj
 0002:00003094       ??_C@_06EEGAIFAK@?$HLflat?$HN?$AA@ 004b2094     libvcruntimed:undname.obj
 0002:0000309c       ??_C@_05JIBOFOHK@?$HLfor?5?$AA@ 004b209c     libvcruntimed:undname.obj
 0002:000030a4       ??_C@_02MDINNEEG@s?5?$AA@  004b20a4     libvcruntimed:undname.obj
 0002:000030ac       ??_7DNameNode@@6B@         004b20ac     libvcruntimed:undname.obj
 0002:000030c0       ??_7charNode@@6B@          004b20c0     libvcruntimed:undname.obj
 0002:000030d4       ??_7pcharNode@@6B@         004b20d4     libvcruntimed:undname.obj
 0002:000030e8       ??_7pDNameNode@@6B@        004b20e8     libvcruntimed:undname.obj
 0002:000030fc       ??_7DNameStatusNode@@6B@   004b20fc     libvcruntimed:undname.obj
 0002:00003110       ??_7pairNode@@6B@          004b2110     libvcruntimed:undname.obj
 0002:00003120       ??_C@_04OKOHEJBO@?5?$DP?$DP?5?$AA@ 004b2120     libvcruntimed:undname.obj
 0002:00003128       ??_C@_0CP@GDJHIDC@minkernel?2crts?2ucrt?2src?2appcrt?2s@ 004b2128     libucrtd:_file.obj
 0002:00003160       ??_C@_1DC@OGOLMDEL@?$AAp?$AAu?$AAb?$AAl?$AAi?$AAc?$AA_?$AAs?$AAt?$AAr?$AAe?$AAa?$AAm?$AA?5?$AA?$CB?$AA?$DN?$AA?5?$AAn?$AAu?$AAl?$AAl?$AAp?$AAt?$AAr?$AA?$AA@ 004b2160     libucrtd:_file.obj
 0002:000031a0       ??_C@_1FO@IEGKHABE@?$AAm?$AAi?$AAn?$AAk?$AAe?$AAr?$AAn?$AAe?$AAl?$AA?2?$AAc?$AAr?$AAt?$AAs?$AA?2?$AAu?$AAc?$AAr?$AAt?$AA?2?$AAs?$AAr?$AAc?$AA?2?$AAa?$AAp?$AAp?$AAc?$AAr?$AAt?$AA?2?$AAs@ 004b21a0     libucrtd:_file.obj
 0002:00003210       ??_C@_1DI@PJGMCDLC@?$AA_?$AAg?$AAe?$AAt?$AA_?$AAs?$AAt?$AAr?$AAe?$AAa?$AAm?$AA_?$AAb?$AAu?$AAf?$AAf?$AAe?$AAr?$AA_?$AAp?$AAo?$AAi?$AAn?$AAt?$AAe?$AAr?$AAs?$AA?$AA@ 004b2210     libucrtd:_file.obj
 0002:00003254       ??_C@_1BO@MHPFFFJJ@?$AAs?$AAt?$AAr?$AAe?$AAa?$AAm?$AA?4?$AAv?$AAa?$AAl?$AAi?$AAd?$AA?$CI?$AA?$CJ?$AA?$AA@ 004b2254     libucrtd:fclose.obj
 0002:00003278       ??_C@_1GA@DKNOMDCL@?$AAm?$AAi?$AAn?$AAk?$AAe?$AAr?$AAn?$AAe?$AAl?$AA?2?$AAc?$AAr?$AAt?$AAs?$AA?2?$AAu?$AAc?$AAr?$AAt?$AA?2?$AAs?$AAr?$AAc?$AA?2?$AAa?$AAp?$AAp?$AAc?$AAr?$AAt?$AA?2?$AAs@ 004b2278     libucrtd:fclose.obj
 0002:000032ec       ??_C@_1O@EGMJNCOI@?$AAf?$AAc?$AAl?$AAo?$AAs?$AAe?$AA?$AA@ 004b22ec     libucrtd:fclose.obj
 0002:000032fc       ??_C@_1BO@JINCABEC@?$AA_?$AAf?$AAc?$AAl?$AAo?$AAs?$AAe?$AA_?$AAn?$AAo?$AAl?$AAo?$AAc?$AAk?$AA?$AA@ 004b22fc     libucrtd:fclose.obj
 0002:00003320       ??_C@_1CK@LLOEFJJG@?$AAf?$AAi?$AAl?$AAe?$AA_?$AAn?$AAa?$AAm?$AAe?$AA?5?$AA?$CB?$AA?$DN?$AA?5?$AAn?$AAu?$AAl?$AAl?$AAp?$AAt?$AAr?$AA?$AA@ 004b2320     libucrtd:fopen.obj
 0002:00003358       ??_C@_1FO@JKHHBFCN@?$AAm?$AAi?$AAn?$AAk?$AAe?$AAr?$AAn?$AAe?$AAl?$AA?2?$AAc?$AAr?$AAt?$AAs?$AA?2?$AAu?$AAc?$AAr?$AAt?$AA?2?$AAs?$AAr?$AAc?$AA?2?$AAa?$AAp?$AAp?$AAc?$AAr?$AAt?$AA?2?$AAs@ 004b2358     libucrtd:fopen.obj
 0002:000033c8       ??_C@_1BM@HBDCPLIA@?$AAc?$AAo?$AAm?$AAm?$AAo?$AAn?$AA_?$AAf?$AAs?$AAo?$AAp?$AAe?$AAn?$AA?$AA@ 004b23c8     libucrtd:fopen.obj
 0002:000033ec       ??_C@_1CA@HJKPLBCC@?$AAm?$AAo?$AAd?$AAe?$AA?5?$AA?$CB?$AA?$DN?$AA?5?$AAn?$AAu?$AAl?$AAl?$AAp?$AAt?$AAr?$AA?$AA@ 004b23ec     libucrtd:fopen.obj
 0002:00003414       ??_C@_1BG@HEFEIBLN@?$AA?$CK?$AAm?$AAo?$AAd?$AAe?$AA?5?$AA?$CB?$AA?$DN?$AA?5?$AA0?$AA?$AA@ 004b2414     libucrtd:fopen.obj
 0002:00003430       ??_C@_1CE@JMFACANE@?$AAr?$AAe?$AAs?$AAu?$AAl?$AAt?$AA?5?$AA?$CB?$AA?$DN?$AA?5?$AAn?$AAu?$AAl?$AAl?$AAp?$AAt?$AAr?$AA?$AA@ 004b2430     libucrtd:fopen.obj
 0002:0000345c       ??_C@_1BO@JGGJAKB@?$AAc?$AAo?$AAm?$AAm?$AAo?$AAn?$AA_?$AAf?$AAo?$AAp?$AAe?$AAn?$AA_?$AAs?$AA?$AA@ 004b245c     libucrtd:fopen.obj
 0002:00003480       ??_C@_1BDG@MKBKGHOH@?$AA?$CI?$AA?5?$AA?$CI?$AA_?$AAS?$AAt?$AAr?$AAe?$AAa?$AAm?$AA?4?$AAi?$AAs?$AA_?$AAs?$AAt?$AAr?$AAi?$AAn?$AAg?$AA_?$AAb?$AAa?$AAc?$AAk?$AAe?$AAd?$AA?$CI?$AA?$CJ?$AA?$CJ?$AA?5?$AA?$HM@ 004b2480     libucrtd:fputc.obj
 0002:000035f4       ??_C@_1CE@JLIJLEKO@?$AAs?$AAt?$AAr?$AAe?$AAa?$AAm?$AA?5?$AA?$CB?$AA?$DN?$AA?5?$AAn?$AAu?$AAl?$AAl?$AAp?$AAt?$AAr?$AA?$AA@ 004b25f4     libucrtd:fputc.obj
 0002:00003620       ??_C@_1FO@FNOAOMLP@?$AAm?$AAi?$AAn?$AAk?$AAe?$AAr?$AAn?$AAe?$AAl?$AA?2?$AAc?$AAr?$AAt?$AAs?$AA?2?$AAu?$AAc?$AAr?$AAt?$AA?2?$AAs?$AAr?$AAc?$AA?2?$AAa?$AAp?$AAp?$AAc?$AAr?$AAt?$AA?2?$AAs@ 004b2620     libucrtd:fputc.obj
 0002:00003690       ??_C@_1M@OIJMPNCO@?$AAf?$AAp?$AAu?$AAt?$AAc?$AA?$AA@ 004b2690     libucrtd:fputc.obj
 0002:000036a0       ??_C@_1FO@CIJKACCM@?$AAm?$AAi?$AAn?$AAk?$AAe?$AAr?$AAn?$AAe?$AAl?$AA?2?$AAc?$AAr?$AAt?$AAs?$AA?2?$AAu?$AAc?$AAr?$AAt?$AA?2?$AAs?$AAr?$AAc?$AA?2?$AAa?$AAp?$AAp?$AAc?$AAr?$AAt?$AA?2?$AAs@ 004b26a0     libucrtd:fread.obj
 0002:00003710       ??_C@_1BA@CMLCEIGG@?$AAf?$AAr?$AAe?$AAa?$AAd?$AA_?$AAs?$AA?$AA@ 004b2710     libucrtd:fread.obj
 0002:00003724       ??_C@_1CE@MCCHPLBM@?$AAb?$AAu?$AAf?$AAf?$AAe?$AAr?$AA?5?$AA?$CB?$AA?$DN?$AA?5?$AAn?$AAu?$AAl?$AAl?$AAp?$AAt?$AAr?$AA?$AA@ 004b2724     libucrtd:fread.obj
 0002:00003750       ??_C@_1CA@IDPOGFL@?$AA_?$AAf?$AAr?$AAe?$AAa?$AAd?$AA_?$AAn?$AAo?$AAl?$AAo?$AAc?$AAk?$AA_?$AAs?$AA?$AA@ 004b2750     libucrtd:fread.obj
 0002:00003778       ??_C@_1FG@KLKDPCLL@?$AAe?$AAl?$AAe?$AAm?$AAe?$AAn?$AAt?$AA_?$AAc?$AAo?$AAu?$AAn?$AAt?$AA?5?$AA?$DM?$AA?$DN?$AA?5?$AA?$CI?$AAS?$AAI?$AAZ?$AAE?$AA_?$AAM?$AAA?$AAX?$AA?5?$AA?1?$AA?5?$AAe?$AAl?$AAe@ 004b2778     libucrtd:fread.obj
 0002:000037e0       ??_C@_1LG@DCNDJCHK@?$AA?$CI?$AA?$CC?$AAI?$AAn?$AAc?$AAo?$AAn?$AAs?$AAi?$AAs?$AAt?$AAe?$AAn?$AAt?$AA?5?$AAS?$AAt?$AAr?$AAe?$AAa?$AAm?$AA?5?$AAC?$AAo?$AAu?$AAn?$AAt?$AA?4?$AA?5?$AAF?$AAl?$AAu@ 004b27e0     libucrtd:fread.obj
 0002:000038bc       ??_C@_1DA@DKEFLDMG@?$AA?$CI?$AA?$CC?$AAb?$AAu?$AAf?$AAf?$AAe?$AAr?$AA?5?$AAt?$AAo?$AAo?$AA?5?$AAs?$AAm?$AAa?$AAl?$AAl?$AA?$CC?$AA?0?$AA?5?$AA0?$AA?$CJ?$AA?$AA@ 004b28bc     libucrtd:fread.obj
 0002:000038f8       ??_C@_1FO@KMPAKEKH@?$AAm?$AAi?$AAn?$AAk?$AAe?$AAr?$AAn?$AAe?$AAl?$AA?2?$AAc?$AAr?$AAt?$AAs?$AA?2?$AAu?$AAc?$AAr?$AAt?$AA?2?$AAs?$AAr?$AAc?$AA?2?$AAa?$AAp?$AAp?$AAc?$AAr?$AAt?$AA?2?$AAs@ 004b28f8     libucrtd:fseek.obj
 0002:00003968       ??_C@_1BK@HEPGDNON@?$AAc?$AAo?$AAm?$AAm?$AAo?$AAn?$AA_?$AAf?$AAs?$AAe?$AAe?$AAk?$AA?$AA@ 004b2968     libucrtd:fseek.obj
 0002:00003988       ??_C@_1HO@BJGCGJL@?$AAw?$AAh?$AAe?$AAn?$AAc?$AAe?$AA?5?$AA?$DN?$AA?$DN?$AA?5?$AAS?$AAE?$AAE?$AAK?$AA_?$AAS?$AAE?$AAT?$AA?5?$AA?$HM?$AA?$HM?$AA?5?$AAw?$AAh?$AAe?$AAn?$AAc?$AAe?$AA?5?$AA?$DN?$AA?$DN?$AA?5@ 004b2988     libucrtd:fseek.obj
 0002:00003a20       ??_C@_1CO@LBNDLIPC@?$AAs?$AAt?$AAr?$AAe?$AAa?$AAm?$AA?4?$AAp?$AAu?$AAb?$AAl?$AAi?$AAc?$AA_?$AAs?$AAt?$AAr?$AAe?$AAa?$AAm?$AA?$CI?$AA?$CJ?$AA?$AA@ 004b2a20     libucrtd:ftell.obj
 0002:00003a58       ??_C@_1FO@JHBALIAM@?$AAm?$AAi?$AAn?$AAk?$AAe?$AAr?$AAn?$AAe?$AAl?$AA?2?$AAc?$AAr?$AAt?$AAs?$AA?2?$AAu?$AAc?$AAr?$AAt?$AA?2?$AAs?$AAr?$AAc?$AA?2?$AAa?$AAp?$AAp?$AAc?$AAr?$AAt?$AA?2?$AAs@ 004b2a58     libucrtd:ftell.obj
 0002:00003ac8       ??_C@_1CI@MOKEPKDC@?$AAc?$AAo?$AAm?$AAm?$AAo?$AAn?$AA_?$AAf?$AAt?$AAe?$AAl?$AAl?$AA_?$AAn?$AAo?$AAl?$AAo?$AAc?$AAk?$AA?$AA@ 004b2ac8     libucrtd:ftell.obj
 0002:00003af8       ??_C@_1BK@CMPCEPOF@?$AAc?$AAo?$AAm?$AAm?$AAo?$AAn?$AA_?$AAf?$AAt?$AAe?$AAl?$AAl?$AA?$AA@ 004b2af8     libucrtd:ftell.obj
 0002:00003b18       ??_C@_0DF@IKPHOEPI@minkernel?2crts?2ucrt?2src?2appcrt?2f@ 004b2b18     libucrtd:rename.obj
 0002:00003b58       _standard_lookup_table     004b2b58     libucrtd:output.obj
 0002:00003bc8       _format_validation_lookup_table 004b2bc8     libucrtd:output.obj
 0002:00003c38       ??_C@_1GC@LCDLABEA@?$AAm?$AAi?$AAn?$AAk?$AAe?$AAr?$AAn?$AAe?$AAl?$AA?2?$AAc?$AAr?$AAt?$AAs?$AA?2?$AAu?$AAc?$AAr?$AAt?$AA?2?$AAi?$AAn?$AAc?$AA?2?$AAc?$AAo?$AAr?$AAe?$AAc?$AAr?$AAt?$AA_@ 004b2c38     libucrtd:output.obj
 0002:00003cb0       ??_C@_1II@DIIMCJOK@?$AA_?$AA_?$AAa?$AAc?$AAr?$AAt?$AA_?$AAs?$AAt?$AAd?$AAi?$AAo?$AA_?$AAc?$AAh?$AAa?$AAr?$AA_?$AAt?$AAr?$AAa?$AAi?$AAt?$AAs?$AA?$DM?$AAc?$AAh?$AAa?$AAr?$AA?$DO?$AA?3?$AA?3@ 004b2cb0     libucrtd:output.obj
 0002:00003d58       ??_C@_1GA@MOBAPGIO@?$AAm?$AAi?$AAn?$AAk?$AAe?$AAr?$AAn?$AAe?$AAl?$AA?2?$AAc?$AAr?$AAt?$AAs?$AA?2?$AAu?$AAc?$AAr?$AAt?$AA?2?$AAs?$AAr?$AAc?$AA?2?$AAa?$AAp?$AAp?$AAc?$AAr?$AAt?$AA?2?$AAs@ 004b2d58     libucrtd:output.obj
 0002:00003dcc       ??_C@_1CA@GELIJBMC@?$AAc?$AAo?$AAm?$AAm?$AAo?$AAn?$AA_?$AAv?$AAf?$AAp?$AAr?$AAi?$AAn?$AAt?$AAf?$AA?$AA@ 004b2dcc     libucrtd:output.obj
 0002:00003df4       ??_C@_1CE@EAKLPBKK@?$AAf?$AAo?$AAr?$AAm?$AAa?$AAt?$AA?5?$AA?$CB?$AA?$DN?$AA?5?$AAn?$AAu?$AAl?$AAl?$AAp?$AAt?$AAr?$AA?$AA@ 004b2df4     libucrtd:output.obj
 0002:00003e20       ??_C@_1CA@PIMGHCEK@?$AAc?$AAo?$AAm?$AAm?$AAo?$AAn?$AA_?$AAv?$AAs?$AAp?$AAr?$AAi?$AAn?$AAt?$AAf?$AA?$AA@ 004b2e20     libucrtd:output.obj
 0002:00003e48       ??_C@_1EO@EGEEFEFM@?$AAb?$AAu?$AAf?$AAf?$AAe?$AAr?$AA_?$AAc?$AAo?$AAu?$AAn?$AAt?$AA?5?$AA?$DN?$AA?$DN?$AA?5?$AA0?$AA?5?$AA?$HM?$AA?$HM?$AA?5?$AAb?$AAu?$AAf?$AAf?$AAe?$AAr?$AA?5?$AA?$CB?$AA?$DN?$AA?5?$AAn@ 004b2e48     libucrtd:output.obj
 0002:00003ea8       ??_C@_1CE@JEILLNB@?$AAc?$AAo?$AAm?$AAm?$AAo?$AAn?$AA_?$AAv?$AAs?$AAp?$AAr?$AAi?$AAn?$AAt?$AAf?$AA_?$AAs?$AA?$AA@ 004b2ea8     libucrtd:output.obj
 0002:00003ed8       ??_C@_1EM@OAFHAOLH@?$AAb?$AAu?$AAf?$AAf?$AAe?$AAr?$AA?5?$AA?$CB?$AA?$DN?$AA?5?$AAn?$AAu?$AAl?$AAl?$AAp?$AAt?$AAr?$AA?5?$AA?$CG?$AA?$CG?$AA?5?$AAb?$AAu?$AAf?$AAf?$AAe?$AAr?$AA_?$AAc?$AAo?$AAu?$AAn@ 004b2ed8     libucrtd:output.obj
 0002:00003f34       ??_C@_1DA@HPBFKMEB@?$AA?$CI?$AA?$CC?$AAB?$AAu?$AAf?$AAf?$AAe?$AAr?$AA?5?$AAt?$AAo?$AAo?$AA?5?$AAs?$AAm?$AAa?$AAl?$AAl?$AA?$CC?$AA?0?$AA?5?$AA0?$AA?$CJ?$AA?$AA@ 004b2f34     libucrtd:output.obj
 0002:00003f70       ??_C@_1CG@LHFJHFBB@?$AAc?$AAo?$AAm?$AAm?$AAo?$AAn?$AA_?$AAv?$AAs?$AAn?$AAp?$AAr?$AAi?$AAn?$AAt?$AAf?$AA_?$AAs?$AA?$AA@ 004b2f70     libucrtd:output.obj
 0002:00003fa0       ??_C@_1CM@JOIJBMEM@?$AA_?$AAf?$AAo?$AAr?$AAm?$AAa?$AAt?$AA_?$AAi?$AAt?$AA?5?$AA?$CB?$AA?$DN?$AA?5?$AAn?$AAu?$AAl?$AAl?$AAp?$AAt?$AAr?$AA?$AA@ 004b2fa0     libucrtd:output.obj
 0002:00003fd8       ??_C@_1HA@DMAAKIJP@?$AAm?$AAi?$AAn?$AAk?$AAe?$AAr?$AAn?$AAe?$AAl?$AA?2?$AAc?$AAr?$AAt?$AAs?$AA?2?$AAu?$AAc?$AAr?$AAt?$AA?2?$AAi?$AAn?$AAc?$AA?2?$AAc?$AAo?$AAr?$AAe?$AAc?$AAr?$AAt?$AA_@ 004b2fd8     libucrtd:output.obj
 0002:00004060       ??_C@_1BKA@IIAAOGBO@?$AA_?$AA_?$AAc?$AAr?$AAt?$AA_?$AAs?$AAt?$AAd?$AAi?$AAo?$AA_?$AAo?$AAu?$AAt?$AAp?$AAu?$AAt?$AA?3?$AA?3?$AAo?$AAu?$AAt?$AAp?$AAu?$AAt?$AA_?$AAp?$AAr?$AAo?$AAc?$AAe@ 004b3060     libucrtd:output.obj
 0002:00004258       ??_C@_1EE@DMAIGNBG@?$AA?$CI?$AA?$CC?$AAI?$AAn?$AAc?$AAo?$AAr?$AAr?$AAe?$AAc?$AAt?$AA?5?$AAf?$AAo?$AAr?$AAm?$AAa?$AAt?$AA?5?$AAs?$AAp?$AAe?$AAc?$AAi?$AAf?$AAi?$AAe?$AAr?$AA?$CC?$AA?0?$AA?5?$AA0@ 004b3258     libucrtd:output.obj
 0002:000042b0       ??_C@_1BLI@EEAAPJD@?$AA_?$AA_?$AAc?$AAr?$AAt?$AA_?$AAs?$AAt?$AAd?$AAi?$AAo?$AA_?$AAo?$AAu?$AAt?$AAp?$AAu?$AAt?$AA?3?$AA?3?$AAo?$AAu?$AAt?$AAp?$AAu?$AAt?$AA_?$AAp?$AAr?$AAo?$AAc?$AAe@ 004b32b0     libucrtd:output.obj
 0002:000044c0       ??_C@_1BLC@PMCLHHAE@?$AA_?$AA_?$AAc?$AAr?$AAt?$AA_?$AAs?$AAt?$AAd?$AAi?$AAo?$AA_?$AAo?$AAu?$AAt?$AAp?$AAu?$AAt?$AA?3?$AA?3?$AAo?$AAu?$AAt?$AAp?$AAu?$AAt?$AA_?$AAp?$AAr?$AAo?$AAc?$AAe@ 004b34c0     libucrtd:output.obj
 0002:000046c8       ??_C@_1BMK@CPBKHDIH@?$AA_?$AA_?$AAc?$AAr?$AAt?$AA_?$AAs?$AAt?$AAd?$AAi?$AAo?$AA_?$AAo?$AAu?$AAt?$AAp?$AAu?$AAt?$AA?3?$AA?3?$AAo?$AAu?$AAt?$AAp?$AAu?$AAt?$AA_?$AAp?$AAr?$AAo?$AAc?$AAe@ 004b36c8     libucrtd:output.obj
 0002:000048f0       ??_C@_1BLI@FOCNEPKJ@?$AA_?$AA_?$AAc?$AAr?$AAt?$AA_?$AAs?$AAt?$AAd?$AAi?$AAo?$AA_?$AAo?$AAu?$AAt?$AAp?$AAu?$AAt?$AA?3?$AA?3?$AAo?$AAu?$AAt?$AAp?$AAu?$AAt?$AA_?$AAp?$AAr?$AAo?$AAc?$AAe@ 004b38f0     libucrtd:output.obj
 0002:00004b00       ??_C@_1BNA@HGLCOOBP@?$AA_?$AA_?$AAc?$AAr?$AAt?$AA_?$AAs?$AAt?$AAd?$AAi?$AAo?$AA_?$AAo?$AAu?$AAt?$AAp?$AAu?$AAt?$AA?3?$AA?3?$AAo?$AAu?$AAt?$AAp?$AAu?$AAt?$AA_?$AAp?$AAr?$AAo?$AAc?$AAe@ 004b3b00     libucrtd:output.obj
 0002:00004d30       ??_C@_1BKA@DNADAJMC@?$AA_?$AA_?$AAc?$AAr?$AAt?$AA_?$AAs?$AAt?$AAd?$AAi?$AAo?$AA_?$AAo?$AAu?$AAt?$AAp?$AAu?$AAt?$AA?3?$AA?3?$AAo?$AAu?$AAt?$AAp?$AAu?$AAt?$AA_?$AAp?$AAr?$AAo?$AAc?$AAe@ 004b3d30     libucrtd:output.obj
 0002:00004f28       ??_C@_1BLI@IKDKMDHI@?$AA_?$AA_?$AAc?$AAr?$AAt?$AA_?$AAs?$AAt?$AAd?$AAi?$AAo?$AA_?$AAo?$AAu?$AAt?$AAp?$AAu?$AAt?$AA?3?$AA?3?$AAo?$AAu?$AAt?$AAp?$AAu?$AAt?$AA_?$AAp?$AAr?$AAo?$AAc?$AAe@ 004b3f28     libucrtd:output.obj
 0002:00005138       ??_C@_1BLI@EGFICANE@?$AA_?$AA_?$AAc?$AAr?$AAt?$AA_?$AAs?$AAt?$AAd?$AAi?$AAo?$AA_?$AAo?$AAu?$AAt?$AAp?$AAu?$AAt?$AA?3?$AA?3?$AAo?$AAu?$AAt?$AAp?$AAu?$AAt?$AA_?$AAp?$AAr?$AAo?$AAc?$AAe@ 004b4138     libucrtd:output.obj
 0002:00005348       ??_C@_1BNA@OIIAGHJI@?$AA_?$AA_?$AAc?$AAr?$AAt?$AA_?$AAs?$AAt?$AAd?$AAi?$AAo?$AA_?$AAo?$AAu?$AAt?$AAp?$AAu?$AAt?$AA?3?$AA?3?$AAo?$AAu?$AAt?$AAp?$AAu?$AAt?$AA_?$AAp?$AAr?$AAo?$AAc?$AAe@ 004b4348     libucrtd:output.obj
 0002:00005574       ??_C@_1CA@ONEGMNAN@?$AA_?$AAs?$AAt?$AAr?$AAe?$AAa?$AAm?$AA?4?$AAv?$AAa?$AAl?$AAi?$AAd?$AA?$CI?$AA?$CJ?$AA?$AA@ 004b4574     libucrtd:output.obj
 0002:000055a0       ??_C@_1HE@FGKHNBNL@?$AA_?$AA_?$AAc?$AAr?$AAt?$AA_?$AAs?$AAt?$AAd?$AAi?$AAo?$AA_?$AAo?$AAu?$AAt?$AAp?$AAu?$AAt?$AA?3?$AA?3?$AAs?$AAt?$AAr?$AAe?$AAa?$AAm?$AA_?$AAo?$AAu?$AAt?$AAp?$AAu@ 004b45a0     libucrtd:output.obj
 0002:0000562c       ??_C@_1DG@CEJKFDMO@?$AAs?$AAt?$AAa?$AAt?$AAe?$AA_?$AAc?$AAa?$AAs?$AAe?$AA_?$AAn?$AAo?$AAr?$AAm?$AAa?$AAl?$AA_?$AAc?$AAo?$AAm?$AAm?$AAo?$AAn?$AA?$CI?$AA?$CJ?$AA?$AA@ 004b462c     libucrtd:output.obj
 0002:00005670       ??_C@_1BLE@PAACOKDK@?$AA_?$AA_?$AAc?$AAr?$AAt?$AA_?$AAs?$AAt?$AAd?$AAi?$AAo?$AA_?$AAo?$AAu?$AAt?$AAp?$AAu?$AAt?$AA?3?$AA?3?$AAo?$AAu?$AAt?$AAp?$AAu?$AAt?$AA_?$AAp?$AAr?$AAo?$AAc?$AAe@ 004b4670     libucrtd:output.obj
 0002:00005880       ??_C@_1FG@OBJBDPAC@?$AA?$CI?$AA?$CC?$AAN?$AA?5?$AAl?$AAe?$AAn?$AAg?$AAt?$AAh?$AA?5?$AAm?$AAo?$AAd?$AAi?$AAf?$AAi?$AAe?$AAr?$AA?5?$AAn?$AAo?$AAt?$AA?5?$AAs?$AAp?$AAe?$AAc?$AAi?$AAf?$AAi?$AAe@ 004b4880     libucrtd:output.obj
 0002:000058e8       ??_C@_1BLA@GJNGKGIK@?$AA_?$AA_?$AAc?$AAr?$AAt?$AA_?$AAs?$AAt?$AAd?$AAi?$AAo?$AA_?$AAo?$AAu?$AAt?$AAp?$AAu?$AAt?$AA?3?$AA?3?$AAo?$AAu?$AAt?$AAp?$AAu?$AAt?$AA_?$AAp?$AAr?$AAo?$AAc?$AAe@ 004b48e8     libucrtd:output.obj
 0002:00005af0       ??_C@_1EC@GJPNJDCN@?$AA_?$AAl?$AAe?$AAn?$AAg?$AAt?$AAh?$AA?5?$AA?$DN?$AA?$DN?$AA?5?$AAl?$AAe?$AAn?$AAg?$AAt?$AAh?$AA_?$AAm?$AAo?$AAd?$AAi?$AAf?$AAi?$AAe?$AAr?$AA?3?$AA?3?$AAn?$AAo?$AAn?$AAe@ 004b4af0     libucrtd:output.obj
 0002:00005b40       ??_C@_1HK@MPBCDOK@?$AA_?$AA_?$AAc?$AAr?$AAt?$AA_?$AAs?$AAt?$AAd?$AAi?$AAo?$AA_?$AAo?$AAu?$AAt?$AAp?$AAu?$AAt?$AA?3?$AA?3?$AAs?$AAt?$AAr?$AAe?$AAa?$AAm?$AA_?$AAo?$AAu?$AAt?$AAp?$AAu@ 004b4b40     libucrtd:output.obj
 0002:00005bd8       ??_C@_1BMM@JHGFKAND@?$AA_?$AA_?$AAc?$AAr?$AAt?$AA_?$AAs?$AAt?$AAd?$AAi?$AAo?$AA_?$AAo?$AAu?$AAt?$AAp?$AAu?$AAt?$AA?3?$AA?3?$AAo?$AAu?$AAt?$AAp?$AAu?$AAt?$AA_?$AAp?$AAr?$AAo?$AAc?$AAe@ 004b4bd8     libucrtd:output.obj
 0002:00005e00       ??_C@_1BMI@DNMDMAAN@?$AA_?$AA_?$AAc?$AAr?$AAt?$AA_?$AAs?$AAt?$AAd?$AAi?$AAo?$AA_?$AAo?$AAu?$AAt?$AAp?$AAu?$AAt?$AA?3?$AA?3?$AAo?$AAu?$AAt?$AAp?$AAu?$AAt?$AA_?$AAp?$AAr?$AAo?$AAc?$AAe@ 004b4e00     libucrtd:output.obj
 0002:00006028       ??_C@_1BMG@KOENKAMB@?$AA_?$AA_?$AAc?$AAr?$AAt?$AA_?$AAs?$AAt?$AAd?$AAi?$AAo?$AA_?$AAo?$AAu?$AAt?$AAp?$AAu?$AAt?$AA?3?$AA?3?$AAo?$AAu?$AAt?$AAp?$AAu?$AAt?$AA_?$AAp?$AAr?$AAo?$AAc?$AAe@ 004b5028     libucrtd:output.obj
 0002:00006248       ??_C@_1BMC@DAENMDAD@?$AA_?$AA_?$AAc?$AAr?$AAt?$AA_?$AAs?$AAt?$AAd?$AAi?$AAo?$AA_?$AAo?$AAu?$AAt?$AAp?$AAu?$AAt?$AA?3?$AA?3?$AAo?$AAu?$AAt?$AAp?$AAu?$AAt?$AA_?$AAp?$AAr?$AAo?$AAc?$AAe@ 004b5248     libucrtd:output.obj
 0002:00006468       ??_C@_1GC@BNMHNGKM@?$AA_?$AAs?$AAt?$AAa?$AAt?$AAe?$AA?5?$AA?$DN?$AA?$DN?$AA?5?$AAs?$AAt?$AAa?$AAt?$AAe?$AA?3?$AA?3?$AAn?$AAo?$AAr?$AAm?$AAa?$AAl?$AA?5?$AA?$HM?$AA?$HM?$AA?5?$AA_?$AAs?$AAt?$AAa?$AAt@ 004b5468     libucrtd:output.obj
 0002:000064e0       ??_C@_1BDG@PLANJEFE@?$AA_?$AA_?$AAc?$AAr?$AAt?$AA_?$AAs?$AAt?$AAd?$AAi?$AAo?$AA_?$AAo?$AAu?$AAt?$AAp?$AAu?$AAt?$AA?3?$AA?3?$AAf?$AAo?$AAr?$AAm?$AAa?$AAt?$AA_?$AAv?$AAa?$AAl?$AAi?$AAd@ 004b54e0     libucrtd:output.obj
 0002:00006658       ??_C@_1BNO@LMMLJOOJ@?$AA_?$AA_?$AAc?$AAr?$AAt?$AA_?$AAs?$AAt?$AAd?$AAi?$AAo?$AA_?$AAo?$AAu?$AAt?$AAp?$AAu?$AAt?$AA?3?$AA?3?$AAo?$AAu?$AAt?$AAp?$AAu?$AAt?$AA_?$AAp?$AAr?$AAo?$AAc?$AAe@ 004b5658     libucrtd:output.obj
 0002:00006898       ??_C@_1BNK@ONPHCEAM@?$AA_?$AA_?$AAc?$AAr?$AAt?$AA_?$AAs?$AAt?$AAd?$AAi?$AAo?$AA_?$AAo?$AAu?$AAt?$AAp?$AAu?$AAt?$AA?3?$AA?3?$AAo?$AAu?$AAt?$AAp?$AAu?$AAt?$AA_?$AAp?$AAr?$AAo?$AAc?$AAe@ 004b5898     libucrtd:output.obj
 0002:00006ad0       ??_C@_1BEC@FNIGNBHI@?$AA_?$AA_?$AAc?$AAr?$AAt?$AA_?$AAs?$AAt?$AAd?$AAi?$AAo?$AA_?$AAo?$AAu?$AAt?$AAp?$AAu?$AAt?$AA?3?$AA?3?$AAf?$AAo?$AAr?$AAm?$AAa?$AAt?$AA_?$AAv?$AAa?$AAl?$AAi?$AAd@ 004b5ad0     libucrtd:output.obj
 0002:00006c58       ??_C@_1BMM@BLBJDDIA@?$AA_?$AA_?$AAc?$AAr?$AAt?$AA_?$AAs?$AAt?$AAd?$AAi?$AAo?$AA_?$AAo?$AAu?$AAt?$AAp?$AAu?$AAt?$AA?3?$AA?3?$AAo?$AAu?$AAt?$AAp?$AAu?$AAt?$AA_?$AAp?$AAr?$AAo?$AAc?$AAe@ 004b5c58     libucrtd:output.obj
 0002:00006e80       ??_C@_1BMI@PKGBOKJK@?$AA_?$AA_?$AAc?$AAr?$AAt?$AA_?$AAs?$AAt?$AAd?$AAi?$AAo?$AA_?$AAo?$AAu?$AAt?$AAp?$AAu?$AAt?$AA?3?$AA?3?$AAo?$AAu?$AAt?$AAp?$AAu?$AAt?$AA_?$AAp?$AAr?$AAo?$AAc?$AAe@ 004b5e80     libucrtd:output.obj
 0002:000070a8       ??_C@_1FK@BCPANIEK@?$AA?$CI?$AA?$CC?$AAM?$AAi?$AAs?$AAs?$AAi?$AAn?$AAg?$AA?5?$AAp?$AAo?$AAs?$AAi?$AAt?$AAi?$AAo?$AAn?$AA?5?$AAi?$AAn?$AA?5?$AAt?$AAh?$AAe?$AA?5?$AAf?$AAo?$AAr?$AAm?$AAa?$AAt@ 004b60a8     libucrtd:output.obj
 0002:00007118       ??_C@_1BDM@FDOLKCHK@?$AA_?$AA_?$AAc?$AAr?$AAt?$AA_?$AAs?$AAt?$AAd?$AAi?$AAo?$AA_?$AAo?$AAu?$AAt?$AAp?$AAu?$AAt?$AA?3?$AA?3?$AAp?$AAo?$AAs?$AAi?$AAt?$AAi?$AAo?$AAn?$AAa?$AAl?$AA_?$AAp@ 004b6118     libucrtd:output.obj
 0002:00007298       ??_C@_1IC@NLEOMCDL@?$AA_?$AAt?$AAy?$AAp?$AAe?$AA_?$AAi?$AAn?$AAd?$AAe?$AAx?$AA?5?$AA?$DO?$AA?$DN?$AA?5?$AA0?$AA?5?$AA?$CG?$AA?$CG?$AA?5?$AA?$CK?$AAe?$AAn?$AAd?$AA_?$AAp?$AAo?$AAi?$AAn?$AAt?$AAe?$AAr@ 004b6298     libucrtd:output.obj
 0002:00007338       ??_C@_1BEO@JEHLMMKB@?$AA_?$AA_?$AAc?$AAr?$AAt?$AA_?$AAs?$AAt?$AAd?$AAi?$AAo?$AA_?$AAo?$AAu?$AAt?$AAp?$AAu?$AAt?$AA?3?$AA?3?$AAp?$AAo?$AAs?$AAi?$AAt?$AAi?$AAo?$AAn?$AAa?$AAl?$AA_?$AAp@ 004b6338     libucrtd:output.obj
 0002:000074c8       ??_C@_1BOE@NLICFINO@?$AA_?$AA_?$AAc?$AAr?$AAt?$AA_?$AAs?$AAt?$AAd?$AAi?$AAo?$AA_?$AAo?$AAu?$AAt?$AAp?$AAu?$AAt?$AA?3?$AA?3?$AAo?$AAu?$AAt?$AAp?$AAu?$AAt?$AA_?$AAp?$AAr?$AAo?$AAc?$AAe@ 004b64c8     libucrtd:output.obj
 0002:00007710       ??_C@_1BOA@CBIEMBEE@?$AA_?$AA_?$AAc?$AAr?$AAt?$AA_?$AAs?$AAt?$AAd?$AAi?$AAo?$AA_?$AAo?$AAu?$AAt?$AAp?$AAu?$AAt?$AA?3?$AA?3?$AAo?$AAu?$AAt?$AAp?$AAu?$AAt?$AA_?$AAp?$AAr?$AAo?$AAc?$AAe@ 004b6710     libucrtd:output.obj
 0002:00007950       ??_C@_1BEI@JNJAFAD@?$AA_?$AA_?$AAc?$AAr?$AAt?$AA_?$AAs?$AAt?$AAd?$AAi?$AAo?$AA_?$AAo?$AAu?$AAt?$AAp?$AAu?$AAt?$AA?3?$AA?3?$AAp?$AAo?$AAs?$AAi?$AAt?$AAi?$AAo?$AAn?$AAa?$AAl?$AA_?$AAp@ 004b6950     libucrtd:output.obj
 0002:00007ae0       ??_C@_1BFK@IOIDDMPJ@?$AA_?$AA_?$AAc?$AAr?$AAt?$AA_?$AAs?$AAt?$AAd?$AAi?$AAo?$AA_?$AAo?$AAu?$AAt?$AAp?$AAu?$AAt?$AA?3?$AA?3?$AAp?$AAo?$AAs?$AAi?$AAt?$AAi?$AAo?$AAn?$AAa?$AAl?$AA_?$AAp@ 004b6ae0     libucrtd:output.obj
 0002:00007c80       ??_C@_1CI@DDKMNCPP@?$AA_?$AAc?$AAo?$AAn?$AAt?$AAe?$AAx?$AAt?$AA?5?$AA?$CB?$AA?$DN?$AA?5?$AAn?$AAu?$AAl?$AAl?$AAp?$AAt?$AAr?$AA?$AA@ 004b6c80     libucrtd:output.obj
 0002:00007cb0       ??_C@_1HE@IACOMEJF@?$AA_?$AA_?$AAc?$AAr?$AAt?$AA_?$AAs?$AAt?$AAd?$AAi?$AAo?$AA_?$AAo?$AAu?$AAt?$AAp?$AAu?$AAt?$AA?3?$AA?3?$AAs?$AAt?$AAr?$AAi?$AAn?$AAg?$AA_?$AAo?$AAu?$AAt?$AAp?$AAu@ 004b6cb0     libucrtd:output.obj
 0002:00007d40       ??_C@_1BLE@LCKPBJON@?$AA_?$AA_?$AAc?$AAr?$AAt?$AA_?$AAs?$AAt?$AAd?$AAi?$AAo?$AA_?$AAo?$AAu?$AAt?$AAp?$AAu?$AAt?$AA?3?$AA?3?$AAo?$AAu?$AAt?$AAp?$AAu?$AAt?$AA_?$AAp?$AAr?$AAo?$AAc?$AAe@ 004b6d40     libucrtd:output.obj
 0002:00007f50       ??_C@_1BLA@MEDMHIOH@?$AA_?$AA_?$AAc?$AAr?$AAt?$AA_?$AAs?$AAt?$AAd?$AAi?$AAo?$AA_?$AAo?$AAu?$AAt?$AAp?$AAu?$AAt?$AA?3?$AA?3?$AAo?$AAu?$AAt?$AAp?$AAu?$AAt?$AA_?$AAp?$AAr?$AAo?$AAc?$AAe@ 004b6f50     libucrtd:output.obj
 0002:00008158       ??_C@_1HK@IIPGOADH@?$AA_?$AA_?$AAc?$AAr?$AAt?$AA_?$AAs?$AAt?$AAd?$AAi?$AAo?$AA_?$AAo?$AAu?$AAt?$AAp?$AAu?$AAt?$AA?3?$AA?3?$AAs?$AAt?$AAr?$AAi?$AAn?$AAg?$AA_?$AAo?$AAu?$AAt?$AAp?$AAu@ 004b7158     libucrtd:output.obj
 0002:000081f0       ??_C@_1BMM@PGHHMNDM@?$AA_?$AA_?$AAc?$AAr?$AAt?$AA_?$AAs?$AAt?$AAd?$AAi?$AAo?$AA_?$AAo?$AAu?$AAt?$AAp?$AAu?$AAt?$AA?3?$AA?3?$AAo?$AAu?$AAt?$AAp?$AAu?$AAt?$AA_?$AAp?$AAr?$AAo?$AAc?$AAe@ 004b71f0     libucrtd:output.obj
 0002:00008418       ??_C@_1BMI@KBPJOJJI@?$AA_?$AA_?$AAc?$AAr?$AAt?$AA_?$AAs?$AAt?$AAd?$AAi?$AAo?$AA_?$AAo?$AAu?$AAt?$AAp?$AAu?$AAt?$AA?3?$AA?3?$AAo?$AAu?$AAt?$AAp?$AAu?$AAt?$AA_?$AAp?$AAr?$AAo?$AAc?$AAe@ 004b7418     libucrtd:output.obj
 0002:00008640       ??_C@_1BMM@JGEKEBKL@?$AA_?$AA_?$AAc?$AAr?$AAt?$AA_?$AAs?$AAt?$AAd?$AAi?$AAo?$AA_?$AAo?$AAu?$AAt?$AAp?$AAu?$AAt?$AA?3?$AA?3?$AAo?$AAu?$AAt?$AAp?$AAu?$AAt?$AA_?$AAp?$AAr?$AAo?$AAc?$AAe@ 004b7640     libucrtd:output.obj
 0002:00008868       ??_C@_1BMI@LKDDDFDL@?$AA_?$AA_?$AAc?$AAr?$AAt?$AA_?$AAs?$AAt?$AAd?$AAi?$AAo?$AA_?$AAo?$AAu?$AAt?$AAp?$AAu?$AAt?$AA?3?$AA?3?$AAo?$AAu?$AAt?$AAp?$AAu?$AAt?$AA_?$AAp?$AAr?$AAo?$AAc?$AAe@ 004b7868     libucrtd:output.obj
 0002:00008a90       ??_C@_1BDM@GFCGMNL@?$AA_?$AA_?$AAc?$AAr?$AAt?$AA_?$AAs?$AAt?$AAd?$AAi?$AAo?$AA_?$AAo?$AAu?$AAt?$AAp?$AAu?$AAt?$AA?3?$AA?3?$AAp?$AAo?$AAs?$AAi?$AAt?$AAi?$AAo?$AAn?$AAa?$AAl?$AA_?$AAp@ 004b7a90     libucrtd:output.obj
 0002:00008c10       ??_C@_1BEO@ODGKIOAL@?$AA_?$AA_?$AAc?$AAr?$AAt?$AA_?$AAs?$AAt?$AAd?$AAi?$AAo?$AA_?$AAo?$AAu?$AAt?$AAp?$AAu?$AAt?$AA?3?$AA?3?$AAp?$AAo?$AAs?$AAi?$AAt?$AAi?$AAo?$AAn?$AAa?$AAl?$AA_?$AAp@ 004b7c10     libucrtd:output.obj
 0002:00008da0       ??_C@_1BOE@IPKNNOEE@?$AA_?$AA_?$AAc?$AAr?$AAt?$AA_?$AAs?$AAt?$AAd?$AAi?$AAo?$AA_?$AAo?$AAu?$AAt?$AAp?$AAu?$AAt?$AA?3?$AA?3?$AAo?$AAu?$AAt?$AAp?$AAu?$AAt?$AA_?$AAp?$AAr?$AAo?$AAc?$AAe@ 004b7da0     libucrtd:output.obj
 0002:00008fe8       ??_C@_1BOA@BMEGDMHF@?$AA_?$AA_?$AAc?$AAr?$AAt?$AA_?$AAs?$AAt?$AAd?$AAi?$AAo?$AA_?$AAo?$AAu?$AAt?$AAp?$AAu?$AAt?$AA?3?$AA?3?$AAo?$AAu?$AAt?$AAp?$AAu?$AAt?$AA_?$AAp?$AAr?$AAo?$AAc?$AAe@ 004b7fe8     libucrtd:output.obj
 0002:00009228       ??_C@_1BEI@IHLBHMLJ@?$AA_?$AA_?$AAc?$AAr?$AAt?$AA_?$AAs?$AAt?$AAd?$AAi?$AAo?$AA_?$AAo?$AAu?$AAt?$AAp?$AAu?$AAt?$AA?3?$AA?3?$AAp?$AAo?$AAs?$AAi?$AAt?$AAi?$AAo?$AAn?$AAa?$AAl?$AA_?$AAp@ 004b8228     libucrtd:output.obj
 0002:000093b8       ??_C@_1BFK@KNCMELHH@?$AA_?$AA_?$AAc?$AAr?$AAt?$AA_?$AAs?$AAt?$AAd?$AAi?$AAo?$AA_?$AAo?$AAu?$AAt?$AAp?$AAu?$AAt?$AA?3?$AA?3?$AAp?$AAo?$AAs?$AAi?$AAt?$AAi?$AAo?$AAn?$AAa?$AAl?$AA_?$AAp@ 004b83b8     libucrtd:output.obj
 0002:00009558       ??_C@_1EK@PNGFDECN@?$AA?$CI?$AA?$CC?$AA?8?$AAn?$AA?8?$AA?5?$AAf?$AAo?$AAr?$AAm?$AAa?$AAt?$AA?5?$AAs?$AAp?$AAe?$AAc?$AAi?$AAf?$AAi?$AAe?$AAr?$AA?5?$AAd?$AAi?$AAs?$AAa?$AAb?$AAl?$AAe?$AAd?$AA?$CC@ 004b8558     libucrtd:output.obj
 0002:000095b0       ??_C@_1BKI@NDKBCDGP@?$AA_?$AA_?$AAc?$AAr?$AAt?$AA_?$AAs?$AAt?$AAd?$AAi?$AAo?$AA_?$AAo?$AAu?$AAt?$AAp?$AAu?$AAt?$AA?3?$AA?3?$AAo?$AAu?$AAt?$AAp?$AAu?$AAt?$AA_?$AAp?$AAr?$AAo?$AAc?$AAe@ 004b85b0     libucrtd:output.obj
 0002:000097b0       ??_C@_1EO@GHKFGFKL@?$AA?$CI?$AA?$CC?$AAI?$AAn?$AAv?$AAa?$AAl?$AAi?$AAd?$AA?5?$AAi?$AAn?$AAt?$AAe?$AAg?$AAe?$AAr?$AA?5?$AAl?$AAe?$AAn?$AAg?$AAt?$AAh?$AA?5?$AAm?$AAo?$AAd?$AAi?$AAf?$AAi?$AAe@ 004b87b0     libucrtd:output.obj
 0002:00009810       ??_C@_1BMA@PGOJAHFP@?$AA_?$AA_?$AAc?$AAr?$AAt?$AA_?$AAs?$AAt?$AAd?$AAi?$AAo?$AA_?$AAo?$AAu?$AAt?$AAp?$AAu?$AAt?$AA?3?$AA?3?$AAo?$AAu?$AAt?$AAp?$AAu?$AAt?$AA_?$AAp?$AAr?$AAo?$AAc?$AAe@ 004b8810     libucrtd:output.obj
 0002:00009a30       ??_C@_1BLK@BGFMMAPO@?$AA_?$AA_?$AAc?$AAr?$AAt?$AA_?$AAs?$AAt?$AAd?$AAi?$AAo?$AA_?$AAo?$AAu?$AAt?$AAp?$AAu?$AAt?$AA?3?$AA?3?$AAo?$AAu?$AAt?$AAp?$AAu?$AAt?$AA_?$AAp?$AAr?$AAo?$AAc?$AAe@ 004b8a30     libucrtd:output.obj
 0002:00009c48       ??_C@_1BNC@DONELHFF@?$AA_?$AA_?$AAc?$AAr?$AAt?$AA_?$AAs?$AAt?$AAd?$AAi?$AAo?$AA_?$AAo?$AAu?$AAt?$AAp?$AAu?$AAt?$AA?3?$AA?3?$AAo?$AAu?$AAt?$AAp?$AAu?$AAt?$AA_?$AAp?$AAr?$AAo?$AAc?$AAe@ 004b8c48     libucrtd:output.obj
 0002:00009e78       ??_C@_1BMA@GACGPGHN@?$AA_?$AA_?$AAc?$AAr?$AAt?$AA_?$AAs?$AAt?$AAd?$AAi?$AAo?$AA_?$AAo?$AAu?$AAt?$AAp?$AAu?$AAt?$AA?3?$AA?3?$AAo?$AAu?$AAt?$AAp?$AAu?$AAt?$AA_?$AAp?$AAr?$AAo?$AAc?$AAe@ 004b8e78     libucrtd:output.obj
 0002:0000a098       ??_C@_1IC@KGDNLBNC@?$AAw?$AAi?$AAd?$AAt?$AAh?$AA_?$AAi?$AAn?$AAd?$AAe?$AAx?$AA?5?$AA?$DO?$AA?$DN?$AA?5?$AA0?$AA?5?$AA?$CG?$AA?$CG?$AA?5?$AA?$CK?$AAe?$AAn?$AAd?$AA_?$AAp?$AAo?$AAi?$AAn?$AAt?$AAe?$AAr@ 004b9098     libucrtd:output.obj
 0002:0000a138       ??_C@_1PO@LKIIANED@?$AA_?$AA_?$AAc?$AAr?$AAt?$AA_?$AAs?$AAt?$AAd?$AAi?$AAo?$AA_?$AAo?$AAu?$AAt?$AAp?$AAu?$AAt?$AA?3?$AA?3?$AAp?$AAo?$AAs?$AAi?$AAt?$AAi?$AAo?$AAn?$AAa?$AAl?$AA_?$AAp@ 004b9138     libucrtd:output.obj
 0002:0000a268       ??_C@_1JC@PMCLKCOC@?$AAp?$AAr?$AAe?$AAc?$AAi?$AAs?$AAi?$AAo?$AAn?$AA_?$AAi?$AAn?$AAd?$AAe?$AAx?$AA?5?$AA?$DO?$AA?$DN?$AA?5?$AA0?$AA?5?$AA?$CG?$AA?$CG?$AA?5?$AA?$CK?$AAe?$AAn?$AAd?$AA_?$AAp?$AAo?$AAi@ 004b9268     libucrtd:output.obj
 0002:0000a318       ??_C@_1PK@KBJECIEM@?$AA_?$AA_?$AAc?$AAr?$AAt?$AA_?$AAs?$AAt?$AAd?$AAi?$AAo?$AA_?$AAo?$AAu?$AAt?$AAp?$AAu?$AAt?$AA?3?$AA?3?$AAp?$AAo?$AAs?$AAi?$AAt?$AAi?$AAo?$AAn?$AAa?$AAl?$AA_?$AAp@ 004b9318     libucrtd:output.obj
 0002:0000a448       ??_C@_1BNI@IMOCDBNE@?$AA_?$AA_?$AAc?$AAr?$AAt?$AA_?$AAs?$AAt?$AAd?$AAi?$AAo?$AA_?$AAo?$AAu?$AAt?$AAp?$AAu?$AAt?$AA?3?$AA?3?$AAo?$AAu?$AAt?$AAp?$AAu?$AAt?$AA_?$AAp?$AAr?$AAo?$AAc?$AAe@ 004b9448     libucrtd:output.obj
 0002:0000a680       ??_C@_1BAK@DALINHHB@?$AA_?$AA_?$AAc?$AAr?$AAt?$AA_?$AAs?$AAt?$AAd?$AAi?$AAo?$AA_?$AAo?$AAu?$AAt?$AAp?$AAu?$AAt?$AA?3?$AA?3?$AAp?$AAo?$AAs?$AAi?$AAt?$AAi?$AAo?$AAn?$AAa?$AAl?$AA_?$AAp@ 004b9680     libucrtd:output.obj
 0002:0000a7c0       ??_C@_1BAG@DOFNHDMF@?$AA_?$AA_?$AAc?$AAr?$AAt?$AA_?$AAs?$AAt?$AAd?$AAi?$AAo?$AA_?$AAo?$AAu?$AAt?$AAp?$AAu?$AAt?$AA?3?$AA?3?$AAp?$AAo?$AAs?$AAi?$AAt?$AAi?$AAo?$AAn?$AAa?$AAl?$AA_?$AAp@ 004b97c0     libucrtd:output.obj
 0002:0000a900       ??_C@_1BKI@CJEIGDAI@?$AA_?$AA_?$AAc?$AAr?$AAt?$AA_?$AAs?$AAt?$AAd?$AAi?$AAo?$AA_?$AAo?$AAu?$AAt?$AAp?$AAu?$AAt?$AA?3?$AA?3?$AAo?$AAu?$AAt?$AAp?$AAu?$AAt?$AA_?$AAp?$AAr?$AAo?$AAc?$AAe@ 004b9900     libucrtd:output.obj
 0002:0000ab00       ??_C@_1BMA@IHIBOLMD@?$AA_?$AA_?$AAc?$AAr?$AAt?$AA_?$AAs?$AAt?$AAd?$AAi?$AAo?$AA_?$AAo?$AAu?$AAt?$AAp?$AAu?$AAt?$AA?3?$AA?3?$AAo?$AAu?$AAt?$AAp?$AAu?$AAt?$AA_?$AAp?$AAr?$AAo?$AAc?$AAe@ 004b9b00     libucrtd:output.obj
 0002:0000ad20       ??_C@_1BMA@CBPCAOAB@?$AA_?$AA_?$AAc?$AAr?$AAt?$AA_?$AAs?$AAt?$AAd?$AAi?$AAo?$AA_?$AAo?$AAu?$AAt?$AAp?$AAu?$AAt?$AA?3?$AA?3?$AAo?$AAu?$AAt?$AAp?$AAu?$AAt?$AA_?$AAp?$AAr?$AAo?$AAc?$AAe@ 004b9d20     libucrtd:output.obj
 0002:0000af40       ??_C@_1PO@PODEJAGE@?$AA_?$AA_?$AAc?$AAr?$AAt?$AA_?$AAs?$AAt?$AAd?$AAi?$AAo?$AA_?$AAo?$AAu?$AAt?$AAp?$AAu?$AAt?$AA?3?$AA?3?$AAp?$AAo?$AAs?$AAi?$AAt?$AAi?$AAo?$AAn?$AAa?$AAl?$AA_?$AAp@ 004b9f40     libucrtd:output.obj
 0002:0000b070       ??_C@_1PK@KBJLALII@?$AA_?$AA_?$AAc?$AAr?$AAt?$AA_?$AAs?$AAt?$AAd?$AAi?$AAo?$AA_?$AAo?$AAu?$AAt?$AAp?$AAu?$AAt?$AA?3?$AA?3?$AAp?$AAo?$AAs?$AAi?$AAt?$AAi?$AAo?$AAn?$AAa?$AAl?$AA_?$AAp@ 004ba070     libucrtd:output.obj
 0002:0000b1a0       ??_C@_1BDG@KOLEFKPF@?$AA_?$AA_?$AAc?$AAr?$AAt?$AA_?$AAs?$AAt?$AAd?$AAi?$AAo?$AA_?$AAo?$AAu?$AAt?$AAp?$AAu?$AAt?$AA?3?$AA?3?$AAf?$AAo?$AAr?$AAm?$AAa?$AAt?$AA_?$AAv?$AAa?$AAl?$AAi?$AAd@ 004ba1a0     libucrtd:output.obj
 0002:0000b318       ??_C@_1BNI@OPBGCNOB@?$AA_?$AA_?$AAc?$AAr?$AAt?$AA_?$AAs?$AAt?$AAd?$AAi?$AAo?$AA_?$AAo?$AAu?$AAt?$AAp?$AAu?$AAt?$AA?3?$AA?3?$AAo?$AAu?$AAt?$AAp?$AAu?$AAt?$AA_?$AAp?$AAr?$AAo?$AAc?$AAe@ 004ba318     libucrtd:output.obj
 0002:0000b550       ??_C@_1BAK@CDLANFGA@?$AA_?$AA_?$AAc?$AAr?$AAt?$AA_?$AAs?$AAt?$AAd?$AAi?$AAo?$AA_?$AAo?$AAu?$AAt?$AAp?$AAu?$AAt?$AA?3?$AA?3?$AAp?$AAo?$AAs?$AAi?$AAt?$AAi?$AAo?$AAn?$AAa?$AAl?$AA_?$AAp@ 004ba550     libucrtd:output.obj
 0002:0000b690       ??_C@_1BAG@GKCGGKOF@?$AA_?$AA_?$AAc?$AAr?$AAt?$AA_?$AAs?$AAt?$AAd?$AAi?$AAo?$AA_?$AAo?$AAu?$AAt?$AAp?$AAu?$AAt?$AA?3?$AA?3?$AAp?$AAo?$AAs?$AAi?$AAt?$AAi?$AAo?$AAn?$AAa?$AAl?$AA_?$AAp@ 004ba690     libucrtd:output.obj
 0002:0000b7d0       ??_C@_1BEC@NDOOKIMC@?$AA_?$AA_?$AAc?$AAr?$AAt?$AA_?$AAs?$AAt?$AAd?$AAi?$AAo?$AA_?$AAo?$AAu?$AAt?$AAp?$AAu?$AAt?$AA?3?$AA?3?$AAf?$AAo?$AAr?$AAm?$AAa?$AAt?$AA_?$AAv?$AAa?$AAl?$AAi?$AAd@ 004ba7d0     libucrtd:output.obj
 0002:0000b954       ??_C@_1CK@LGDCECDH@?$AA_?$AAf?$AAo?$AAr?$AAm?$AAa?$AAt?$AA_?$AAc?$AAh?$AAa?$AAr?$AA?5?$AA?$CB?$AA?$DN?$AA?5?$AA?8?$AA?2?$AA0?$AA?8?$AA?$AA@ 004ba954     libucrtd:output.obj
 0002:0000b988       ??_C@_1BMA@MEBEEDJE@?$AA_?$AA_?$AAc?$AAr?$AAt?$AA_?$AAs?$AAt?$AAd?$AAi?$AAo?$AA_?$AAo?$AAu?$AAt?$AAp?$AAu?$AAt?$AA?3?$AA?3?$AAo?$AAu?$AAt?$AAp?$AAu?$AAt?$AA_?$AAp?$AAr?$AAo?$AAc?$AAe@ 004ba988     libucrtd:output.obj
 0002:0000bba8       ??_C@_1BLE@MHLEAOID@?$AA_?$AA_?$AAc?$AAr?$AAt?$AA_?$AAs?$AAt?$AAd?$AAi?$AAo?$AA_?$AAo?$AAu?$AAt?$AAp?$AAu?$AAt?$AA?3?$AA?3?$AAo?$AAu?$AAt?$AAp?$AAu?$AAt?$AA_?$AAp?$AAr?$AAo?$AAc?$AAe@ 004baba8     libucrtd:output.obj
 0002:0000bdb4       ??_C@_06OJHGLDPL@?$CInull?$CJ?$AA@ 004badb4     libucrtd:output.obj
 0002:0000bdbc       ??_C@_1O@CEDCILHN@?$AA?$CI?$AAn?$AAu?$AAl?$AAl?$AA?$CJ?$AA?$AA@ 004badbc     libucrtd:output.obj
 0002:0000bdd0       ??_C@_1BMM@KANDEEGK@?$AA_?$AA_?$AAc?$AAr?$AAt?$AA_?$AAs?$AAt?$AAd?$AAi?$AAo?$AA_?$AAo?$AAu?$AAt?$AAp?$AAu?$AAt?$AA?3?$AA?3?$AAo?$AAu?$AAt?$AAp?$AAu?$AAt?$AA_?$AAp?$AAr?$AAo?$AAc?$AAe@ 004badd0     libucrtd:output.obj
 0002:0000bff8       ??_C@_1BNC@BAMNIOCM@?$AA_?$AA_?$AAc?$AAr?$AAt?$AA_?$AAs?$AAt?$AAd?$AAi?$AAo?$AA_?$AAo?$AAu?$AAt?$AAp?$AAu?$AAt?$AA?3?$AA?3?$AAo?$AAu?$AAt?$AAp?$AAu?$AAt?$AA_?$AAp?$AAr?$AAo?$AAc?$AAe@ 004baff8     libucrtd:output.obj
 0002:0000c228       ??_C@_1BMG@JJPLEEHI@?$AA_?$AA_?$AAc?$AAr?$AAt?$AA_?$AAs?$AAt?$AAd?$AAi?$AAo?$AA_?$AAo?$AAu?$AAt?$AAp?$AAu?$AAt?$AA?3?$AA?3?$AAo?$AAu?$AAt?$AAp?$AAu?$AAt?$AA_?$AAp?$AAr?$AAo?$AAc?$AAe@ 004bb228     libucrtd:output.obj
 0002:0000c448       ??_C@_1BNO@ILHNHKFA@?$AA_?$AA_?$AAc?$AAr?$AAt?$AA_?$AAs?$AAt?$AAd?$AAi?$AAo?$AA_?$AAo?$AAu?$AAt?$AAp?$AAu?$AAt?$AA?3?$AA?3?$AAo?$AAu?$AAt?$AAp?$AAu?$AAt?$AA_?$AAp?$AAr?$AAo?$AAc?$AAe@ 004bb448     libucrtd:output.obj
 0002:0000c688       ??_C@_1BNI@EJPCEBAG@?$AA_?$AA_?$AAc?$AAr?$AAt?$AA_?$AAs?$AAt?$AAd?$AAi?$AAo?$AA_?$AAo?$AAu?$AAt?$AAp?$AAu?$AAt?$AA?3?$AA?3?$AAo?$AAu?$AAt?$AAp?$AAu?$AAt?$AA_?$AAp?$AAr?$AAo?$AAc?$AAe@ 004bb688     libucrtd:output.obj
 0002:0000c8c0       ??_C@_1BMM@CMKPNHDJ@?$AA_?$AA_?$AAc?$AAr?$AAt?$AA_?$AAs?$AAt?$AAd?$AAi?$AAo?$AA_?$AAo?$AAu?$AAt?$AAp?$AAu?$AAt?$AA?3?$AA?3?$AAo?$AAu?$AAt?$AAp?$AAu?$AAt?$AA_?$AAp?$AAr?$AAo?$AAc?$AAe@ 004bb8c0     libucrtd:output.obj
 0002:0000cae8       ??_C@_1FE@IAFJEKN@?$AA_?$AAt?$AAy?$AAp?$AAe?$AA_?$AAi?$AAn?$AAd?$AAe?$AAx?$AA?5?$AA?$DO?$AA?$DN?$AA?5?$AA0?$AA?5?$AA?$CG?$AA?$CG?$AA?5?$AA_?$AAt?$AAy?$AAp?$AAe?$AA_?$AAi?$AAn?$AAd?$AAe?$AAx?$AA?5@ 004bbae8     libucrtd:output.obj
 0002:0000cb50       ??_C@_1BBG@JLLDGFML@?$AA_?$AA_?$AAc?$AAr?$AAt?$AA_?$AAs?$AAt?$AAd?$AAi?$AAo?$AA_?$AAo?$AAu?$AAt?$AAp?$AAu?$AAt?$AA?3?$AA?3?$AAp?$AAo?$AAs?$AAi?$AAt?$AAi?$AAo?$AAn?$AAa?$AAl?$AA_?$AAp@ 004bbb50     libucrtd:output.obj
 0002:0000cca0       ??_C@_1LO@HECDHMMI@?$AAi?$AAs?$AA_?$AAp?$AAo?$AAs?$AAi?$AAt?$AAi?$AAo?$AAn?$AAa?$AAl?$AA_?$AAp?$AAa?$AAr?$AAa?$AAm?$AAe?$AAt?$AAe?$AAr?$AA_?$AAr?$AAe?$AAa?$AAp?$AAp?$AAe?$AAa?$AAr@ 004bbca0     libucrtd:output.obj
 0002:0000cd88       ??_C@_1BBM@LLHBCDAF@?$AA_?$AA_?$AAc?$AAr?$AAt?$AA_?$AAs?$AAt?$AAd?$AAi?$AAo?$AA_?$AAo?$AAu?$AAt?$AAp?$AAu?$AAt?$AA?3?$AA?3?$AAp?$AAo?$AAs?$AAi?$AAt?$AAi?$AAo?$AAn?$AAa?$AAl?$AA_?$AAp@ 004bbd88     libucrtd:output.obj
 0002:0000cee0       ??_C@_1BOE@OMDELMGH@?$AA_?$AA_?$AAc?$AAr?$AAt?$AA_?$AAs?$AAt?$AAd?$AAi?$AAo?$AA_?$AAo?$AAu?$AAt?$AAp?$AAu?$AAt?$AA?3?$AA?3?$AAo?$AAu?$AAt?$AAp?$AAu?$AAt?$AA_?$AAp?$AAr?$AAo?$AAc?$AAe@ 004bbee0     libucrtd:output.obj
 0002:0000d128       ??_C@_1BCC@PDNLFIHK@?$AA_?$AA_?$AAc?$AAr?$AAt?$AA_?$AAs?$AAt?$AAd?$AAi?$AAo?$AA_?$AAo?$AAu?$AAt?$AAp?$AAu?$AAt?$AA?3?$AA?3?$AAp?$AAo?$AAs?$AAi?$AAt?$AAi?$AAo?$AAn?$AAa?$AAl?$AA_?$AAp@ 004bc128     libucrtd:output.obj
 0002:0000d288       ??_C@_1BCI@ILAANKJG@?$AA_?$AA_?$AAc?$AAr?$AAt?$AA_?$AAs?$AAt?$AAd?$AAi?$AAo?$AA_?$AAo?$AAu?$AAt?$AAp?$AAu?$AAt?$AA?3?$AA?3?$AAp?$AAo?$AAs?$AAi?$AAt?$AAi?$AAo?$AAn?$AAa?$AAl?$AA_?$AAp@ 004bc288     libucrtd:output.obj
 0002:0000d3f0       ??_C@_1BMA@FANDDEHK@?$AA_?$AA_?$AAc?$AAr?$AAt?$AA_?$AAs?$AAt?$AAd?$AAi?$AAo?$AA_?$AAo?$AAu?$AAt?$AAp?$AAu?$AAt?$AA?3?$AA?3?$AAo?$AAu?$AAt?$AAp?$AAu?$AAt?$AA_?$AAp?$AAr?$AAo?$AAc?$AAe@ 004bc3f0     libucrtd:output.obj
 0002:0000d610       ??_C@_1BLE@IFBJPNFE@?$AA_?$AA_?$AAc?$AAr?$AAt?$AA_?$AAs?$AAt?$AAd?$AAi?$AAo?$AA_?$AAo?$AAu?$AAt?$AAp?$AAu?$AAt?$AA?3?$AA?3?$AAo?$AAu?$AAt?$AAp?$AAu?$AAt?$AA_?$AAp?$AAr?$AAo?$AAc?$AAe@ 004bc610     libucrtd:output.obj
 0002:0000d820       ??_C@_1BMM@MBMBCJIF@?$AA_?$AA_?$AAc?$AAr?$AAt?$AA_?$AAs?$AAt?$AAd?$AAi?$AAo?$AA_?$AAo?$AAu?$AAt?$AAp?$AAu?$AAt?$AA?3?$AA?3?$AAo?$AAu?$AAt?$AAp?$AAu?$AAt?$AA_?$AAp?$AAr?$AAo?$AAc?$AAe@ 004bc820     libucrtd:output.obj
 0002:0000da48       ??_C@_1BNI@EDCGAPJB@?$AA_?$AA_?$AAc?$AAr?$AAt?$AA_?$AAs?$AAt?$AAd?$AAi?$AAo?$AA_?$AAo?$AAu?$AAt?$AAp?$AAu?$AAt?$AA?3?$AA?3?$AAo?$AAu?$AAt?$AAp?$AAu?$AAt?$AA_?$AAp?$AAr?$AAo?$AAc?$AAe@ 004bca48     libucrtd:output.obj
 0002:0000dc80       ??_C@_1BMM@KBPMKFBC@?$AA_?$AA_?$AAc?$AAr?$AAt?$AA_?$AAs?$AAt?$AAd?$AAi?$AAo?$AA_?$AAo?$AAu?$AAt?$AAp?$AAu?$AAt?$AA?3?$AA?3?$AAo?$AAu?$AAt?$AAp?$AAu?$AAt?$AA_?$AAp?$AAr?$AAo?$AAc?$AAe@ 004bcc80     libucrtd:output.obj
 0002:0000dea8       ??_C@_1BBG@KIHCHFIM@?$AA_?$AA_?$AAc?$AAr?$AAt?$AA_?$AAs?$AAt?$AAd?$AAi?$AAo?$AA_?$AAo?$AAu?$AAt?$AAp?$AAu?$AAt?$AA?3?$AA?3?$AAp?$AAo?$AAs?$AAi?$AAt?$AAi?$AAo?$AAn?$AAa?$AAl?$AA_?$AAp@ 004bcea8     libucrtd:output.obj
 0002:0000dff8       ??_C@_1BBM@CBBAFMPJ@?$AA_?$AA_?$AAc?$AAr?$AAt?$AA_?$AAs?$AAt?$AAd?$AAi?$AAo?$AA_?$AAo?$AAu?$AAt?$AAp?$AAu?$AAt?$AA?3?$AA?3?$AAp?$AAo?$AAs?$AAi?$AAt?$AAi?$AAo?$AAn?$AAa?$AAl?$AA_?$AAp@ 004bcff8     libucrtd:output.obj
 0002:0000e150       ??_C@_1BOE@LIBLDKPN@?$AA_?$AA_?$AAc?$AAr?$AAt?$AA_?$AAs?$AAt?$AAd?$AAi?$AAo?$AA_?$AAo?$AAu?$AAt?$AAp?$AAu?$AAt?$AA?3?$AA?3?$AAo?$AAu?$AAt?$AAp?$AAu?$AAt?$AA_?$AAp?$AAr?$AAo?$AAc?$AAe@ 004bd150     libucrtd:output.obj
 0002:0000e398       ??_C@_1BCC@GJLKCHIG@?$AA_?$AA_?$AAc?$AAr?$AAt?$AA_?$AAs?$AAt?$AAd?$AAi?$AAo?$AA_?$AAo?$AAu?$AAt?$AAp?$AAu?$AAt?$AA?3?$AA?3?$AAp?$AAo?$AAs?$AAi?$AAt?$AAi?$AAo?$AAn?$AAa?$AAl?$AA_?$AAp@ 004bd398     libucrtd:output.obj
 0002:0000e4f8       ??_C@_1BCI@OBMMNJKK@?$AA_?$AA_?$AAc?$AAr?$AAt?$AA_?$AAs?$AAt?$AAd?$AAi?$AAo?$AA_?$AAo?$AAu?$AAt?$AAp?$AAu?$AAt?$AA?3?$AA?3?$AAp?$AAo?$AAs?$AAi?$AAt?$AAi?$AAo?$AAn?$AAa?$AAl?$AA_?$AAp@ 004bd4f8     libucrtd:output.obj
 0002:0000e65c       ??_C@_0DI@KIFBHMNO@minkernel?2crts?2ucrt?2inc?2corecrt_@ 004bd65c     libucrtd:output.obj
 0002:0000e6a0       ??_C@_1BBE@FLKADCDA@?$AA_?$AA_?$AAc?$AAr?$AAt?$AA_?$AAs?$AAt?$AAd?$AAi?$AAo?$AA_?$AAo?$AAu?$AAt?$AAp?$AAu?$AAt?$AA?3?$AA?3?$AAp?$AAo?$AAs?$AAi?$AAt?$AAi?$AAo?$AAn?$AAa?$AAl?$AA_?$AAp@ 004bd6a0     libucrtd:output.obj
 0002:0000e7f0       ??_C@_1BCA@FCGNBIN@?$AA_?$AA_?$AAc?$AAr?$AAt?$AA_?$AAs?$AAt?$AAd?$AAi?$AAo?$AA_?$AAo?$AAu?$AAt?$AAp?$AAu?$AAt?$AA?3?$AA?3?$AAp?$AAo?$AAs?$AAi?$AAt?$AAi?$AAo?$AAn?$AAa?$AAl?$AA_?$AAp@ 004bd7f0     libucrtd:output.obj
 0002:0000e950       ??_C@_1BBE@IBPNPIIM@?$AA_?$AA_?$AAc?$AAr?$AAt?$AA_?$AAs?$AAt?$AAd?$AAi?$AAo?$AA_?$AAo?$AAu?$AAt?$AAp?$AAu?$AAt?$AA?3?$AA?3?$AAp?$AAo?$AAs?$AAi?$AAt?$AAi?$AAo?$AAn?$AAa?$AAl?$AA_?$AAp@ 004bd950     libucrtd:output.obj
 0002:0000eaa0       ??_C@_1BCA@HCPCJFGA@?$AA_?$AA_?$AAc?$AAr?$AAt?$AA_?$AAs?$AAt?$AAd?$AAi?$AAo?$AA_?$AAo?$AAu?$AAt?$AAp?$AAu?$AAt?$AA?3?$AA?3?$AAp?$AAo?$AAs?$AAi?$AAt?$AAi?$AAo?$AAn?$AAa?$AAl?$AA_?$AAp@ 004bdaa0     libucrtd:output.obj
 0002:0000ec00       ??_C@_1BLC@INKIGOCN@?$AA_?$AA_?$AAc?$AAr?$AAt?$AA_?$AAs?$AAt?$AAd?$AAi?$AAo?$AA_?$AAo?$AAu?$AAt?$AAp?$AAu?$AAt?$AA?3?$AA?3?$AAo?$AAu?$AAt?$AAp?$AAu?$AAt?$AA_?$AAp?$AAr?$AAo?$AAc?$AAe@ 004bdc00     libucrtd:output.obj
 0002:0000ee08       ??_C@_1BMK@JGIBNIA@?$AA_?$AA_?$AAc?$AAr?$AAt?$AA_?$AAs?$AAt?$AAd?$AAi?$AAo?$AA_?$AAo?$AAu?$AAt?$AAp?$AAu?$AAt?$AA?3?$AA?3?$AAo?$AAu?$AAt?$AAp?$AAu?$AAt?$AA_?$AAp?$AAr?$AAo?$AAc?$AAe@ 004bde08     libucrtd:output.obj
 0002:0000f030       ??_C@_1BMG@CGPDIFDK@?$AA_?$AA_?$AAc?$AAr?$AAt?$AA_?$AAs?$AAt?$AAd?$AAi?$AAo?$AA_?$AAo?$AAu?$AAt?$AAp?$AAu?$AAt?$AA?3?$AA?3?$AAo?$AAu?$AAt?$AAp?$AAu?$AAt?$AA_?$AAp?$AAr?$AAo?$AAc?$AAe@ 004be030     libucrtd:output.obj
 0002:0000f250       ??_C@_1BMC@FAGJFBLI@?$AA_?$AA_?$AAc?$AAr?$AAt?$AA_?$AAs?$AAt?$AAd?$AAi?$AAo?$AA_?$AAo?$AAu?$AAt?$AAp?$AAu?$AAt?$AA?3?$AA?3?$AAo?$AAu?$AAt?$AAp?$AAu?$AAt?$AA_?$AAp?$AAr?$AAo?$AAc?$AAe@ 004be250     libucrtd:output.obj
 0002:0000f470       ??_C@_1BNO@OHFFMOOJ@?$AA_?$AA_?$AAc?$AAr?$AAt?$AA_?$AAs?$AAt?$AAd?$AAi?$AAo?$AA_?$AAo?$AAu?$AAt?$AAp?$AAu?$AAt?$AA?3?$AA?3?$AAo?$AAu?$AAt?$AAp?$AAu?$AAt?$AA_?$AAp?$AAr?$AAo?$AAc?$AAe@ 004be470     libucrtd:output.obj
 0002:0000f6b0       ??_C@_1BNK@KHNJGCCP@?$AA_?$AA_?$AAc?$AAr?$AAt?$AA_?$AAs?$AAt?$AAd?$AAi?$AAo?$AA_?$AAo?$AAu?$AAt?$AAp?$AAu?$AAt?$AA?3?$AA?3?$AAo?$AAu?$AAt?$AAp?$AAu?$AAt?$AA_?$AAp?$AAr?$AAo?$AAc?$AAe@ 004be6b0     libucrtd:output.obj
 0002:0000f8e8       ??_C@_1BLK@FOLFMPJH@?$AA_?$AA_?$AAc?$AAr?$AAt?$AA_?$AAs?$AAt?$AAd?$AAi?$AAo?$AA_?$AAo?$AAu?$AAt?$AAp?$AAu?$AAt?$AA?3?$AA?3?$AAo?$AAu?$AAt?$AAp?$AAu?$AAt?$AA_?$AAp?$AAr?$AAo?$AAc?$AAe@ 004be8e8     libucrtd:output.obj
 0002:0000fb00       ??_C@_1BNC@OHPDPPJK@?$AA_?$AA_?$AAc?$AAr?$AAt?$AA_?$AAs?$AAt?$AAd?$AAi?$AAo?$AA_?$AAo?$AAu?$AAt?$AAp?$AAu?$AAt?$AA?3?$AA?3?$AAo?$AAu?$AAt?$AAp?$AAu?$AAt?$AA_?$AAp?$AAr?$AAo?$AAc?$AAe@ 004beb00     libucrtd:output.obj
 0002:0000fd30       ??_C@_1BNC@JPKLPOHO@?$AA_?$AA_?$AAc?$AAr?$AAt?$AA_?$AAs?$AAt?$AAd?$AAi?$AAo?$AA_?$AAo?$AAu?$AAt?$AAp?$AAu?$AAt?$AA?3?$AA?3?$AAo?$AAu?$AAt?$AAp?$AAu?$AAt?$AA_?$AAp?$AAr?$AAo?$AAc?$AAe@ 004bed30     libucrtd:output.obj
 0002:0000ff60       ??_C@_1BMG@BBEFGBID@?$AA_?$AA_?$AAc?$AAr?$AAt?$AA_?$AAs?$AAt?$AAd?$AAi?$AAo?$AA_?$AAo?$AAu?$AAt?$AAp?$AAu?$AAt?$AA?3?$AA?3?$AAo?$AAu?$AAt?$AAp?$AAu?$AAt?$AA_?$AAp?$AAr?$AAo?$AAc?$AAe@ 004bef60     libucrtd:output.obj
 0002:00010180       ??_C@_1BNO@NAODCKFA@?$AA_?$AA_?$AAc?$AAr?$AAt?$AA_?$AAs?$AAt?$AAd?$AAi?$AAo?$AA_?$AAo?$AAu?$AAt?$AAp?$AAu?$AAt?$AA?3?$AA?3?$AAo?$AAu?$AAt?$AAp?$AAu?$AAt?$AA_?$AAp?$AAr?$AAo?$AAc?$AAe@ 004bf180     libucrtd:output.obj
 0002:000103c0       _RtlNtPathSeperatorString  004bf3c0     libucrtd:exit.obj
 0002:000103cc       ??_C@_13FPGAJAPJ@?$AA?2?$AA?$AA@ 004bf3cc     libucrtd:exit.obj
 0002:000103d0       _RtlDosPathSeperatorsString 004bf3d0     libucrtd:exit.obj
 0002:000103dc       ??_C@_15MNCACJLI@?$AA?2?$AA?1?$AA?$AA@ 004bf3dc     libucrtd:exit.obj
 0002:000103e4       _RtlAlternateDosPathSeperatorString 004bf3e4     libucrtd:exit.obj
 0002:000103f0       ??_C@_13CGOKJPIL@?$AA?1?$AA?$AA@ 004bf3f0     libucrtd:exit.obj
 0002:000103f4       ??_C@_1BI@BGOHAHKC@?$AAm?$AAs?$AAc?$AAo?$AAr?$AAe?$AAe?$AA?4?$AAd?$AAl?$AAl?$AA?$AA@ 004bf3f4     libucrtd:exit.obj
 0002:00010410       ??_C@_0P@MIGLKIOC@CorExitProcess?$AA@ 004bf410     libucrtd:exit.obj
 0002:00010428       ??_C@_1EO@MBPFOEIP@?$AAb?$AAu?$AAf?$AAf?$AAe?$AAr?$AA?5?$AA?$CB?$AA?$DN?$AA?5?$AAn?$AAu?$AAl?$AAl?$AAp?$AAt?$AAr?$AA?5?$AA?$CG?$AA?$CG?$AA?5?$AAs?$AAi?$AAz?$AAe?$AA_?$AAi?$AAn?$AA_?$AAc?$AAh?$AAa@ 004bf428     libucrtd:ctime.obj
 0002:00010488       ??_C@_1FM@GNABIEEL@?$AAm?$AAi?$AAn?$AAk?$AAe?$AAr?$AAn?$AAe?$AAl?$AA?2?$AAc?$AAr?$AAt?$AAs?$AA?2?$AAu?$AAc?$AAr?$AAt?$AA?2?$AAs?$AAr?$AAc?$AA?2?$AAa?$AAp?$AAp?$AAc?$AAr?$AAt?$AA?2?$AAt@ 004bf488     libucrtd:ctime.obj
 0002:000104f8       ??_C@_1BO@IFLJMBPJ@?$AAc?$AAo?$AAm?$AAm?$AAo?$AAn?$AA_?$AAc?$AAt?$AAi?$AAm?$AAe?$AA_?$AAs?$AA?$AA@ 004bf4f8     libucrtd:ctime.obj
 0002:0001051c       ??_C@_1CI@DCHHDOEB@?$AAs?$AAi?$AAz?$AAe?$AA_?$AAi?$AAn?$AA_?$AAc?$AAh?$AAa?$AAr?$AAs?$AA?5?$AA?$DO?$AA?$DN?$AA?5?$AA2?$AA6?$AA?$AA@ 004bf51c     libucrtd:ctime.obj
 0002:0001054c       ??_C@_1DA@FIGBFGOM@?$AAt?$AAi?$AAm?$AAe?$AA_?$AAt?$AA_?$AAv?$AAa?$AAl?$AAu?$AAe?$AA?5?$AA?$CB?$AA?$DN?$AA?5?$AAn?$AAu?$AAl?$AAl?$AAp?$AAt?$AAr?$AA?$AA@ 004bf54c     libucrtd:ctime.obj
 0002:00010588       ??_C@_1BK@FFKKLBJF@?$AAc?$AAo?$AAm?$AAm?$AAo?$AAn?$AA_?$AAc?$AAt?$AAi?$AAm?$AAe?$AA?$AA@ 004bf588     libucrtd:ctime.obj
 0002:000105a8       ??_C@_1BM@DGNILAKJ@?$AAt?$AAs?$AA?5?$AA?$CB?$AA?$DN?$AA?5?$AAn?$AAu?$AAl?$AAl?$AAp?$AAt?$AAr?$AA?$AA@ 004bf5a8     libucrtd:time.obj
 0002:000105d0       ??_C@_1FK@PHFCCLNI@?$AAm?$AAi?$AAn?$AAk?$AAe?$AAr?$AAn?$AAe?$AAl?$AA?2?$AAc?$AAr?$AAt?$AAs?$AA?2?$AAu?$AAc?$AAr?$AAt?$AA?2?$AAs?$AAr?$AAc?$AA?2?$AAa?$AAp?$AAp?$AAc?$AAr?$AAt?$AA?2?$AAt@ 004bf5d0     libucrtd:time.obj
 0002:0001063c       ??_C@_1CI@PADPINCL@?$AAc?$AAo?$AAm?$AAm?$AAo?$AAn?$AA_?$AAt?$AAi?$AAm?$AAe?$AAs?$AAp?$AAe?$AAc?$AA_?$AAg?$AAe?$AAt?$AA?$AA@ 004bf63c     libucrtd:time.obj
 0002:00010788       ??_C@_03KHJOGHMM@exp?$AA@  004bf788     libucrtd:fpexcept.obj
 0002:0001078c       ??_C@_03JGHBODFD@pow?$AA@  004bf78c     libucrtd:fpexcept.obj
 0002:00010790       ??_C@_03MGHMBJCF@log?$AA@  004bf790     libucrtd:fpexcept.obj
 0002:00010794       ??_C@_05HGHHAHAP@log10?$AA@ 004bf794     libucrtd:fpexcept.obj
 0002:0001079c       ??_C@_04COOMCNPB@sinh?$AA@ 004bf79c     libucrtd:fpexcept.obj
 0002:000107a4       ??_C@_04HPJJNFIM@cosh?$AA@ 004bf7a4     libucrtd:fpexcept.obj
 0002:000107ac       ??_C@_04FJHINJAO@tanh?$AA@ 004bf7ac     libucrtd:fpexcept.obj
 0002:000107b4       ??_C@_04FIHNOPOL@asin?$AA@ 004bf7b4     libucrtd:fpexcept.obj
 0002:000107bc       ??_C@_04PDIFKINK@acos?$AA@ 004bf7bc     libucrtd:fpexcept.obj
 0002:000107c4       ??_C@_04MLLJIGOK@atan?$AA@ 004bf7c4     libucrtd:fpexcept.obj
 0002:000107cc       ??_C@_05KNGEOGJB@atan2?$AA@ 004bf7cc     libucrtd:fpexcept.obj
 0002:000107d4       ??_C@_04EIAKFFMI@sqrt?$AA@ 004bf7d4     libucrtd:fpexcept.obj
 0002:000107dc       ??_C@_03BLEJJJBH@sin?$AA@  004bf7dc     libucrtd:fpexcept.obj
 0002:000107e0       ??_C@_03LALBNOCG@cos?$AA@  004bf7e0     libucrtd:fpexcept.obj
 0002:000107e4       ??_C@_03IIINPABG@tan?$AA@  004bf7e4     libucrtd:fpexcept.obj
 0002:000107e8       ??_C@_04GFPJNGEK@ceil?$AA@ 004bf7e8     libucrtd:fpexcept.obj
 0002:000107f0       ??_C@_05PBJFFIGL@floor?$AA@ 004bf7f0     libucrtd:fpexcept.obj
 0002:000107f8       ??_C@_04ODHECPBC@fabs?$AA@ 004bf7f8     libucrtd:fpexcept.obj
 0002:00010800       ??_C@_04EHEDPDJG@modf?$AA@ 004bf800     libucrtd:fpexcept.obj
 0002:00010808       ??_C@_05CEJMAHNP@ldexp?$AA@ 004bf808     libucrtd:fpexcept.obj
 0002:00010810       ??_C@_05KBKMEMPO@_cabs?$AA@ 004bf810     libucrtd:fpexcept.obj
 0002:00010818       ??_C@_06MEIMCGCF@_hypot?$AA@ 004bf818     libucrtd:fpexcept.obj
 0002:00010820       ??_C@_04KEPJIHGP@fmod?$AA@ 004bf820     libucrtd:fpexcept.obj
 0002:00010828       ??_C@_05GKKHEGJL@frexp?$AA@ 004bf828     libucrtd:fpexcept.obj
 0002:00010830       ??_C@_03MJLDFKDL@_y0?$AA@  004bf830     libucrtd:fpexcept.obj
 0002:00010834       ??_C@_03NAKIGLHK@_y1?$AA@  004bf834     libucrtd:fpexcept.obj
 0002:00010838       ??_C@_03ONILCKOB@_yn?$AA@  004bf838     libucrtd:fpexcept.obj
 0002:0001083c       ??_C@_05JGDBENOH@_logb?$AA@ 004bf83c     libucrtd:fpexcept.obj
 0002:00010844       ??_C@_0L@KDOEJCKC@_nextafter?$AA@ 004bf844     libucrtd:fpexcept.obj
 0002:00010858       ___acrt_exception_action_table 004bf858     libucrtd:exception_filter.obj
 0002:00010904       ___acrt_signal_action_table_count 004bf904     libucrtd:exception_filter.obj
 0002:00010908       ___acrt_signal_action_table_size 004bf908     libucrtd:exception_filter.obj
 0002:0001090c       ___acrt_signal_action_first_fpe_index 004bf90c     libucrtd:exception_filter.obj
 0002:00010910       ___acrt_signal_action_fpe_count 004bf910     libucrtd:exception_filter.obj
 0002:00010918       ??_C@_1IC@DCNEKBE@?$AAm?$AAi?$AAn?$AAk?$AAe?$AAr?$AAn?$AAe?$AAl?$AA?2?$AAc?$AAr?$AAt?$AAs?$AA?2?$AAu?$AAc?$AAr?$AAt?$AA?2?$AAs?$AAr?$AAc?$AA?2?$AAa?$AAp?$AAp?$AAc?$AAr?$AAt?$AA?2?$AAi@ 004bf918     libucrtd:report_runtime_error.obj
 0002:000109b4       ??_C@_1DI@BLFJHKKP@?$AA_?$AA_?$AAa?$AAc?$AAr?$AAt?$AA_?$AAr?$AAe?$AAp?$AAo?$AAr?$AAt?$AA_?$AAr?$AAu?$AAn?$AAt?$AAi?$AAm?$AAe?$AA_?$AAe?$AAr?$AAr?$AAo?$AAr?$AA?$AA@ 004bf9b4     libucrtd:report_runtime_error.obj
 0002:000109f8       ??_C@_1LE@MHPGJGKE@?$AAw?$AAc?$AAs?$AAc?$AAp?$AAy?$AA_?$AAs?$AA?$CI?$AAo?$AAu?$AAt?$AAm?$AAs?$AAg?$AA?0?$AA?5?$AA?$CI?$AAs?$AAi?$AAz?$AAe?$AAo?$AAf?$AA?$CI?$AA?$CK?$AA_?$AA_?$AAc?$AAo?$AAu?$AAn@ 004bf9f8     libucrtd:report_runtime_error.obj
 0002:00010ad0       ??_C@_1DE@JNGNBFGO@?$AAR?$AAu?$AAn?$AAt?$AAi?$AAm?$AAe?$AA?5?$AAE?$AAr?$AAr?$AAo?$AAr?$AA?$CB?$AA?6?$AA?6?$AAP?$AAr?$AAo?$AAg?$AAr?$AAa?$AAm?$AA?3?$AA?5?$AA?$AA@ 004bfad0     libucrtd:report_runtime_error.obj
 0002:00010b10       ??_C@_1HK@FJJNAABO@?$AAw?$AAc?$AAs?$AAc?$AAp?$AAy?$AA_?$AAs?$AA?$CI?$AAp?$AAr?$AAo?$AAg?$AAn?$AAa?$AAm?$AAe?$AA?0?$AA?5?$AAp?$AAr?$AAo?$AAg?$AAn?$AAa?$AAm?$AAe?$AA_?$AAs?$AAi?$AAz?$AAe@ 004bfb10     libucrtd:report_runtime_error.obj
 0002:00010ba4       ??_C@_1CO@EAEJAADC@?$AA?$DM?$AAp?$AAr?$AAo?$AAg?$AAr?$AAa?$AAm?$AA?5?$AAn?$AAa?$AAm?$AAe?$AA?5?$AAu?$AAn?$AAk?$AAn?$AAo?$AAw?$AAn?$AA?$DO?$AA?$AA@ 004bfba4     libucrtd:report_runtime_error.obj
 0002:00010be0       ??_C@_1HI@FLHKGEBE@?$AAw?$AAc?$AAs?$AAn?$AAc?$AAp?$AAy?$AA_?$AAs?$AA?$CI?$AAp?$AAc?$AAh?$AA?0?$AA?5?$AAp?$AAr?$AAo?$AAg?$AAn?$AAa?$AAm?$AAe?$AA_?$AAs?$AAi?$AAz?$AAe?$AA?5?$AA?9?$AA?5?$AA?$CI@ 004bfbe0     libucrtd:report_runtime_error.obj
 0002:00010c70       ??_C@_17LGKOMLJ@?$AA?4?$AA?4?$AA?4?$AA?$AA@ 004bfc70     libucrtd:report_runtime_error.obj
 0002:00010c80       ??_C@_1IG@MNNKBLBI@?$AAw?$AAc?$AAs?$AAc?$AAa?$AAt?$AA_?$AAs?$AA?$CI?$AAo?$AAu?$AAt?$AAm?$AAs?$AAg?$AA?0?$AA?5?$AA?$CI?$AAs?$AAi?$AAz?$AAe?$AAo?$AAf?$AA?$CI?$AA?$CK?$AA_?$AA_?$AAc?$AAo?$AAu?$AAn@ 004bfc80     libucrtd:report_runtime_error.obj
 0002:00010d20       ??_C@_15IABLJNFO@?$AA?6?$AA?6?$AA?$AA@ 004bfd20     libucrtd:report_runtime_error.obj
 0002:00010d28       ??_C@_1IG@DFBBBDAN@?$AAw?$AAc?$AAs?$AAc?$AAa?$AAt?$AA_?$AAs?$AA?$CI?$AAo?$AAu?$AAt?$AAm?$AAs?$AAg?$AA?0?$AA?5?$AA?$CI?$AAs?$AAi?$AAz?$AAe?$AAo?$AAf?$AA?$CI?$AA?$CK?$AA_?$AA_?$AAc?$AAo?$AAu?$AAn@ 004bfd28     libucrtd:report_runtime_error.obj
 0002:00010dc8       ??_C@_1EK@MBDPDCGA@?$AAM?$AAi?$AAc?$AAr?$AAo?$AAs?$AAo?$AAf?$AAt?$AA?5?$AAV?$AAi?$AAs?$AAu?$AAa?$AAl?$AA?5?$AAC?$AA?$CL?$AA?$CL?$AA?5?$AAR?$AAu?$AAn?$AAt?$AAi?$AAm?$AAe?$AA?5?$AAL?$AAi?$AAb@ 004bfdc8     libucrtd:report_runtime_error.obj
 0002:00010e20       ??_C@_0DI@KNDIGDEP@minkernel?2crts?2ucrt?2src?2appcrt?2s@ 004bfe20     libucrtd:argv_parsing.obj
 0002:00010e68       ??_C@_1JO@PGBIJBAM@?$AAm?$AAo?$AAd?$AAe?$AA?5?$AA?$DN?$AA?$DN?$AA?5?$AA_?$AAc?$AAr?$AAt?$AA_?$AAa?$AAr?$AAg?$AAv?$AA_?$AAe?$AAx?$AAp?$AAa?$AAn?$AAd?$AAe?$AAd?$AA_?$AAa?$AAr?$AAg?$AAu?$AAm@ 004bfe68     libucrtd:argv_parsing.obj
 0002:00010f28       ??_C@_1HA@JMLCANEE@?$AAm?$AAi?$AAn?$AAk?$AAe?$AAr?$AAn?$AAe?$AAl?$AA?2?$AAc?$AAr?$AAt?$AAs?$AA?2?$AAu?$AAc?$AAr?$AAt?$AA?2?$AAs?$AAr?$AAc?$AA?2?$AAa?$AAp?$AAp?$AAc?$AAr?$AAt?$AA?2?$AAs@ 004bff28     libucrtd:argv_parsing.obj
 0002:00010fb0       ??_C@_1CM@LHOJELIC@?$AAc?$AAo?$AAm?$AAm?$AAo?$AAn?$AA_?$AAc?$AAo?$AAn?$AAf?$AAi?$AAg?$AAu?$AAr?$AAe?$AA_?$AAa?$AAr?$AAg?$AAv?$AA?$AA@ 004bffb0     libucrtd:argv_parsing.obj
 0002:00010fe8       ??_C@_0EG@LEHKHOEH@minkernel?2crts?2ucrt?2src?2desktopc@ 004bffe8     libucrtd:environment_initialization.obj
 0002:00011040       ??_C@_1IM@IMOFFPLG@?$AAm?$AAi?$AAn?$AAk?$AAe?$AAr?$AAn?$AAe?$AAl?$AA?2?$AAc?$AAr?$AAt?$AAs?$AA?2?$AAu?$AAc?$AAr?$AAt?$AA?2?$AAs?$AAr?$AAc?$AA?2?$AAd?$AAe?$AAs?$AAk?$AAt?$AAo?$AAp?$AAc@ 004c0040     libucrtd:environment_initialization.obj
 0002:000110e8       ??_C@_1CG@MNNNBNAK@?$AAc?$AAr?$AAe?$AAa?$AAt?$AAe?$AA_?$AAe?$AAn?$AAv?$AAi?$AAr?$AAo?$AAn?$AAm?$AAe?$AAn?$AAt?$AA?$AA@ 004c00e8     libucrtd:environment_initialization.obj
 0002:00011118       ??_C@_1HI@OOPIFFGA@?$AAt?$AAr?$AAa?$AAi?$AAt?$AAs?$AA?3?$AA?3?$AAt?$AAc?$AAs?$AAc?$AAp?$AAy?$AA_?$AAs?$AA?$CI?$AAv?$AAa?$AAr?$AAi?$AAa?$AAb?$AAl?$AAe?$AA?4?$AAg?$AAe?$AAt?$AA?$CI?$AA?$CJ?$AA?0@ 004c0118     libucrtd:environment_initialization.obj
 0002:000111a8       ??_C@_1MI@PNMMBOIN@?$AAm?$AAo?$AAd?$AAe?$AA?5?$AA?$DN?$AA?$DN?$AA?5?$AA_?$AAO?$AA_?$AAT?$AAE?$AAX?$AAT?$AA?5?$AA?$HM?$AA?$HM?$AA?5?$AAm?$AAo?$AAd?$AAe?$AA?5?$AA?$DN?$AA?$DN?$AA?5?$AA_?$AAO?$AA_?$AAB?$AAI@ 004c01a8     libucrtd:setmode.obj
 0002:00011298       ??_C@_1GC@CIJNGKLD@?$AAm?$AAi?$AAn?$AAk?$AAe?$AAr?$AAn?$AAe?$AAl?$AA?2?$AAc?$AAr?$AAt?$AAs?$AA?2?$AAu?$AAc?$AAr?$AAt?$AA?2?$AAs?$AAr?$AAc?$AA?2?$AAa?$AAp?$AAp?$AAc?$AAr?$AAt?$AA?2?$AAl@ 004c0298     libucrtd:setmode.obj
 0002:00011310       ??_C@_1BC@JBGGJDCM@?$AA_?$AAs?$AAe?$AAt?$AAm?$AAo?$AAd?$AAe?$AA?$AA@ 004c0310     libucrtd:setmode.obj
 0002:00011328       ??_C@_1FO@LPCLHKGE@?$AA?$CI?$AAf?$AAh?$AA?5?$AA?$DO?$AA?$DN?$AA?5?$AA0?$AA?5?$AA?$CG?$AA?$CG?$AA?5?$AA?$CI?$AAu?$AAn?$AAs?$AAi?$AAg?$AAn?$AAe?$AAd?$AA?$CJ?$AAf?$AAh?$AA?5?$AA?$DM?$AA?5?$AA?$CI?$AAu?$AAn?$AAs?$AAi@ 004c0328     libucrtd:setmode.obj
 0002:00011398       ??_C@_1CM@OKGMMMDH@?$AA?$CI?$AA_?$AAo?$AAs?$AAf?$AAi?$AAl?$AAe?$AA?$CI?$AAf?$AAh?$AA?$CJ?$AA?5?$AA?$CG?$AA?5?$AAF?$AAO?$AAP?$AAE?$AAN?$AA?$CJ?$AA?$AA@ 004c0398     libucrtd:setmode.obj
 0002:000113d0       ??_C@_1JE@ECKHFIFP@?$AA?$CI?$AA?$CC?$AAI?$AAn?$AAv?$AAa?$AAl?$AAi?$AAd?$AA?5?$AAf?$AAi?$AAl?$AAe?$AA?5?$AAd?$AAe?$AAs?$AAc?$AAr?$AAi?$AAp?$AAt?$AAo?$AAr?$AA?4?$AA?5?$AAF?$AAi?$AAl?$AAe?$AA?5@ 004c03d0     libucrtd:setmode.obj
 0002:00011488       ??_C@_1HC@GNDCDMJL@?$AAm?$AAo?$AAd?$AAe?$AA?5?$AA?$DN?$AA?$DN?$AA?5?$AA_?$AAO?$AA_?$AAT?$AAE?$AAX?$AAT?$AA?5?$AA?$HM?$AA?$HM?$AA?5?$AAm?$AAo?$AAd?$AAe?$AA?5?$AA?$DN?$AA?$DN?$AA?5?$AA_?$AAO?$AA_?$AAB?$AAI@ 004c0488     libucrtd:setmode.obj
 0002:00011510       ??_C@_1BG@IEEHLOCL@?$AA_?$AAs?$AAe?$AAt?$AA_?$AAf?$AAm?$AAo?$AAd?$AAe?$AA?$AA@ 004c0510     libucrtd:setmode.obj
 0002:0001152c       ??_C@_1CC@ODGEBJBO@?$AAp?$AAM?$AAo?$AAd?$AAe?$AA?5?$AA?$CB?$AA?$DN?$AA?5?$AAn?$AAu?$AAl?$AAl?$AAp?$AAt?$AAr?$AA?$AA@ 004c052c     libucrtd:setmode.obj
 0002:00011554       ??_C@_1BG@CKGMPOFH@?$AA_?$AAg?$AAe?$AAt?$AA_?$AAf?$AAm?$AAo?$AAd?$AAe?$AA?$AA@ 004c0554     libucrtd:setmode.obj
 0002:00011570       ??_C@_1GK@EMNILMBI@?$AAm?$AAi?$AAn?$AAk?$AAe?$AAr?$AAn?$AAe?$AAl?$AA?2?$AAc?$AAr?$AAt?$AAs?$AA?2?$AAu?$AAc?$AAr?$AAt?$AA?2?$AAs?$AAr?$AAc?$AA?2?$AAa?$AAp?$AAp?$AAc?$AAr?$AAt?$AA?2?$AAs@ 004c0570     libucrtd:argv_data.obj
 0002:000115f0       ??_C@_1BK@PNLDCCDP@?$AA_?$AAg?$AAe?$AAt?$AA_?$AAw?$AAp?$AAg?$AAm?$AAp?$AAt?$AAr?$AA?$AA@ 004c05f0     libucrtd:argv_data.obj
 0002:00011610       ??_C@_1CI@ENCADPBF@?$AA_?$AAw?$AAp?$AAg?$AAm?$AAp?$AAt?$AAr?$AA?5?$AA?$CB?$AA?$DN?$AA?5?$AAn?$AAu?$AAl?$AAl?$AAp?$AAt?$AAr?$AA?$AA@ 004c0610     libucrtd:argv_data.obj
 0002:00011640       ??_C@_1BI@COAAPHJK@?$AA_?$AAg?$AAe?$AAt?$AA_?$AAp?$AAg?$AAm?$AAp?$AAt?$AAr?$AA?$AA@ 004c0640     libucrtd:argv_data.obj
 0002:0001165c       ??_C@_1CG@CKJHPBDG@?$AA_?$AAp?$AAg?$AAm?$AAp?$AAt?$AAr?$AA?5?$AA?$CB?$AA?$DN?$AA?5?$AAn?$AAu?$AAl?$AAl?$AAp?$AAt?$AAr?$AA?$AA@ 004c065c     libucrtd:argv_data.obj
 0002:00011690       ___lc_category             004c0690     libucrtd:wsetlocale.obj
 0002:000116e8       ??_C@_1O@GIFLHMA@?$AAL?$AAC?$AA_?$AAA?$AAL?$AAL?$AA?$AA@ 004c06e8     libucrtd:wsetlocale.obj
 0002:000116f8       ??_C@_1BG@PPOMIBNJ@?$AAL?$AAC?$AA_?$AAC?$AAO?$AAL?$AAL?$AAA?$AAT?$AAE?$AA?$AA@ 004c06f8     libucrtd:wsetlocale.obj
 0002:00011714       ??_C@_1BC@FFJGAPJM@?$AAL?$AAC?$AA_?$AAC?$AAT?$AAY?$AAP?$AAE?$AA?$AA@ 004c0714     libucrtd:wsetlocale.obj
 0002:0001172c       ??_C@_1BI@PCKFNJFB@?$AAL?$AAC?$AA_?$AAM?$AAO?$AAN?$AAE?$AAT?$AAA?$AAR?$AAY?$AA?$AA@ 004c072c     libucrtd:wsetlocale.obj
 0002:00011748       ??_C@_1BG@ENIEDKID@?$AAL?$AAC?$AA_?$AAN?$AAU?$AAM?$AAE?$AAR?$AAI?$AAC?$AA?$AA@ 004c0748     libucrtd:wsetlocale.obj
 0002:00011764       ??_C@_1BA@HAAOMIIG@?$AAL?$AAC?$AA_?$AAT?$AAI?$AAM?$AAE?$AA?$AA@ 004c0764     libucrtd:wsetlocale.obj
 0002:00011810       ??_C@_1GA@LDEGDKD@?$AA?$CI?$AA?$CC?$AAI?$AAn?$AAv?$AAa?$AAl?$AAi?$AAd?$AA?5?$AAp?$AAa?$AAr?$AAa?$AAm?$AAe?$AAt?$AAe?$AAr?$AA?5?$AAf?$AAo?$AAr?$AA?5?$AA_?$AAc?$AAo?$AAn?$AAf?$AAi?$AAg?$AAt@ 004c0810     libucrtd:wsetlocale.obj
 0002:00011888       ??_C@_1GK@DPKNLBIE@?$AAm?$AAi?$AAn?$AAk?$AAe?$AAr?$AAn?$AAe?$AAl?$AA?2?$AAc?$AAr?$AAt?$AAs?$AA?2?$AAu?$AAc?$AAr?$AAt?$AA?2?$AAs?$AAr?$AAc?$AA?2?$AAa?$AAp?$AAp?$AAc?$AAr?$AAt?$AA?2?$AAl@ 004c0888     libucrtd:wsetlocale.obj
 0002:00011908       ??_C@_1CI@FGIONOJM@?$AA_?$AAc?$AAo?$AAn?$AAf?$AAi?$AAg?$AAt?$AAh?$AAr?$AAe?$AAa?$AAd?$AAl?$AAo?$AAc?$AAa?$AAl?$AAe?$AA?$AA@ 004c0908     libucrtd:wsetlocale.obj
 0002:00011938       ??_C@_0DF@MKMHJGEJ@minkernel?2crts?2ucrt?2src?2appcrt?2l@ 004c0938     libucrtd:wsetlocale.obj
 0002:00011978       ??_C@_1FG@OHLFEKMC@?$AAL?$AAC?$AA_?$AAM?$AAI?$AAN?$AA?5?$AA?$DM?$AA?$DN?$AA?5?$AA_?$AAc?$AAa?$AAt?$AAe?$AAg?$AAo?$AAr?$AAy?$AA?5?$AA?$CG?$AA?$CG?$AA?5?$AA_?$AAc?$AAa?$AAt?$AAe?$AAg?$AAo?$AAr?$AAy@ 004c0978     libucrtd:wsetlocale.obj
 0002:000119e0       ??_C@_1BI@KJNPAEHL@?$AA_?$AAw?$AAs?$AAe?$AAt?$AAl?$AAo?$AAc?$AAa?$AAl?$AAe?$AA?$AA@ 004c09e0     libucrtd:wsetlocale.obj
 0002:000119fc       ??_C@_15NBPDDFIP@?$AA?$DN?$AA?$DL?$AA?$AA@ 004c09fc     libucrtd:wsetlocale.obj
 0002:00011a04       ??_C@_13PJJBFPED@?$AA?$DL?$AA?$AA@ 004c0a04     libucrtd:wsetlocale.obj
 0002:00011a08       ??_C@_1CG@DKJCBBPP@?$AA_?$AAw?$AAs?$AAe?$AAt?$AAl?$AAo?$AAc?$AAa?$AAl?$AAe?$AA_?$AAn?$AAo?$AAl?$AAo?$AAc?$AAk?$AA?$AA@ 004c0a08     libucrtd:wsetlocale.obj
 0002:00011a38       ??_C@_1IG@NGDCPCDE@?$AAw?$AAc?$AAs?$AAn?$AAc?$AAp?$AAy?$AA_?$AAs?$AA?$CI?$AAl?$AAc?$AAt?$AAe?$AAm?$AAp?$AA?0?$AA?5?$AA?$CI?$AAs?$AAi?$AAz?$AAe?$AAo?$AAf?$AA?$CI?$AA?$CK?$AA_?$AA_?$AAc?$AAo?$AAu@ 004c0a38     libucrtd:wsetlocale.obj
 0002:00011ad8       ??_C@_1CI@ODOPEMNJ@?$AA_?$AAw?$AAs?$AAe?$AAt?$AAl?$AAo?$AAc?$AAa?$AAl?$AAe?$AA_?$AAs?$AAe?$AAt?$AA_?$AAc?$AAa?$AAt?$AA?$AA@ 004c0ad8     libucrtd:wsetlocale.obj
 0002:00011b08       ??_C@_1EM@MHOCNIAA@?$AAw?$AAc?$AAs?$AAc?$AAp?$AAy?$AA_?$AAs?$AA?$CI?$AAp?$AAc?$AAh?$AA_?$AAc?$AAa?$AAt?$AA_?$AAl?$AAo?$AAc?$AAa?$AAl?$AAe?$AA?0?$AA?5?$AAc?$AAc?$AAh?$AA?0?$AA?5?$AAl?$AAc@ 004c0b08     libucrtd:wsetlocale.obj
 0002:00011b64       ??_C@_13NMPKAAJP@?$AA?$DN?$AA?$AA@ 004c0b64     libucrtd:wsetlocale.obj
 0002:00011b68       ??_C@_1CI@LKOPFFBD@?$AA_?$AAw?$AAs?$AAe?$AAt?$AAl?$AAo?$AAc?$AAa?$AAl?$AAe?$AA_?$AAg?$AAe?$AAt?$AA_?$AAa?$AAl?$AAl?$AA?$AA@ 004c0b68     libucrtd:wsetlocale.obj
 0002:00011b98       ??_C@_1DC@HMLJMODP@?$AAw?$AAc?$AAs?$AAc?$AAa?$AAt?$AA_?$AAs?$AA?$CI?$AAp?$AAc?$AAh?$AA?0?$AA?5?$AAc?$AAc?$AAh?$AA?0?$AA?5?$AAL?$AA?$CC?$AA?$DL?$AA?$CC?$AA?$CJ?$AA?$AA@ 004c0b98     libucrtd:wsetlocale.obj
 0002:00011bd4       ??_C@_1BM@OIIBLEFG@?$AA_?$AAe?$AAx?$AAp?$AAa?$AAn?$AAd?$AAl?$AAo?$AAc?$AAa?$AAl?$AAe?$AA?$AA@ 004c0bd4     libucrtd:wsetlocale.obj
 0002:00011bf8       ??_C@_1BCM@BOFLACKH@?$AAw?$AAc?$AAs?$AAn?$AAc?$AAp?$AAy?$AA_?$AAs?$AA?$CI?$AAl?$AAo?$AAc?$AAa?$AAl?$AAe?$AAN?$AAa?$AAm?$AAe?$AAO?$AAu?$AAt?$AAp?$AAu?$AAt?$AA?0?$AA?5?$AAl?$AAo?$AAc?$AAa@ 004c0bf8     libucrtd:wsetlocale.obj
 0002:00011d60       ??_C@_1EI@OCINLCHN@?$AAw?$AAc?$AAs?$AAc?$AAp?$AAy?$AA_?$AAs?$AA?$CI?$AAo?$AAu?$AAt?$AAp?$AAu?$AAt?$AA?0?$AA?5?$AAs?$AAi?$AAz?$AAe?$AAI?$AAn?$AAC?$AAh?$AAa?$AAr?$AAs?$AA?0?$AA?5?$AAL?$AA?$CC@ 004c0d60     libucrtd:wsetlocale.obj
 0002:00011db8       ??_C@_13FHBKNHDA@?$AAC?$AA?$AA@ 004c0db8     libucrtd:wsetlocale.obj
 0002:00011dc0       ??_C@_1MO@NNCNEOAP@?$AAw?$AAc?$AAs?$AAn?$AAc?$AAp?$AAy?$AA_?$AAs?$AA?$CI?$AAl?$AAo?$AAc?$AAa?$AAl?$AAe?$AAN?$AAa?$AAm?$AAe?$AAO?$AAu?$AAt?$AAp?$AAu?$AAt?$AA?0?$AA?5?$AAl?$AAo?$AAc?$AAa@ 004c0dc0     libucrtd:wsetlocale.obj
 0002:00011eb8       ??_C@_1IG@MKDIEKFD@?$AAw?$AAc?$AAs?$AAn?$AAc?$AAp?$AAy?$AA_?$AAs?$AA?$CI?$AAc?$AAa?$AAc?$AAh?$AAe?$AAo?$AAu?$AAt?$AA?0?$AA?5?$AAc?$AAa?$AAc?$AAh?$AAe?$AAo?$AAu?$AAt?$AAL?$AAe?$AAn?$AA?0@ 004c0eb8     libucrtd:wsetlocale.obj
 0002:00011f58       ??_C@_1KK@KMIFPBBC@?$AAw?$AAc?$AAs?$AAn?$AAc?$AAp?$AAy?$AA_?$AAs?$AA?$CI?$AAl?$AAo?$AAc?$AAa?$AAl?$AAe?$AAN?$AAa?$AAm?$AAe?$AAO?$AAu?$AAt?$AAp?$AAu?$AAt?$AA?0?$AA?5?$AAl?$AAo?$AAc?$AAa@ 004c0f58     libucrtd:wsetlocale.obj
 0002:00012028       ??_C@_1BBO@MGLBPLBP@?$AAw?$AAc?$AAs?$AAn?$AAc?$AAp?$AAy?$AA_?$AAs?$AA?$CI?$AA_?$AAp?$AAs?$AAe?$AAt?$AAl?$AAo?$AAc?$AA_?$AAd?$AAa?$AAt?$AAa?$AA?9?$AA?$DO?$AA_?$AAc?$AAa?$AAc?$AAh?$AAe?$AAL@ 004c1028     libucrtd:wsetlocale.obj
 0002:00012180       ??_C@_1BDK@DHHMOMPJ@?$AAw?$AAc?$AAs?$AAn?$AAc?$AAp?$AAy?$AA_?$AAs?$AA?$CI?$AA_?$AAp?$AAs?$AAe?$AAt?$AAl?$AAo?$AAc?$AA_?$AAd?$AAa?$AAt?$AAa?$AA?9?$AA?$DO?$AA_?$AAc?$AAa?$AAc?$AAh?$AAe?$AAL@ 004c1180     libucrtd:wsetlocale.obj
 0002:000122f8       ??_C@_1IC@FCCDBGLL@?$AAw?$AAc?$AAs?$AAn?$AAc?$AAp?$AAy?$AA_?$AAs?$AA?$CI?$AAc?$AAa?$AAc?$AAh?$AAe?$AAi?$AAn?$AA?0?$AA?5?$AAc?$AAa?$AAc?$AAh?$AAe?$AAi?$AAn?$AAL?$AAe?$AAn?$AA?0?$AA?5?$AAe@ 004c12f8     libucrtd:wsetlocale.obj
 0002:00012398       ??_C@_1FA@HOOAAHFF@?$AAw?$AAc?$AAs?$AAc?$AAp?$AAy?$AA_?$AAs?$AA?$CI?$AAo?$AAu?$AAt?$AAp?$AAu?$AAt?$AA?0?$AA?5?$AAs?$AAi?$AAz?$AAe?$AAI?$AAn?$AAC?$AAh?$AAa?$AAr?$AAs?$AA?0?$AA?5?$AAc?$AAa@ 004c1398     libucrtd:wsetlocale.obj
 0002:000123f8       ??_C@_1BC@LEOKFFML@?$AA_?$AAw?$AAc?$AAs?$AAc?$AAa?$AAt?$AAs?$AA?$AA@ 004c13f8     libucrtd:wsetlocale.obj
 0002:00012410       ??_C@_1BHK@BGMBCJOP@?$AAw?$AAc?$AAs?$AAc?$AAa?$AAt?$AA_?$AAs?$AA?$CI?$AAo?$AAu?$AAt?$AAs?$AAt?$AAr?$AA?0?$AA?5?$AAn?$AAu?$AAm?$AAb?$AAe?$AAr?$AAO?$AAf?$AAE?$AAl?$AAe?$AAm?$AAe?$AAn?$AAt@ 004c1410     libucrtd:wsetlocale.obj
 0002:000125d8       ??_C@_1BK@GNCHCGCN@?$AA_?$AA_?$AAl?$AAc?$AA_?$AAw?$AAc?$AAs?$AAt?$AAo?$AAl?$AAc?$AA?$AA@ 004c15d8     libucrtd:wsetlocale.obj
 0002:000125f8       ??_C@_1MI@MGHKCMFH@?$AAw?$AAc?$AAs?$AAn?$AAc?$AAp?$AAy?$AA_?$AAs?$AA?$CI?$AAn?$AAa?$AAm?$AAe?$AAs?$AA?9?$AA?$DO?$AAs?$AAz?$AAC?$AAo?$AAd?$AAe?$AAP?$AAa?$AAg?$AAe?$AA?0?$AA?5?$AA?$CI?$AAs?$AAi@ 004c15f8     libucrtd:wsetlocale.obj
 0002:000126e8       ??_C@_17MBJJLFDM@?$AA_?$AA?4?$AA?0?$AA?$AA@ 004c16e8     libucrtd:wsetlocale.obj
 0002:000126f8       ??_C@_1LO@GGCCDNLJ@?$AAw?$AAc?$AAs?$AAn?$AAc?$AAp?$AAy?$AA_?$AAs?$AA?$CI?$AAn?$AAa?$AAm?$AAe?$AAs?$AA?9?$AA?$DO?$AAs?$AAz?$AAL?$AAa?$AAn?$AAg?$AAu?$AAa?$AAg?$AAe?$AA?0?$AA?5?$AA?$CI?$AAs?$AAi@ 004c16f8     libucrtd:wsetlocale.obj
 0002:000127e0       ??_C@_1LK@JOIOCOID@?$AAw?$AAc?$AAs?$AAn?$AAc?$AAp?$AAy?$AA_?$AAs?$AA?$CI?$AAn?$AAa?$AAm?$AAe?$AAs?$AA?9?$AA?$DO?$AAs?$AAz?$AAC?$AAo?$AAu?$AAn?$AAt?$AAr?$AAy?$AA?0?$AA?5?$AA?$CI?$AAs?$AAi?$AAz@ 004c17e0     libucrtd:wsetlocale.obj
 0002:000128c0       ??_C@_1LO@OJICFEP@?$AAw?$AAc?$AAs?$AAn?$AAc?$AAp?$AAy?$AA_?$AAs?$AA?$CI?$AAn?$AAa?$AAm?$AAe?$AAs?$AA?9?$AA?$DO?$AAs?$AAz?$AAC?$AAo?$AAd?$AAe?$AAP?$AAa?$AAg?$AAe?$AA?0?$AA?5?$AA?$CI?$AAs?$AAi@ 004c18c0     libucrtd:wsetlocale.obj
 0002:000129a4       ??_C@_1BK@HEBMGPEK@?$AA_?$AA_?$AAl?$AAc?$AA_?$AAl?$AAc?$AAt?$AAo?$AAw?$AAc?$AAs?$AA?$AA@ 004c19a4     libucrtd:wsetlocale.obj
 0002:000129c8       ??_C@_1GM@FOFMGOEK@?$AAw?$AAc?$AAs?$AAc?$AAp?$AAy?$AA_?$AAs?$AA?$CI?$AAl?$AAo?$AAc?$AAa?$AAl?$AAe?$AA?0?$AA?5?$AAn?$AAu?$AAm?$AAb?$AAe?$AAr?$AAO?$AAf?$AAE?$AAl?$AAe?$AAm?$AAe?$AAn?$AAt@ 004c19c8     libucrtd:wsetlocale.obj
 0002:00012a4c       ??_C@_13ENNFDPBH@?$AA_?$AA?$AA@ 004c1a4c     libucrtd:wsetlocale.obj
 0002:00012a50       ??_C@_13JOFGPIOO@?$AA?4?$AA?$AA@ 004c1a50     libucrtd:wsetlocale.obj
 0002:00012a54       ??_C@_1DA@BBIOOKDN@?$AA_?$AA_?$AAa?$AAc?$AAr?$AAt?$AA_?$AAc?$AAo?$AAp?$AAy?$AA_?$AAl?$AAo?$AAc?$AAa?$AAl?$AAe?$AA_?$AAn?$AAa?$AAm?$AAe?$AA?$AA@ 004c1a54     libucrtd:wsetlocale.obj
 0002:00012a90       ??_C@_1GI@HBNMCKGD@?$AAw?$AAc?$AAs?$AAn?$AAc?$AAp?$AAy?$AA_?$AAs?$AA?$CI?$AAl?$AAo?$AAc?$AAa?$AAl?$AAe?$AAN?$AAa?$AAm?$AAe?$AAC?$AAo?$AAp?$AAy?$AA?0?$AA?5?$AAc?$AAc?$AAh?$AA?$CL?$AA1?$AA?0@ 004c1a90     libucrtd:wsetlocale.obj
 0002:00012b0c       ??_C@_1CO@JKFLNGDK@?$AAm?$AAo?$AAd?$AAe?$AA?5?$AA?$DN?$AA?$DN?$AA?5?$AA0?$AA?5?$AA?$HM?$AA?$HM?$AA?5?$AAm?$AAo?$AAd?$AAe?$AA?5?$AA?$DN?$AA?$DN?$AA?5?$AA1?$AA?$AA@ 004c1b0c     libucrtd:new_mode.obj
 0002:00012b48       ??_C@_1GC@PJMKBHEK@?$AAm?$AAi?$AAn?$AAk?$AAe?$AAr?$AAn?$AAe?$AAl?$AA?2?$AAc?$AAr?$AAt?$AAs?$AA?2?$AAu?$AAc?$AAr?$AAt?$AA?2?$AAs?$AAr?$AAc?$AA?2?$AAa?$AAp?$AAp?$AAc?$AAr?$AAt?$AA?2?$AAh@ 004c1b48     libucrtd:new_mode.obj
 0002:00012bc0       ??_C@_1BM@PDPAKJNF@?$AA_?$AAs?$AAe?$AAt?$AA_?$AAn?$AAe?$AAw?$AA_?$AAm?$AAo?$AAd?$AAe?$AA?$AA@ 004c1bc0     libucrtd:new_mode.obj
 0002:00012be4       ??_C@_0DC@NBHMIIKL@minkernel?2crts?2ucrt?2src?2appcrt?2s@ 004c1be4     libucrtd:onexit.obj
 0002:00012cb0       ??_C@_1DG@JNDMIEJL@?$AA?$CI?$AA?$CC?$AAI?$AAn?$AAv?$AAa?$AAl?$AAi?$AAd?$AA?5?$AAi?$AAn?$AAp?$AAu?$AAt?$AA?5?$AAv?$AAa?$AAl?$AAu?$AAe?$AA?$CC?$AA?0?$AA?5?$AA0?$AA?$CJ?$AA?$AA@ 004c1cb0     libucrtd:contrlfp.obj
 0002:00012cf0       ??_C@_1FO@HHLKCIKB@?$AAm?$AAi?$AAn?$AAk?$AAe?$AAr?$AAn?$AAe?$AAl?$AA?2?$AAc?$AAr?$AAt?$AAs?$AA?2?$AAu?$AAc?$AAr?$AAt?$AA?2?$AAs?$AAr?$AAc?$AA?2?$AAa?$AAp?$AAp?$AAc?$AAr?$AAt?$AA?2?$AAt@ 004c1cf0     libucrtd:contrlfp.obj
 0002:00012d60       ??_C@_1BK@CDOALEA@?$AA_?$AAc?$AAo?$AAn?$AAt?$AAr?$AAo?$AAl?$AAf?$AAp?$AA_?$AAs?$AA?$AA@ 004c1d60     libucrtd:contrlfp.obj
 0002:00012d98       ??_C@_04HJMOFLDF@Free?$AA@ 004c1d98     libucrtd:debug_heap.obj
 0002:00012da0       ??_C@_06EFAGIKOH@Normal?$AA@ 004c1da0     libucrtd:debug_heap.obj
 0002:00012da8       ??_C@_03OGPFLFLO@CRT?$AA@  004c1da8     libucrtd:debug_heap.obj
 0002:00012dac       ??_C@_06KMEJCCGM@Ignore?$AA@ 004c1dac     libucrtd:debug_heap.obj
 0002:00012db4       ??_C@_06PJIGMIJB@Client?$AA@ 004c1db4     libucrtd:debug_heap.obj
 0002:00012dbc       ??_C@_1CE@LJFEPPMP@?$AA_?$AAC?$AAr?$AAt?$AAC?$AAh?$AAe?$AAc?$AAk?$AAM?$AAe?$AAm?$AAo?$AAr?$AAy?$AA?$CI?$AA?$CJ?$AA?$AA@ 004c1dbc     libucrtd:debug_heap.obj
 0002:00012de8       ??_C@_1GG@OCLHPJPK@?$AAm?$AAi?$AAn?$AAk?$AAe?$AAr?$AAn?$AAe?$AAl?$AA?2?$AAc?$AAr?$AAt?$AAs?$AA?2?$AAu?$AAc?$AAr?$AAt?$AA?2?$AAs?$AAr?$AAc?$AA?2?$AAa?$AAp?$AAp?$AAc?$AAr?$AAt?$AA?2?$AAh@ 004c1de8     libucrtd:debug_heap.obj
 0002:00012e64       ??_C@_0DF@BBEGIFEK@Client?5hook?5allocation?5failure?5a@ 004c1e64     libucrtd:debug_heap.obj
 0002:00012ea4       ??_C@_0CB@CCLOLAHO@Client?5hook?5allocation?5failure?4?6@ 004c1ea4     libucrtd:debug_heap.obj
 0002:00012ecc       ??_C@_02DKCKIIND@?$CFs?$AA@ 004c1ecc     libucrtd:debug_heap.obj
 0002:00012ed0       ??_C@_0DC@JEMAGEKG@Error?3?5memory?5allocation?3?5bad?5me@ 004c1ed0     libucrtd:debug_heap.obj
 0002:00012f0c       ??_C@_0DI@KKJPDPGM@Client?5hook?5re?9allocation?5failur@ 004c1f0c     libucrtd:debug_heap.obj
 0002:00012f50       ??_C@_0CE@DOFMDOL@Client?5hook?5re?9allocation?5failur@ 004c1f50     libucrtd:debug_heap.obj
 0002:00012f80       ??_C@_0FA@EFEIGJKG@Error?3?5memory?5allocation?3?5bad?5me@ 004c1f80     libucrtd:debug_heap.obj
 0002:00012fe0       ??_C@_0EM@LGFLMAGJ@The?5Block?5at?50x?$CFp?5was?5allocated?5@ 004c1fe0     libucrtd:debug_heap.obj
 0002:0001303c       ??_C@_1DM@DEDLGNML@?$AA_?$AAC?$AAr?$AAt?$AAI?$AAs?$AAV?$AAa?$AAl?$AAi?$AAd?$AAH?$AAe?$AAa?$AAp?$AAP?$AAo?$AAi?$AAn?$AAt?$AAe?$AAr?$AA?$CI?$AAb?$AAl?$AAo?$AAc?$AAk?$AA?$CJ?$AA?$AA@ 004c203c     libucrtd:debug_heap.obj
 0002:00013088       ??_C@_1PC@MCGKJLN@?$AAo?$AAl?$AAd?$AA_?$AAh?$AAe?$AAa?$AAd?$AA?9?$AA?$DO?$AA_?$AAl?$AAi?$AAn?$AAe?$AA_?$AAn?$AAu?$AAm?$AAb?$AAe?$AAr?$AA?5?$AA?$DN?$AA?$DN?$AA?5?$AAl?$AAi?$AAn?$AAe?$AA_?$AAn@ 004c2088     libucrtd:debug_heap.obj
 0002:000131ac       ??_C@_0DA@HFBKENN@Error?3?5possible?5heap?5corruption?5@ 004c21ac     libucrtd:debug_heap.obj
 0002:000131e8       ??_C@_1JM@MCMEPJEP@?$AAr?$AAe?$AAa?$AAl?$AAl?$AAo?$AAc?$AAa?$AAt?$AAi?$AAo?$AAn?$AA_?$AAi?$AAs?$AA_?$AAa?$AAl?$AAl?$AAo?$AAw?$AAe?$AAd?$AA?5?$AA?$HM?$AA?$HM?$AA?5?$AA?$CI?$AA?$CB?$AAr?$AAe?$AAa@ 004c21e8     libucrtd:debug_heap.obj
 0002:000132a4       ??_C@_1DM@LNOPKAIJ@?$AA_?$AA_?$AAa?$AAc?$AAr?$AAt?$AA_?$AAl?$AAa?$AAs?$AAt?$AA_?$AAb?$AAl?$AAo?$AAc?$AAk?$AA?5?$AA?$DN?$AA?$DN?$AA?5?$AAo?$AAl?$AAd?$AA_?$AAh?$AAe?$AAa?$AAd?$AA?$AA@ 004c22a4     libucrtd:debug_heap.obj
 0002:000132ec       ??_C@_1DO@HABCJBHO@?$AA_?$AA_?$AAa?$AAc?$AAr?$AAt?$AA_?$AAf?$AAi?$AAr?$AAs?$AAt?$AA_?$AAb?$AAl?$AAo?$AAc?$AAk?$AA?5?$AA?$DN?$AA?$DN?$AA?5?$AAo?$AAl?$AAd?$AA_?$AAh?$AAe?$AAa?$AAd?$AA?$AA@ 004c22ec     libucrtd:debug_heap.obj
 0002:00013338       ??_C@_1CC@CKEAHJPH@?$AAb?$AAl?$AAo?$AAc?$AAk?$AA?5?$AA?$CB?$AA?$DN?$AA?5?$AAn?$AAu?$AAl?$AAl?$AAp?$AAt?$AAr?$AA?$AA@ 004c2338     libucrtd:debug_heap.obj
 0002:00013360       ??_C@_1BI@HAPNGHDP@?$AA_?$AAe?$AAx?$AAp?$AAa?$AAn?$AAd?$AA_?$AAd?$AAb?$AAg?$AA?$AA@ 004c2360     libucrtd:debug_heap.obj
 0002:00013380       ??_C@_0EJ@HEIBCIMJ@The?5Block?5at?50x?$CFp?5was?5allocated?5@ 004c2380     libucrtd:debug_heap.obj
 0002:000133d8       ??_C@_0BL@KEIPLFAC@Client?5hook?5free?5failure?4?6?$AA@ 004c23d8     libucrtd:debug_heap.obj
 0002:000133f8       ??_C@_1FA@KDNEBILF@?$AAi?$AAs?$AA_?$AAb?$AAl?$AAo?$AAc?$AAk?$AA_?$AAt?$AAy?$AAp?$AAe?$AA_?$AAv?$AAa?$AAl?$AAi?$AAd?$AA?$CI?$AAh?$AAe?$AAa?$AAd?$AAe?$AAr?$AA?9?$AA?$DO?$AA_?$AAb?$AAl?$AAo@ 004c23f8     libucrtd:debug_heap.obj
 0002:00013458       ??_C@_0KI@JGFOHMEB@HEAP?5CORRUPTION?5DETECTED?3?5before@ 004c2458     libucrtd:debug_heap.obj
 0002:00013528       ??_C@_0IK@PJCGLBOB@HEAP?5CORRUPTION?5DETECTED?3?5before@ 004c2528     libucrtd:debug_heap.obj
 0002:000135d0       ??_C@_0KE@MBMNHHHN@HEAP?5CORRUPTION?5DETECTED?3?5after?5@ 004c25d0     libucrtd:debug_heap.obj
 0002:00013698       ??_C@_0IG@LEMBDCJK@HEAP?5CORRUPTION?5DETECTED?3?5after?5@ 004c2698     libucrtd:debug_heap.obj
 0002:00013738       ??_C@_1OK@GFEOEJAF@?$AAh?$AAe?$AAa?$AAd?$AAe?$AAr?$AA?9?$AA?$DO?$AA_?$AAl?$AAi?$AAn?$AAe?$AA_?$AAn?$AAu?$AAm?$AAb?$AAe?$AAr?$AA?5?$AA?$DN?$AA?$DN?$AA?5?$AAl?$AAi?$AAn?$AAe?$AA_?$AAn?$AAu?$AAm@ 004c2738     libucrtd:debug_heap.obj
 0002:00013850       ??_C@_1ME@GFALMLNA@?$AAh?$AAe?$AAa?$AAd?$AAe?$AAr?$AA?9?$AA?$DO?$AA_?$AAb?$AAl?$AAo?$AAc?$AAk?$AA_?$AAu?$AAs?$AAe?$AA?5?$AA?$DN?$AA?$DN?$AA?5?$AAb?$AAl?$AAo?$AAc?$AAk?$AA_?$AAu?$AAs?$AAe?$AA?5@ 004c2850     libucrtd:debug_heap.obj
 0002:0001393c       ??_C@_1DI@ILNOPEPI@?$AA_?$AA_?$AAa?$AAc?$AAr?$AAt?$AA_?$AAl?$AAa?$AAs?$AAt?$AA_?$AAb?$AAl?$AAo?$AAc?$AAk?$AA?5?$AA?$DN?$AA?$DN?$AA?5?$AAh?$AAe?$AAa?$AAd?$AAe?$AAr?$AA?$AA@ 004c293c     libucrtd:debug_heap.obj
 0002:00013980       ??_C@_1DK@KEHFGDIJ@?$AA_?$AA_?$AAa?$AAc?$AAr?$AAt?$AA_?$AAf?$AAi?$AAr?$AAs?$AAt?$AA_?$AAb?$AAl?$AAo?$AAc?$AAk?$AA?5?$AA?$DN?$AA?$DN?$AA?5?$AAh?$AAe?$AAa?$AAd?$AAe?$AAr?$AA?$AA@ 004c2980     libucrtd:debug_heap.obj
 0002:000139c8       ??_C@_1BG@MBKOGDLD@?$AA_?$AAm?$AAs?$AAi?$AAz?$AAe?$AA_?$AAd?$AAb?$AAg?$AA?$AA@ 004c29c8     libucrtd:debug_heap.obj
 0002:000139e4       ??_C@_07OHKEFPKJ@DAMAGED?$AA@ 004c29e4     libucrtd:debug_heap.obj
 0002:000139f0       ??_C@_0KA@IHNJJKPL@HEAP?5CORRUPTION?5DETECTED?3?5on?5top@ 004c29f0     libucrtd:debug_heap.obj
 0002:00013ab0       ??_C@_0IC@BBJIOOJH@HEAP?5CORRUPTION?5DETECTED?3?5on?5top@ 004c2ab0     libucrtd:debug_heap.obj
 0002:00013b50       ??_C@_0EG@DGJMPDBH@?$CFhs?5located?5at?50x?$CFp?5is?5?$CFIu?5bytes@ 004c2b50     libucrtd:debug_heap.obj
 0002:00013ba4       ??_C@_0CI@JMLBEDHJ@?$CFhs?5located?5at?50x?$CFp?5is?5?$CFIu?5bytes@ 004c2ba4     libucrtd:debug_heap.obj
 0002:00013bd8       ??_C@_0EG@GPFHANHO@Cycle?5in?5block?5list?5detected?5whi@ 004c2bd8     libucrtd:debug_heap.obj
 0002:00013c2c       ??_C@_0BJ@ELMAOCAJ@Heap?5validation?5failed?4?6?$AA@ 004c2c2c     libucrtd:debug_heap.obj
 0002:00013c50       ??_C@_1IE@BBIFDGEB@?$AAn?$AAe?$AAw?$AA_?$AAb?$AAi?$AAt?$AAs?$AA?5?$AA?$DN?$AA?$DN?$AA?5?$AA_?$AAC?$AAR?$AAT?$AAD?$AAB?$AAG?$AA_?$AAR?$AAE?$AAP?$AAO?$AAR?$AAT?$AA_?$AAF?$AAL?$AAA?$AAG?$AA?5@ 004c2c50     libucrtd:debug_heap.obj
 0002:00013cf0       ??_C@_1BO@GJFDNMNF@?$AA_?$AAC?$AAr?$AAt?$AAS?$AAe?$AAt?$AAD?$AAb?$AAg?$AAF?$AAl?$AAa?$AAg?$AA?$AA@ 004c2cf0     libucrtd:debug_heap.obj
 0002:00013d14       ??_C@_1CI@CEIBPAIA@?$AAc?$AAa?$AAl?$AAl?$AAb?$AAa?$AAc?$AAk?$AA?5?$AA?$CB?$AA?$DN?$AA?5?$AAn?$AAu?$AAl?$AAl?$AAp?$AAt?$AAr?$AA?$AA@ 004c2d14     libucrtd:debug_heap.obj
 0002:00013d44       ??_C@_1DE@GJCKCKEC@?$AA_?$AAC?$AAr?$AAt?$AAD?$AAo?$AAF?$AAo?$AAr?$AAA?$AAl?$AAl?$AAC?$AAl?$AAi?$AAe?$AAn?$AAt?$AAO?$AAb?$AAj?$AAe?$AAc?$AAt?$AAs?$AA?$AA@ 004c2d44     libucrtd:debug_heap.obj
 0002:00013d84       ??_C@_1CC@BBKMONGA@?$AAs?$AAt?$AAa?$AAt?$AAe?$AA?5?$AA?$CB?$AA?$DN?$AA?5?$AAn?$AAu?$AAl?$AAl?$AAp?$AAt?$AAr?$AA?$AA@ 004c2d84     libucrtd:debug_heap.obj
 0002:00013dac       ??_C@_1CE@NJJKELF@?$AA_?$AAC?$AAr?$AAt?$AAM?$AAe?$AAm?$AAC?$AAh?$AAe?$AAc?$AAk?$AAp?$AAo?$AAi?$AAn?$AAt?$AA?$AA@ 004c2dac     libucrtd:debug_heap.obj
 0002:00013dd8       ??_C@_0DP@LEFMFBOD@Bad?5memory?5block?5found?5at?50x?$CFp?4?6@ 004c2dd8     libucrtd:debug_heap.obj
 0002:00013e24       ??_C@_0CB@EAAIGELO@Bad?5memory?5block?5found?5at?50x?$CFp?4?6@ 004c2e24     libucrtd:debug_heap.obj
 0002:00013e4c       ??_C@_1CE@PDIENACM@?$AA_?$AAC?$AAr?$AAt?$AAM?$AAe?$AAm?$AAD?$AAi?$AAf?$AAf?$AAe?$AAr?$AAe?$AAn?$AAc?$AAe?$AA?$AA@ 004c2e4c     libucrtd:debug_heap.obj
 0002:00013e78       ??_C@_1CK@FFKLBHMD@?$AAo?$AAl?$AAd?$AA_?$AAs?$AAt?$AAa?$AAt?$AAe?$AA?5?$AA?$CB?$AA?$DN?$AA?5?$AAn?$AAu?$AAl?$AAl?$AAp?$AAt?$AAr?$AA?$AA@ 004c2e78     libucrtd:debug_heap.obj
 0002:00013eac       ??_C@_1CK@NJPPHDJP@?$AAn?$AAe?$AAw?$AA_?$AAs?$AAt?$AAa?$AAt?$AAe?$AA?5?$AA?$CB?$AA?$DN?$AA?5?$AAn?$AAu?$AAl?$AAl?$AAp?$AAt?$AAr?$AA?$AA@ 004c2eac     libucrtd:debug_heap.obj
 0002:00013ee0       ??_C@_05MKKEDADM@?$CF?42X?5?$AA@ 004c2ee0     libucrtd:debug_heap.obj
 0002:00013ee8       ??_C@_1CC@DIJAHFFJ@?$AAp?$AAr?$AAi?$AAn?$AAt?$AA_?$AAb?$AAl?$AAo?$AAc?$AAk?$AA_?$AAd?$AAa?$AAt?$AAa?$AA?$AA@ 004c2ee8     libucrtd:debug_heap.obj
 0002:00013f10       ??_C@_1BI@KALLJECN@?$AA?$CI?$AA?$CK?$AA_?$AAe?$AAr?$AAr?$AAn?$AAo?$AA?$CI?$AA?$CJ?$AA?$CJ?$AA?$AA@ 004c2f10     libucrtd:debug_heap.obj
 0002:00013f2c       ??_C@_0BA@HJBKCELP@?5Data?3?5?$DM?$CFs?$DO?5?$CFs?6?$AA@ 004c2f2c     libucrtd:debug_heap.obj
 0002:00013f40       ??_C@_0BE@KCIPKCIA@Dumping?5objects?5?9?$DO?6?$AA@ 004c2f40     libucrtd:debug_heap.obj
 0002:00013f58       ??_C@_0BE@OIEFNFL@?$CDFile?5Error?$CD?$CI?$CFd?$CJ?5?3?5?$AA@ 004c2f58     libucrtd:debug_heap.obj
 0002:00013f70       ??_C@_0L@JMEFFCCJ@?$CFhs?$CI?$CFd?$CJ?5?3?5?$AA@ 004c2f70     libucrtd:debug_heap.obj
 0002:00013f80       ??_C@_06PKLGBFGM@?$HL?$CFld?$HN?5?$AA@ 004c2f80     libucrtd:debug_heap.obj
 0002:00013f88       ??_C@_0DD@GHNAAKBB@client?5block?5at?50x?$CFp?0?5subtype?5?$CFx@ 004c2f88     libucrtd:debug_heap.obj
 0002:00013fc8       ??_C@_0CH@FAGDDGPN@normal?5block?5at?50x?$CFp?0?5?$CFIu?5bytes?5@ 004c2fc8     libucrtd:debug_heap.obj
 0002:00013ff8       ??_C@_0DA@MDLBNIBM@crt?5block?5at?50x?$CFp?0?5subtype?5?$CFx?0?5?$CF@ 004c2ff8     libucrtd:debug_heap.obj
 0002:00014034       ??_C@_0BH@GFGKJDCO@Object?5dump?5complete?4?6?$AA@ 004c3034     libucrtd:debug_heap.obj
 0002:00014050       ??_C@_0BI@JBFPOEJA@Detected?5memory?5leaks?$CB?6?$AA@ 004c3050     libucrtd:debug_heap.obj
 0002:0001406c       ??_C@_1CM@MPNIBKGK@?$AA_?$AAC?$AAr?$AAt?$AAM?$AAe?$AAm?$AAD?$AAu?$AAm?$AAp?$AAS?$AAt?$AAa?$AAt?$AAi?$AAs?$AAt?$AAi?$AAc?$AAs?$AA?$AA@ 004c306c     libucrtd:debug_heap.obj
 0002:000140a0       ??_C@_0BO@DACNIABB@?$CFId?5bytes?5in?5?$CFId?5?$CFhs?5Blocks?4?6?$AA@ 004c30a0     libucrtd:debug_heap.obj
 0002:000140c4       ??_C@_0CB@BLHDAFNE@Largest?5number?5used?3?5?$CFId?5bytes?4?6@ 004c30c4     libucrtd:debug_heap.obj
 0002:000140ec       ??_C@_0BP@DEDHGGGI@Total?5allocations?3?5?$CFId?5bytes?4?6?$AA@ 004c30ec     libucrtd:debug_heap.obj
 0002:00014114       ??_C@_1CM@JKMDHENJ@?$AAI?$AAS?$AA_?$AA2?$AA_?$AAP?$AAO?$AAW?$AA_?$AAN?$AA?$CI?$AAa?$AAl?$AAi?$AAg?$AAn?$AAm?$AAe?$AAn?$AAt?$AA?$CJ?$AA?$AA@ 004c3114     libucrtd:debug_heap.obj
 0002:00014148       ??_C@_1DG@DONCJBBJ@?$AA_?$AAa?$AAl?$AAi?$AAg?$AAn?$AAe?$AAd?$AA_?$AAo?$AAf?$AAf?$AAs?$AAe?$AAt?$AA_?$AAm?$AAa?$AAl?$AAl?$AAo?$AAc?$AA_?$AAd?$AAb?$AAg?$AA?$AA@ 004c3148     libucrtd:debug_heap.obj
 0002:00014188       ??_C@_1DK@LFLKFPDA@?$AAo?$AAf?$AAf?$AAs?$AAe?$AAt?$AA?5?$AA?$DN?$AA?$DN?$AA?5?$AA0?$AA?5?$AA?$HM?$AA?$HM?$AA?5?$AAo?$AAf?$AAf?$AAs?$AAe?$AAt?$AA?5?$AA?$DM?$AA?5?$AAs?$AAi?$AAz?$AAe?$AA?$AA@ 004c3188     libucrtd:debug_heap.obj
 0002:000141d0       ??_C@_0EI@NDNJMAJK@The?5block?5at?50x?$CFp?5was?5not?5alloca@ 004c31d0     libucrtd:debug_heap.obj
 0002:00014228       ??_C@_0DL@PGHMMKNE@Damage?5before?50x?$CFp?5which?5was?5all@ 004c3228     libucrtd:debug_heap.obj
 0002:00014270       ??_C@_1DI@NINIKFFK@?$AA_?$AAa?$AAl?$AAi?$AAg?$AAn?$AAe?$AAd?$AA_?$AAo?$AAf?$AAf?$AAs?$AAe?$AAt?$AA_?$AAr?$AAe?$AAa?$AAl?$AAl?$AAo?$AAc?$AA_?$AAd?$AAb?$AAg?$AA?$AA@ 004c3270     libucrtd:debug_heap.obj
 0002:000142b4       ??_C@_1CG@CEGMHIMN@?$AA_?$AAa?$AAl?$AAi?$AAg?$AAn?$AAe?$AAd?$AA_?$AAm?$AAs?$AAi?$AAz?$AAe?$AA_?$AAd?$AAb?$AAg?$AA?$AA@ 004c32b4     libucrtd:debug_heap.obj
 0002:000142e8       ??_C@_0EF@PGELACII@The?5block?5at?50x?$CFp?5was?5not?5alloca@ 004c32e8     libucrtd:debug_heap.obj
 0002:00014340       ??_C@_1GI@BBAEIKL@?$AA?$CI?$AA?$CI?$AAd?$AAe?$AAs?$AAt?$AAi?$AAn?$AAa?$AAt?$AAi?$AAo?$AAn?$AA?$CJ?$AA?$CJ?$AA?5?$AA?$CB?$AA?$DN?$AA?5?$AAN?$AAU?$AAL?$AAL?$AA?5?$AA?$CG?$AA?$CG?$AA?5?$AA?$CI?$AA?$CI?$AAs?$AAi?$AAz@ 004c3340     libucrtd:strcpy_s.obj
 0002:000143c0       ??_C@_1HI@PBJPCEBC@?$AAm?$AAi?$AAn?$AAk?$AAe?$AAr?$AAn?$AAe?$AAl?$AA?2?$AAc?$AAr?$AAt?$AAs?$AA?2?$AAu?$AAc?$AAr?$AAt?$AA?2?$AAi?$AAn?$AAc?$AA?2?$AAc?$AAo?$AAr?$AAe?$AAc?$AAr?$AAt?$AA_@ 004c33c0     libucrtd:strcpy_s.obj
 0002:00014450       ??_C@_1CA@FHIAGDFH@?$AAc?$AAo?$AAm?$AAm?$AAo?$AAn?$AA_?$AAt?$AAc?$AAs?$AAc?$AAp?$AAy?$AA_?$AAs?$AA?$AA@ 004c3450     libucrtd:strcpy_s.obj
 0002:00014478       ??_C@_1CK@EIOKGPJL@?$AA?$CI?$AA?$CI?$AA?$CI?$AAs?$AAo?$AAu?$AAr?$AAc?$AAe?$AA?$CJ?$AA?$CJ?$AA?$CJ?$AA?5?$AA?$CB?$AA?$DN?$AA?5?$AAN?$AAU?$AAL?$AAL?$AA?$AA@ 004c3478     libucrtd:strcpy_s.obj
 0002:000144ac       ??_C@_1CI@HCPHDDLE@?$AAB?$AAu?$AAf?$AAf?$AAe?$AAr?$AA?5?$AAi?$AAs?$AA?5?$AAt?$AAo?$AAo?$AA?5?$AAs?$AAm?$AAa?$AAl?$AAl?$AA?$AA@ 004c34ac     libucrtd:strcpy_s.obj
 0002:000144dc       ??_C@_1DM@MADKGDLO@?$AA?$CI?$AAL?$AA?$CC?$AAB?$AAu?$AAf?$AAf?$AAe?$AAr?$AA?5?$AAi?$AAs?$AA?5?$AAt?$AAo?$AAo?$AA?5?$AAs?$AAm?$AAa?$AAl?$AAl?$AA?$CC?$AA?5?$AA?$CG?$AA?$CG?$AA?5?$AA0?$AA?$CJ?$AA?$AA@ 004c34dc     libucrtd:strcpy_s.obj
 0002:00014524       ??_C@_1DA@LLLMNMKI@?$AAa?$AAb?$AAo?$AAr?$AAt?$AA?$CI?$AA?$CJ?$AA?5?$AAh?$AAa?$AAs?$AA?5?$AAb?$AAe?$AAe?$AAn?$AA?5?$AAc?$AAa?$AAl?$AAl?$AAe?$AAd?$AA?$AA@ 004c3524     libucrtd:abort.obj
 0002:00014570       ??_C@_1BA@GLMCNLEM@?$AAW?$AAa?$AAr?$AAn?$AAi?$AAn?$AAg?$AA?$AA@ 004c3570     libucrtd:dbgrpt.obj
 0002:00014584       ??_C@_1M@ILHOPKA@?$AAE?$AAr?$AAr?$AAo?$AAr?$AA?$AA@ 004c3584     libucrtd:dbgrpt.obj
 0002:00014594       ??_C@_1CC@CGHMNGDG@?$AAA?$AAs?$AAs?$AAe?$AAr?$AAt?$AAi?$AAo?$AAn?$AA?5?$AAF?$AAa?$AAi?$AAl?$AAe?$AAd?$AA?$AA@ 004c3594     libucrtd:dbgrpt.obj
 0002:000145c0       ??_C@_1OG@PMPPFHAF@?$AA?6?$AA?6?$AAF?$AAo?$AAr?$AA?5?$AAi?$AAn?$AAf?$AAo?$AAr?$AAm?$AAa?$AAt?$AAi?$AAo?$AAn?$AA?5?$AAo?$AAn?$AA?5?$AAh?$AAo?$AAw?$AA?5?$AAy?$AAo?$AAu?$AAr?$AA?5?$AAp?$AAr@ 004c35c0     libucrtd:dbgrpt.obj
 0002:000146d8       ??_C@_1MG@LJLILFFD@?$AAD?$AAe?$AAb?$AAu?$AAg?$AA?5?$AA?$CF?$AAl?$AAs?$AA?$CB?$AA?6?$AA?6?$AAP?$AAr?$AAo?$AAg?$AAr?$AAa?$AAm?$AA?3?$AA?5?$AA?$CF?$AAh?$AAs?$AA?$CF?$AAl?$AAs?$AA?$CF?$AAl?$AAs?$AA?$CF?$AAh@ 004c36d8     libucrtd:dbgrpt.obj
 0002:000147c8       ??_C@_1MG@OODCADGL@?$AAD?$AAe?$AAb?$AAu?$AAg?$AA?5?$AA?$CF?$AAl?$AAs?$AA?$CB?$AA?6?$AA?6?$AAP?$AAr?$AAo?$AAg?$AAr?$AAa?$AAm?$AA?3?$AA?5?$AA?$CF?$AAl?$AAs?$AA?$CF?$AAl?$AAs?$AA?$CF?$AAl?$AAs?$AA?$CF?$AAl@ 004c37c8     libucrtd:dbgrpt.obj
 0002:000148b8       ??_C@_0BH@DNAGHKFM@?$DMprogram?5name?5unknown?$DO?$AA@ 004c38b8     libucrtd:dbgrpt.obj
 0002:000148d8       ??_C@_1HI@OFEHGPPC@?$AAm?$AAo?$AAd?$AAe?$AA?5?$AA?$DN?$AA?$DN?$AA?5?$AA_?$AAC?$AAR?$AAT?$AA_?$AAR?$AAP?$AAT?$AAH?$AAO?$AAO?$AAK?$AA_?$AAI?$AAN?$AAS?$AAT?$AAA?$AAL?$AAL?$AA?5?$AA?$HM?$AA?$HM?$AA?5@ 004c38d8     libucrtd:dbgrpt.obj
 0002:00014968       ??_C@_1FO@GMJDLAJD@?$AAm?$AAi?$AAn?$AAk?$AAe?$AAr?$AAn?$AAe?$AAl?$AA?2?$AAc?$AAr?$AAt?$AAs?$AA?2?$AAu?$AAc?$AAr?$AAt?$AA?2?$AAs?$AAr?$AAc?$AA?2?$AAa?$AAp?$AAp?$AAc?$AAr?$AAt?$AA?2?$AAm@ 004c3968     libucrtd:dbgrpt.obj
 0002:000149d8       ??_C@_1CO@FFNKOJOG@?$AAc?$AAo?$AAm?$AAm?$AAo?$AAn?$AA_?$AAs?$AAe?$AAt?$AA_?$AAr?$AAe?$AAp?$AAo?$AAr?$AAt?$AA_?$AAh?$AAo?$AAo?$AAk?$AA?$AA@ 004c39d8     libucrtd:dbgrpt.obj
 0002:00014a10       ??_C@_1CI@ONEHFNHD@?$AAn?$AAe?$AAw?$AA_?$AAh?$AAo?$AAo?$AAk?$AA?5?$AA?$CB?$AA?$DN?$AA?5?$AAn?$AAu?$AAl?$AAl?$AAp?$AAt?$AAr?$AA?$AA@ 004c3a10     libucrtd:dbgrpt.obj
 0002:00014a40       ??_C@_1CM@EHMOGBJJ@?$AAc?$AAo?$AAm?$AAm?$AAo?$AAn?$AA_?$AAm?$AAe?$AAs?$AAs?$AAa?$AAg?$AAe?$AA_?$AAw?$AAi?$AAn?$AAd?$AAo?$AAw?$AA?$AA@ 004c3a40     libucrtd:dbgrpt.obj
 0002:00014a78       ??_C@_1PE@ECNALGCA@?$AAt?$AAr?$AAa?$AAi?$AAt?$AAs?$AA?3?$AA?3?$AAt?$AAc?$AAs?$AAc?$AAp?$AAy?$AA_?$AAs?$AA?$CI?$AAp?$AAr?$AAo?$AAg?$AAr?$AAa?$AAm?$AA_?$AAn?$AAa?$AAm?$AAe?$AA?0?$AA?5?$AA?$CI@ 004c3a78     libucrtd:dbgrpt.obj
 0002:00014ba0       ??_C@_11LOCGONAA@?$AA?$AA@ 004c3ba0     libucrtd:dbgrpt.obj
 0002:00014ba4       ??_C@_1BK@PEDCIPMA@?$AAE?$AAx?$AAp?$AAr?$AAe?$AAs?$AAs?$AAi?$AAo?$AAn?$AA?3?$AA?5?$AA?$AA@ 004c3ba4     libucrtd:dbgrpt.obj
 0002:00014bc4       ??_C@_1BA@GLLGCPCK@?$AA?6?$AAL?$AAi?$AAn?$AAe?$AA?3?$AA?5?$AA?$AA@ 004c3bc4     libucrtd:dbgrpt.obj
 0002:00014bd8       ??_C@_1BA@LNHECFIM@?$AA?6?$AAF?$AAi?$AAl?$AAe?$AA?3?$AA?5?$AA?$AA@ 004c3bd8     libucrtd:dbgrpt.obj
 0002:00014bec       ??_C@_1BE@CGCJKGHI@?$AA?6?$AAM?$AAo?$AAd?$AAu?$AAl?$AAe?$AA?3?$AA?5?$AA?$AA@ 004c3bec     libucrtd:dbgrpt.obj
 0002:00014c08       ??_C@_1JM@IBOIJEOO@?$AAw?$AAc?$AAs?$AAc?$AAp?$AAy?$AA_?$AAs?$AA?$CI?$AAm?$AAe?$AAs?$AAs?$AAa?$AAg?$AAe?$AA_?$AAb?$AAu?$AAf?$AAf?$AAe?$AAr?$AA?0?$AA?5?$AA4?$AA0?$AA9?$AA6?$AA?0?$AA?5?$AAL@ 004c3c08     libucrtd:dbgrpt.obj
 0002:00014cc8       ??_C@_1FG@BBOLDHGF@?$AA_?$AAC?$AAr?$AAt?$AAD?$AAb?$AAg?$AAR?$AAe?$AAp?$AAo?$AAr?$AAt?$AA?3?$AA?5?$AAS?$AAt?$AAr?$AAi?$AAn?$AAg?$AA?5?$AAt?$AAo?$AAo?$AA?5?$AAl?$AAo?$AAn?$AAg?$AA?5?$AAo@ 004c3cc8     libucrtd:dbgrpt.obj
 0002:00014d38       ??_C@_1FK@BNNDOGMN@?$AA?$CI?$AA?$CC?$AAT?$AAh?$AAe?$AA?5?$AAh?$AAo?$AAo?$AAk?$AA?5?$AAf?$AAu?$AAn?$AAc?$AAt?$AAi?$AAo?$AAn?$AA?5?$AAi?$AAs?$AA?5?$AAn?$AAo?$AAt?$AA?5?$AAi?$AAn?$AA?5?$AAt?$AAh@ 004c3d38     libucrtd:dbgrpt.obj
 0002:00014da4       ??_C@_0CP@HDJNPEFB@minkernel?2crts?2ucrt?2src?2appcrt?2m@ 004c3da4     libucrtd:dbgrpt.obj
 0002:00014ddc       __Fenv0                    004c3ddc     libucrtd:atox.obj
 0002:00014de8       ??_C@_1GE@DPGDJKLM@?$AAm?$AAi?$AAn?$AAk?$AAe?$AAr?$AAn?$AAe?$AAl?$AA?2?$AAc?$AAr?$AAt?$AAs?$AA?2?$AAu?$AAc?$AAr?$AAt?$AA?2?$AAi?$AAn?$AAc?$AA?2?$AAc?$AAo?$AAr?$AAe?$AAc?$AAr?$AAt?$AA_@ 004c3de8     libucrtd:atox.obj
 0002:00014e60       ??_C@_1EO@MLJCKPIB@?$AAb?$AAa?$AAs?$AAe?$AA?5?$AA?$DN?$AA?$DN?$AA?5?$AA0?$AA?5?$AA?$HM?$AA?$HM?$AA?5?$AA?$CI?$AA2?$AA?5?$AA?$DM?$AA?$DN?$AA?5?$AAb?$AAa?$AAs?$AAe?$AA?5?$AA?$CG?$AA?$CG?$AA?5?$AAb?$AAa?$AAs?$AAe?$AA?5@ 004c3e60     libucrtd:atox.obj
 0002:00014ec0       ??_C@_1DI@BANODKFL@?$AA_?$AA_?$AAc?$AAr?$AAt?$AA_?$AAs?$AAt?$AAr?$AAt?$AAo?$AAx?$AA?3?$AA?3?$AAp?$AAa?$AAr?$AAs?$AAe?$AA_?$AAi?$AAn?$AAt?$AAe?$AAg?$AAe?$AAr?$AA?$AA@ 004c3ec0     libucrtd:atox.obj
 0002:00014f04       ??_C@_1BM@PNEBBBDO@?$AA_?$AAp?$AA?5?$AA?$CB?$AA?$DN?$AA?5?$AAn?$AAu?$AAl?$AAl?$AAp?$AAt?$AAr?$AA?$AA@ 004c3f04     libucrtd:atox.obj
 0002:00014f28       ??_C@_1HA@MKKIHBHP@?$AA_?$AA_?$AAc?$AAr?$AAt?$AA_?$AAs?$AAt?$AAr?$AAt?$AAo?$AAx?$AA?3?$AA?3?$AAc?$AA_?$AAs?$AAt?$AAr?$AAi?$AAn?$AAg?$AA_?$AAc?$AAh?$AAa?$AAr?$AAa?$AAc?$AAt?$AAe?$AAr@ 004c3f28     libucrtd:atox.obj
 0002:00014fb0       ??_C@_1CM@GJENOOEJ@?$AAc?$AA?5?$AA?$DN?$AA?$DN?$AA?5?$AA?8?$AA?2?$AA0?$AA?8?$AA?5?$AA?$HM?$AA?$HM?$AA?5?$AA?$CK?$AA_?$AAp?$AA?5?$AA?$DN?$AA?$DN?$AA?5?$AAc?$AA?$AA@ 004c3fb0     libucrtd:atox.obj
 0002:00014fe8       ??_C@_1GK@MNHIDABG@?$AA_?$AA_?$AAc?$AAr?$AAt?$AA_?$AAs?$AAt?$AAr?$AAt?$AAo?$AAx?$AA?3?$AA?3?$AAc?$AA_?$AAs?$AAt?$AAr?$AAi?$AAn?$AAg?$AA_?$AAc?$AAh?$AAa?$AAr?$AAa?$AAc?$AAt?$AAe?$AAr@ 004c3fe8     libucrtd:atox.obj
 0002:00015068       ??_C@_1HG@FCDBLOEG@?$AA_?$AA_?$AAc?$AAr?$AAt?$AA_?$AAs?$AAt?$AAr?$AAt?$AAo?$AAx?$AA?3?$AA?3?$AAc?$AA_?$AAs?$AAt?$AAr?$AAi?$AAn?$AAg?$AA_?$AAc?$AAh?$AAa?$AAr?$AAa?$AAc?$AAt?$AAe?$AAr@ 004c4068     libucrtd:atox.obj
 0002:000150f8       ??_C@_1HA@CONLANFI@?$AA_?$AA_?$AAc?$AAr?$AAt?$AA_?$AAs?$AAt?$AAr?$AAt?$AAo?$AAx?$AA?3?$AA?3?$AAc?$AA_?$AAs?$AAt?$AAr?$AAi?$AAn?$AAg?$AA_?$AAc?$AAh?$AAa?$AAr?$AAa?$AAc?$AAt?$AAe?$AAr@ 004c40f8     libucrtd:atox.obj
 0002:00015330       ??_C@_1FM@MJJGEFKM@?$AAm?$AAi?$AAn?$AAk?$AAe?$AAr?$AAn?$AAe?$AAl?$AA?2?$AAc?$AAr?$AAt?$AAs?$AA?2?$AAu?$AAc?$AAr?$AAt?$AA?2?$AAs?$AAr?$AAc?$AA?2?$AAa?$AAp?$AAp?$AAc?$AAr?$AAt?$AA?2?$AAm@ 004c4330     libucrtd:errno.obj
 0002:000153a0       ??_C@_1BG@KCMPBBDK@?$AA_?$AAg?$AAe?$AAt?$AA_?$AAe?$AAr?$AAr?$AAn?$AAo?$AA?$AA@ 004c43a0     libucrtd:errno.obj
 0002:000153bc       ??_C@_1BM@INIPHHDD@?$AA_?$AAg?$AAe?$AAt?$AA_?$AAd?$AAo?$AAs?$AAe?$AAr?$AAr?$AAn?$AAo?$AA?$AA@ 004c43bc     libucrtd:errno.obj
 0002:00015440       ??_C@_1EG@CNNIPFIM@?$AAa?$AAp?$AAi?$AA?9?$AAm?$AAs?$AA?9?$AAw?$AAi?$AAn?$AA?9?$AAa?$AAp?$AAp?$AAm?$AAo?$AAd?$AAe?$AAl?$AA?9?$AAr?$AAu?$AAn?$AAt?$AAi?$AAm?$AAe?$AA?9?$AAl?$AA1?$AA?9?$AA1@ 004c4440     libucrtd:winapi_thunks.obj
 0002:00015498       ??_C@_1EA@JGEFHKEI@?$AAa?$AAp?$AAi?$AA?9?$AAm?$AAs?$AA?9?$AAw?$AAi?$AAn?$AA?9?$AAc?$AAo?$AAr?$AAe?$AA?9?$AAd?$AAa?$AAt?$AAe?$AAt?$AAi?$AAm?$AAe?$AA?9?$AAl?$AA1?$AA?9?$AA1?$AA?9?$AA1?$AA?$AA@ 004c4498     libucrtd:winapi_thunks.obj
 0002:000154e4       ??_C@_1DI@GCIAAENM@?$AAa?$AAp?$AAi?$AA?9?$AAm?$AAs?$AA?9?$AAw?$AAi?$AAn?$AA?9?$AAc?$AAo?$AAr?$AAe?$AA?9?$AAf?$AAi?$AAl?$AAe?$AA?9?$AAl?$AA2?$AA?9?$AA1?$AA?9?$AA1?$AA?$AA@ 004c44e4     libucrtd:winapi_thunks.obj
 0002:00015528       ??_C@_1EI@MPIAOHOC@?$AAa?$AAp?$AAi?$AA?9?$AAm?$AAs?$AA?9?$AAw?$AAi?$AAn?$AA?9?$AAc?$AAo?$AAr?$AAe?$AA?9?$AAl?$AAo?$AAc?$AAa?$AAl?$AAi?$AAz?$AAa?$AAt?$AAi?$AAo?$AAn?$AA?9?$AAl?$AA1?$AA?9@ 004c4528     libucrtd:winapi_thunks.obj
 0002:00015580       ??_C@_1FK@FPHCKFIE@?$AAa?$AAp?$AAi?$AA?9?$AAm?$AAs?$AA?9?$AAw?$AAi?$AAn?$AA?9?$AAc?$AAo?$AAr?$AAe?$AA?9?$AAl?$AAo?$AAc?$AAa?$AAl?$AAi?$AAz?$AAa?$AAt?$AAi?$AAo?$AAn?$AA?9?$AAo?$AAb?$AAs@ 004c4580     libucrtd:winapi_thunks.obj
 0002:000155f0       ??_C@_1EM@DILCGIIO@?$AAa?$AAp?$AAi?$AA?9?$AAm?$AAs?$AA?9?$AAw?$AAi?$AAn?$AA?9?$AAc?$AAo?$AAr?$AAe?$AA?9?$AAp?$AAr?$AAo?$AAc?$AAe?$AAs?$AAs?$AAt?$AAh?$AAr?$AAe?$AAa?$AAd?$AAs?$AA?9?$AAl@ 004c45f0     libucrtd:winapi_thunks.obj
 0002:0001564c       ??_C@_1DM@LNCGDDPN@?$AAa?$AAp?$AAi?$AA?9?$AAm?$AAs?$AA?9?$AAw?$AAi?$AAn?$AA?9?$AAc?$AAo?$AAr?$AAe?$AA?9?$AAs?$AAt?$AAr?$AAi?$AAn?$AAg?$AA?9?$AAl?$AA1?$AA?9?$AA1?$AA?9?$AA0?$AA?$AA@ 004c464c     libucrtd:winapi_thunks.obj
 0002:00015694       ??_C@_1DO@FPAPJEMD@?$AAa?$AAp?$AAi?$AA?9?$AAm?$AAs?$AA?9?$AAw?$AAi?$AAn?$AA?9?$AAc?$AAo?$AAr?$AAe?$AA?9?$AAs?$AAy?$AAs?$AAi?$AAn?$AAf?$AAo?$AA?9?$AAl?$AA1?$AA?9?$AA2?$AA?9?$AA1?$AA?$AA@ 004c4694     libucrtd:winapi_thunks.obj
 0002:000156e0       ??_C@_1DK@NDHNAHIO@?$AAa?$AAp?$AAi?$AA?9?$AAm?$AAs?$AA?9?$AAw?$AAi?$AAn?$AA?9?$AAc?$AAo?$AAr?$AAe?$AA?9?$AAw?$AAi?$AAn?$AAr?$AAt?$AA?9?$AAl?$AA1?$AA?9?$AA1?$AA?9?$AA0?$AA?$AA@ 004c46e0     libucrtd:winapi_thunks.obj
 0002:00015728       ??_C@_1DM@KGHDGBCM@?$AAa?$AAp?$AAi?$AA?9?$AAm?$AAs?$AA?9?$AAw?$AAi?$AAn?$AA?9?$AAc?$AAo?$AAr?$AAe?$AA?9?$AAx?$AAs?$AAt?$AAa?$AAt?$AAe?$AA?9?$AAl?$AA2?$AA?9?$AA1?$AA?9?$AA0?$AA?$AA@ 004c4728     libucrtd:winapi_thunks.obj
 0002:00015770       ??_C@_1EO@IJIOEFOH@?$AAa?$AAp?$AAi?$AA?9?$AAm?$AAs?$AA?9?$AAw?$AAi?$AAn?$AA?9?$AAr?$AAt?$AAc?$AAo?$AAr?$AAe?$AA?9?$AAn?$AAt?$AAu?$AAs?$AAe?$AAr?$AA?9?$AAw?$AAi?$AAn?$AAd?$AAo?$AAw?$AA?9@ 004c4770     libucrtd:winapi_thunks.obj
 0002:000157d0       ??_C@_1FG@HHGEKANL@?$AAa?$AAp?$AAi?$AA?9?$AAm?$AAs?$AA?9?$AAw?$AAi?$AAn?$AA?9?$AAs?$AAe?$AAc?$AAu?$AAr?$AAi?$AAt?$AAy?$AA?9?$AAs?$AAy?$AAs?$AAt?$AAe?$AAm?$AAf?$AAu?$AAn?$AAc?$AAt?$AAi@ 004c47d0     libucrtd:winapi_thunks.obj
 0002:00015838       ??_C@_1FG@NCKKOLKO@?$AAe?$AAx?$AAt?$AA?9?$AAm?$AAs?$AA?9?$AAw?$AAi?$AAn?$AA?9?$AAk?$AAe?$AAr?$AAn?$AAe?$AAl?$AA3?$AA2?$AA?9?$AAp?$AAa?$AAc?$AAk?$AAa?$AAg?$AAe?$AA?9?$AAc?$AAu?$AAr?$AAr@ 004c4838     libucrtd:winapi_thunks.obj
 0002:000158a0       ??_C@_1EG@DBIOJECG@?$AAe?$AAx?$AAt?$AA?9?$AAm?$AAs?$AA?9?$AAw?$AAi?$AAn?$AA?9?$AAn?$AAt?$AAu?$AAs?$AAe?$AAr?$AA?9?$AAd?$AAi?$AAa?$AAl?$AAo?$AAg?$AAb?$AAo?$AAx?$AA?9?$AAl?$AA1?$AA?9?$AA1@ 004c48a0     libucrtd:winapi_thunks.obj
 0002:000158f8       ??_C@_1EO@FIHMJCLF@?$AAe?$AAx?$AAt?$AA?9?$AAm?$AAs?$AA?9?$AAw?$AAi?$AAn?$AA?9?$AAn?$AAt?$AAu?$AAs?$AAe?$AAr?$AA?9?$AAw?$AAi?$AAn?$AAd?$AAo?$AAw?$AAs?$AAt?$AAa?$AAt?$AAi?$AAo?$AAn?$AA?9@ 004c48f8     libucrtd:winapi_thunks.obj
 0002:00015958       ??_C@_1O@BCCLBEOE@?$AAu?$AAs?$AAe?$AAr?$AA3?$AA2?$AA?$AA@ 004c4958     libucrtd:winapi_thunks.obj
 0002:00015968       ??_C@_1HE@OILMBOBA@?$AAm?$AAi?$AAn?$AAk?$AAe?$AAr?$AAn?$AAe?$AAl?$AA?2?$AAc?$AAr?$AAt?$AAs?$AA?2?$AAu?$AAc?$AAr?$AAt?$AA?2?$AAs?$AAr?$AAc?$AA?2?$AAa?$AAp?$AAp?$AAc?$AAr?$AAt?$AA?2?$AAi@ 004c4968     libucrtd:winapi_thunks.obj
 0002:000159f8       ??_C@_0BA@FHFNEAED@AreFileApisANSI?$AA@ 004c49f8     libucrtd:winapi_thunks.obj
 0002:00015a18       ??_C@_0BA@IHGNDAEB@CompareStringEx?$AA@ 004c4a18     libucrtd:winapi_thunks.obj
 0002:00015a38       ??_C@_0BE@LJANKFHF@EnumSystemLocalesEx?$AA@ 004c4a38     libucrtd:winapi_thunks.obj
 0002:00015a8c       ??_C@_0BA@HNOPNCHB@GetActiveWindow?$AA@ 004c4a8c     libucrtd:winapi_thunks.obj
 0002:00015aac       ??_C@_0BE@JOGNEJCI@GetCurrentPackageId?$AA@ 004c4aac     libucrtd:winapi_thunks.obj
 0002:00015ad0       ??_C@_0BA@EPCJIIPD@GetDateFormatEx?$AA@ 004c4ad0     libucrtd:winapi_thunks.obj
 0002:00015af0       ??_C@_0BJ@DIBIJBHA@GetEnabledXStateFeatures?$AA@ 004c4af0     libucrtd:winapi_thunks.obj
 0002:00015b1c       ??_C@_0BN@NEEHBBPO@GetFileInformationByHandleEx?$AA@ 004c4b1c     libucrtd:winapi_thunks.obj
 0002:00015b4c       ??_C@_0BD@HHGDFDBJ@GetLastActivePopup?$AA@ 004c4b4c     libucrtd:winapi_thunks.obj
 0002:00015b70       ??_C@_0BA@ONOKGCMP@GetLocaleInfoEx?$AA@ 004c4b70     libucrtd:winapi_thunks.obj
 0002:00015b90       ??_C@_0BI@DFKBFLJE@GetProcessWindowStation?$AA@ 004c4b90     libucrtd:winapi_thunks.obj
 0002:00015bb0       ??_C@_0BP@FPNJPEJC@GetSystemTimePreciseAsFileTime?$AA@ 004c4bb0     libucrtd:winapi_thunks.obj
 0002:00015be4       ??_C@_0BA@CIJJKCJJ@GetTimeFormatEx?$AA@ 004c4be4     libucrtd:winapi_thunks.obj
 0002:00015c04       ??_C@_0BJ@PBCCBIPI@GetUserDefaultLocaleName?$AA@ 004c4c04     libucrtd:winapi_thunks.obj
 0002:00015c30       ??_C@_0BK@DEKFELLI@GetUserObjectInformationW?$AA@ 004c4c30     libucrtd:winapi_thunks.obj
 0002:00015c5c       ??_C@_0BG@IKLDMBLM@GetXStateFeaturesMask?$AA@ 004c4c5c     libucrtd:winapi_thunks.obj
 0002:00015c90       ??_C@_0BC@CELBKLLA@IsValidLocaleName?$AA@ 004c4c90     libucrtd:winapi_thunks.obj
 0002:00015cb4       ??_C@_0O@KKBNKAPF@LCMapStringEx?$AA@ 004c4cb4     libucrtd:winapi_thunks.obj
 0002:00015cd0       ??_C@_0BB@CDHDDLLP@LCIDToLocaleName?$AA@ 004c4cd0     libucrtd:winapi_thunks.obj
 0002:00015cf0       ??_C@_0BB@HBDEELFH@LocaleNameToLCID?$AA@ 004c4cf0     libucrtd:winapi_thunks.obj
 0002:00015d10       ??_C@_0BE@KINNKFDA@LocateXStateFeature?$AA@ 004c4d10     libucrtd:winapi_thunks.obj
 0002:00015d34       ??_C@_0M@CHKKJDAI@MessageBoxA?$AA@ 004c4d34     libucrtd:winapi_thunks.obj
 0002:00015d50       ??_C@_0M@DLDCCGNP@MessageBoxW?$AA@ 004c4d50     libucrtd:winapi_thunks.obj
 0002:00015d64       ??_C@_0N@PPOMPGGK@RoInitialize?$AA@ 004c4d64     libucrtd:winapi_thunks.obj
 0002:00015d78       ??_C@_0P@LLFHBIJD@RoUninitialize?$AA@ 004c4d78     libucrtd:winapi_thunks.obj
 0002:00015d98       ??_C@_0BI@BKLFFAPO@SetThreadStackGuarantee?$AA@ 004c4d98     libucrtd:winapi_thunks.obj
 0002:00015dc0       ??_C@_0BC@JEAENNKH@SystemFunction036?$AA@ 004c4dc0     libucrtd:winapi_thunks.obj
 0002:00015dd8       ??_C@_1DC@JKJAOJNC@?$AAc?$AAa?$AAc?$AAh?$AAe?$AAd?$AA_?$AAs?$AAt?$AAa?$AAt?$AAe?$AA?5?$AA?$DN?$AA?$DN?$AA?5?$AAp?$AAa?$AAc?$AAk?$AAa?$AAg?$AAe?$AAd?$AA?$AA@ 004c4dd8     libucrtd:winapi_thunks.obj
 0002:00015e14       ??_C@_1DK@JOPMHFDB@?$AAc?$AAa?$AAc?$AAh?$AAe?$AAd?$AA_?$AAs?$AAt?$AAa?$AAt?$AAe?$AA?5?$AA?$DN?$AA?$DN?$AA?5?$AAn?$AAo?$AAt?$AA_?$AAp?$AAa?$AAc?$AAk?$AAa?$AAg?$AAe?$AAd?$AA?$AA@ 004c4e14     libucrtd:winapi_thunks.obj
 0002:00015e60       ??_C@_1GE@GPOPIOIG@?$AAm?$AAi?$AAn?$AAk?$AAe?$AAr?$AAn?$AAe?$AAl?$AA?2?$AAc?$AAr?$AAt?$AAs?$AA?2?$AAu?$AAc?$AAr?$AAt?$AA?2?$AAs?$AAr?$AAc?$AA?2?$AAa?$AAp?$AAp?$AAc?$AAr?$AAt?$AA?2?$AAs@ 004c4e60     libucrtd:_freebuf.obj
 0002:00015ed8       ??_C@_1FO@IPDGALOE@?$AAm?$AAi?$AAn?$AAk?$AAe?$AAr?$AAn?$AAe?$AAl?$AA?2?$AAc?$AAr?$AAt?$AAs?$AA?2?$AAu?$AAc?$AAr?$AAt?$AA?2?$AAs?$AAr?$AAc?$AA?2?$AAa?$AAp?$AAp?$AAc?$AAr?$AAt?$AA?2?$AAl@ 004c4ed8     libucrtd:close.obj
 0002:00015f48       ??_C@_1O@EDEJGJBM@?$AA_?$AAc?$AAl?$AAo?$AAs?$AAe?$AA?$AA@ 004c4f48     libucrtd:close.obj
 0002:00015f58       ??_C@_1GA@KCAHHNGP@?$AAm?$AAi?$AAn?$AAk?$AAe?$AAr?$AAn?$AAe?$AAl?$AA?2?$AAc?$AAr?$AAt?$AAs?$AA?2?$AAu?$AAc?$AAr?$AAt?$AA?2?$AAs?$AAr?$AAc?$AA?2?$AAa?$AAp?$AAp?$AAc?$AAr?$AAt?$AA?2?$AAs@ 004c4f58     libucrtd:fileno.obj
 0002:00015fcc       ??_C@_1BA@JGHIEKKM@?$AA_?$AAf?$AAi?$AAl?$AAe?$AAn?$AAo?$AA?$AA@ 004c4fcc     libucrtd:fileno.obj
 0002:00015fe0       ??_C@_0DA@OGKFKCBE@minkernel?2crts?2ucrt?2src?2appcrt?2s@ 004c4fe0     libucrtd:stream.obj
 0002:00016020       ??_C@_1GE@HEEFEAFI@?$AAm?$AAi?$AAn?$AAk?$AAe?$AAr?$AAn?$AAe?$AAl?$AA?2?$AAc?$AAr?$AAt?$AAs?$AA?2?$AAu?$AAc?$AAr?$AAt?$AA?2?$AAs?$AAr?$AAc?$AA?2?$AAa?$AAp?$AAp?$AAc?$AAr?$AAt?$AA?2?$AAs@ 004c5020     libucrtd:openfile.obj
 0002:00016098       ??_C@_1DM@FOFGGBBM@?$AA?$CI?$AA?$CC?$AAI?$AAn?$AAv?$AAa?$AAl?$AAi?$AAd?$AA?5?$AAf?$AAi?$AAl?$AAe?$AA?5?$AAo?$AAp?$AAe?$AAn?$AA?5?$AAm?$AAo?$AAd?$AAe?$AA?$CC?$AA?0?$AA?5?$AA0?$AA?$CJ?$AA?$AA@ 004c5098     libucrtd:openfile.obj
 0002:000160e0       ??_C@_1DA@KPIHAHGC@?$AA_?$AA_?$AAa?$AAc?$AAr?$AAt?$AA_?$AAs?$AAt?$AAd?$AAi?$AAo?$AA_?$AAp?$AAa?$AAr?$AAs?$AAe?$AA_?$AAm?$AAo?$AAd?$AAe?$AA?$AA@ 004c50e0     libucrtd:openfile.obj
 0002:0001611c       ??_C@_1BI@PDNFEGCG@?$AA?$CK?$AAi?$AAt?$AA?5?$AA?$DN?$AA?$DN?$AA?5?$AA?8?$AA?2?$AA0?$AA?8?$AA?$AA@ 004c511c     libucrtd:openfile.obj
 0002:00016138       ?ccs@?BL@???$__acrt_stdio_parse_mode@D@@YA?AU__acrt_stdio_stream_mode@@QBD@Z@4QBDB 004c5138     libucrtd:openfile.obj
 0002:0001613c       ?utf8_encoding@?BL@???$__acrt_stdio_parse_mode@D@@YA?AU__acrt_stdio_stream_mode@@QBD@Z@4QBDB 004c513c     libucrtd:openfile.obj
 0002:00016144       ?utf16_encoding@?BL@???$__acrt_stdio_parse_mode@D@@YA?AU__acrt_stdio_stream_mode@@QBD@Z@4QBDB 004c5144     libucrtd:openfile.obj
 0002:00016150       ?unicode_encoding@?BL@???$__acrt_stdio_parse_mode@D@@YA?AU__acrt_stdio_stream_mode@@QBD@Z@4QBDB 004c5150     libucrtd:openfile.obj
 0002:00016158       ?ccs@?BL@???$__acrt_stdio_parse_mode@_W@@YA?AU__acrt_stdio_stream_mode@@QB_W@Z@4QB_WB 004c5158     libucrtd:openfile.obj
 0002:00016160       ?utf8_encoding@?BL@???$__acrt_stdio_parse_mode@_W@@YA?AU__acrt_stdio_stream_mode@@QB_W@Z@4QB_WB 004c5160     libucrtd:openfile.obj
 0002:0001616c       ?utf16_encoding@?BL@???$__acrt_stdio_parse_mode@_W@@YA?AU__acrt_stdio_stream_mode@@QB_W@Z@4QB_WB 004c516c     libucrtd:openfile.obj
 0002:00016180       ?unicode_encoding@?BL@???$__acrt_stdio_parse_mode@_W@@YA?AU__acrt_stdio_stream_mode@@QB_W@Z@4QB_WB 004c5180     libucrtd:openfile.obj
 0002:00016190       ??_C@_1GC@DFIGBGJI@?$AAm?$AAi?$AAn?$AAk?$AAe?$AAr?$AAn?$AAe?$AAl?$AA?2?$AAc?$AAr?$AAt?$AAs?$AA?2?$AAu?$AAc?$AAr?$AAt?$AA?2?$AAs?$AAr?$AAc?$AA?2?$AAa?$AAp?$AAp?$AAc?$AAr?$AAt?$AA?2?$AAs@ 004c5190     libucrtd:_flsbuf.obj
 0002:00016208       ??_C@_1HO@MLMGPAFH@?$AA?$CI?$AA?$CC?$AAi?$AAn?$AAc?$AAo?$AAn?$AAs?$AAi?$AAs?$AAt?$AAe?$AAn?$AAt?$AA?5?$AAI?$AAO?$AAB?$AA?5?$AAf?$AAi?$AAe?$AAl?$AAd?$AAs?$AA?$CC?$AA?0?$AA?5?$AAs?$AAt?$AAr?$AAe@ 004c5208     libucrtd:_flsbuf.obj
 0002:000162a0       ??_C@_1KG@LJECICMN@?$AAs?$AAt?$AAa?$AAt?$AAi?$AAc?$AA_?$AAc?$AAa?$AAs?$AAt?$AA?$DM?$AAv?$AAo?$AAi?$AAd?$AA?5?$AAc?$AAo?$AAn?$AAs?$AAt?$AA?$CK?$AA?$DO?$AA?$CI?$AAs?$AAo?$AAu?$AAr?$AAc?$AAe?$AA_@ 004c52a0     libucrtd:read.obj
 0002:00016368       ??_C@_1FM@PHKGHLIO@?$AAm?$AAi?$AAn?$AAk?$AAe?$AAr?$AAn?$AAe?$AAl?$AA?2?$AAc?$AAr?$AAt?$AAs?$AA?2?$AAu?$AAc?$AAr?$AAt?$AA?2?$AAs?$AAr?$AAc?$AA?2?$AAa?$AAp?$AAp?$AAc?$AAr?$AAt?$AA?2?$AAl@ 004c5368     libucrtd:read.obj
 0002:000163d8       ??_C@_1FK@MGHFJLAL@?$AAf?$AAh?$AA?5?$AA?$DO?$AA?$DN?$AA?5?$AA0?$AA?5?$AA?$CG?$AA?$CG?$AA?5?$AA?$CI?$AAu?$AAn?$AAs?$AAi?$AAg?$AAn?$AAe?$AAd?$AA?$CJ?$AAf?$AAh?$AA?5?$AA?$DM?$AA?5?$AA?$CI?$AAu?$AAn?$AAs?$AAi?$AAg@ 004c53d8     libucrtd:read.obj
 0002:00016444       ??_C@_1M@NHJOLLDM@?$AA_?$AAr?$AAe?$AAa?$AAd?$AA?$AA@ 004c5444     libucrtd:read.obj
 0002:00016454       ??_C@_1CI@ILOIOBLM@?$AA_?$AAo?$AAs?$AAf?$AAi?$AAl?$AAe?$AA?$CI?$AAf?$AAh?$AA?$CJ?$AA?5?$AA?$CG?$AA?5?$AAF?$AAO?$AAP?$AAE?$AAN?$AA?$AA@ 004c5454     libucrtd:read.obj
 0002:00016484       ??_C@_1CO@OPEPDLLF@?$AAb?$AAu?$AAf?$AAf?$AAe?$AAr?$AA_?$AAs?$AAi?$AAz?$AAe?$AA?5?$AA?$DM?$AA?$DN?$AA?5?$AAI?$AAN?$AAT?$AA_?$AAM?$AAA?$AAX?$AA?$AA@ 004c5484     libucrtd:read.obj
 0002:000164bc       ??_C@_1BK@JJBHNDKJ@?$AA_?$AAr?$AAe?$AAa?$AAd?$AA_?$AAn?$AAo?$AAl?$AAo?$AAc?$AAk?$AA?$AA@ 004c54bc     libucrtd:read.obj
 0002:000164dc       ??_C@_1DM@JEAHBMKI@?$AAr?$AAe?$AAs?$AAu?$AAl?$AAt?$AA_?$AAb?$AAu?$AAf?$AAf?$AAe?$AAr?$AA_?$AAs?$AAi?$AAz?$AAe?$AA?5?$AA?$DM?$AA?$DN?$AA?5?$AAI?$AAN?$AAT?$AA_?$AAM?$AAA?$AAX?$AA?$AA@ 004c54dc     libucrtd:read.obj
 0002:00016524       ??_C@_1DC@MGKAFPFD@?$AAr?$AAe?$AAs?$AAu?$AAl?$AAt?$AA_?$AAb?$AAu?$AAf?$AAf?$AAe?$AAr?$AA?5?$AA?$CB?$AA?$DN?$AA?5?$AAn?$AAu?$AAl?$AAl?$AAp?$AAt?$AAr?$AA?$AA@ 004c5524     libucrtd:read.obj
 0002:00016560       ??_C@_1DI@CDGOMPDO@?$AAr?$AAe?$AAs?$AAu?$AAl?$AAt?$AA_?$AAb?$AAu?$AAf?$AAf?$AAe?$AAr?$AA_?$AAs?$AAi?$AAz?$AAe?$AA?5?$AA?$CF?$AA?5?$AA2?$AA?5?$AA?$DN?$AA?$DN?$AA?5?$AA0?$AA?$AA@ 004c5560     libucrtd:read.obj
 0002:000165a4       ??_C@_0CO@JFNFJHLC@minkernel?2crts?2ucrt?2src?2appcrt?2l@ 004c55a4     libucrtd:read.obj
 0002:000165dc       ??_C@_1DM@HGBOAKPP@?$AA?$CI?$AAr?$AAe?$AAs?$AAu?$AAl?$AAt?$AA_?$AAb?$AAu?$AAf?$AAf?$AAe?$AAr?$AA_?$AAs?$AAi?$AAz?$AAe?$AA?5?$AA?$CF?$AA?5?$AA2?$AA?$CJ?$AA?5?$AA?$DN?$AA?$DN?$AA?5?$AA0?$AA?$AA@ 004c55dc     libucrtd:read.obj
 0002:00016628       ??_C@_1GC@MGNADOPH@?$AAm?$AAi?$AAn?$AAk?$AAe?$AAr?$AAn?$AAe?$AAl?$AA?2?$AAc?$AAr?$AAt?$AAs?$AA?2?$AAu?$AAc?$AAr?$AAt?$AA?2?$AAs?$AAr?$AAc?$AA?2?$AAa?$AAp?$AAp?$AAc?$AAr?$AAt?$AA?2?$AAs@ 004c5628     libucrtd:_filbuf.obj
 0002:000166a0       ??_C@_1DM@MPDNIFLF@?$AAc?$AAo?$AAm?$AAm?$AAo?$AAn?$AA_?$AAr?$AAe?$AAf?$AAi?$AAl?$AAl?$AA_?$AAa?$AAn?$AAd?$AA_?$AAr?$AAe?$AAa?$AAd?$AA_?$AAn?$AAo?$AAl?$AAo?$AAc?$AAk?$AA?$AA@ 004c56a0     libucrtd:_filbuf.obj
 0002:000166e8       ??_C@_1FO@KIIHJNFN@?$AAm?$AAi?$AAn?$AAk?$AAe?$AAr?$AAn?$AAe?$AAl?$AA?2?$AAc?$AAr?$AAt?$AAs?$AA?2?$AAu?$AAc?$AAr?$AAt?$AA?2?$AAs?$AAr?$AAc?$AA?2?$AAa?$AAp?$AAp?$AAc?$AAr?$AAt?$AA?2?$AAl@ 004c56e8     libucrtd:lseek.obj
 0002:00016758       ??_C@_1BK@JOMBNFIM@?$AAc?$AAo?$AAm?$AAm?$AAo?$AAn?$AA_?$AAl?$AAs?$AAe?$AAe?$AAk?$AA?$AA@ 004c5758     libucrtd:lseek.obj
 0002:00016778       ??_C@_1DM@LMLOLGJ@?$AA?$CI?$AA?$CC?$AAI?$AAn?$AAv?$AAa?$AAl?$AAi?$AAd?$AA?5?$AAf?$AAi?$AAl?$AAe?$AA?5?$AAd?$AAe?$AAs?$AAc?$AAr?$AAi?$AAp?$AAt?$AAo?$AAr?$AA?$CC?$AA?0?$AA0?$AA?$CJ?$AA?$AA@ 004c5778     libucrtd:lseek.obj
 0002:000167c0       ??_C@_1CA@DFHJGMAL@?$AAp?$AAa?$AAt?$AAh?$AA?5?$AA?$CB?$AA?$DN?$AA?5?$AAn?$AAu?$AAl?$AAl?$AAp?$AAt?$AAr?$AA?$AA@ 004c57c0     libucrtd:string_utilities.obj
 0002:000167e8       ??_C@_1HK@GGMCFJDH@?$AAm?$AAi?$AAn?$AAk?$AAe?$AAr?$AAn?$AAe?$AAl?$AA?2?$AAc?$AAr?$AAt?$AAs?$AA?2?$AAu?$AAc?$AAr?$AAt?$AA?2?$AAs?$AAr?$AAc?$AA?2?$AAa?$AAp?$AAp?$AAc?$AAr?$AAt?$AA?2?$AAi@ 004c57e8     libucrtd:string_utilities.obj
 0002:00016880       ??_C@_1EA@EAGMBFGP@?$AA_?$AA_?$AAa?$AAc?$AAr?$AAt?$AA_?$AAc?$AAo?$AAp?$AAy?$AA_?$AAp?$AAa?$AAt?$AAh?$AA_?$AAt?$AAo?$AA_?$AAw?$AAi?$AAd?$AAe?$AA_?$AAs?$AAt?$AAr?$AAi?$AAn?$AAg?$AA?$AA@ 004c5880     libucrtd:string_utilities.obj
 0002:000168cc       ??_C@_0DN@PGJNBGOL@minkernel?2crts?2ucrt?2src?2appcrt?2i@ 004c58cc     libucrtd:string_utilities.obj
 0002:00016918       ??_C@_1CE@BLLJFLOH@?$AAs?$AAt?$AAr?$AAi?$AAn?$AAg?$AA?5?$AA?$CB?$AA?$DN?$AA?5?$AAn?$AAu?$AAl?$AAl?$AAp?$AAt?$AAr?$AA?$AA@ 004c5918     libucrtd:string_utilities.obj
 0002:00016944       ??_C@_1CI@FCAFEBFO@?$AA_?$AA_?$AAa?$AAc?$AAr?$AAt?$AA_?$AAc?$AAo?$AAp?$AAy?$AA_?$AAt?$AAo?$AA_?$AAc?$AAh?$AAa?$AAr?$AA?$AA@ 004c5944     libucrtd:string_utilities.obj
 0002:00016978       ??_C@_1BBC@DECGKMGJ@?$AA_?$AAl?$AAo?$AAc?$AA_?$AAu?$AAp?$AAd?$AAa?$AAt?$AAe?$AA?4?$AAG?$AAe?$AAt?$AAL?$AAo?$AAc?$AAa?$AAl?$AAe?$AAT?$AA?$CI?$AA?$CJ?$AA?9?$AA?$DO?$AAl?$AAo?$AAc?$AAi?$AAn?$AAf@ 004c5978     libucrtd:mbtowc.obj
 0002:00016ac0       ??_C@_1GE@CGIHMDEJ@?$AAm?$AAi?$AAn?$AAk?$AAe?$AAr?$AAn?$AAe?$AAl?$AA?2?$AAc?$AAr?$AAt?$AAs?$AA?2?$AAu?$AAc?$AAr?$AAt?$AA?2?$AAs?$AAr?$AAc?$AA?2?$AAa?$AAp?$AAp?$AAc?$AAr?$AAt?$AA?2?$AAc@ 004c5ac0     libucrtd:mbtowc.obj
 0002:00016b38       ??_C@_1DK@NBNOAGKB@?$AAd?$AAe?$AAs?$AAt?$AAi?$AAn?$AAa?$AAt?$AAi?$AAo?$AAn?$AA_?$AAc?$AAo?$AAu?$AAn?$AAt?$AA?5?$AA?$DM?$AA?$DN?$AA?5?$AAI?$AAN?$AAT?$AA_?$AAM?$AAA?$AAX?$AA?$AA@ 004c5b38     libucrtd:wctomb.obj
 0002:00016b80       ??_C@_1GE@FCCEPHFG@?$AAm?$AAi?$AAn?$AAk?$AAe?$AAr?$AAn?$AAe?$AAl?$AA?2?$AAc?$AAr?$AAt?$AAs?$AA?2?$AAu?$AAc?$AAr?$AAt?$AA?2?$AAs?$AAr?$AAc?$AA?2?$AAa?$AAp?$AAp?$AAc?$AAr?$AAt?$AA?2?$AAc@ 004c5b80     libucrtd:wctomb.obj
 0002:00016bf8       ??_C@_1BI@IEADNOHF@?$AA_?$AAw?$AAc?$AAt?$AAo?$AAm?$AAb?$AA_?$AAs?$AA_?$AAl?$AA?$AA@ 004c5bf8     libucrtd:wctomb.obj
 0002:00016c14       ??_C@_1CM@ENFEGCNE@?$AAd?$AAe?$AAs?$AAt?$AAi?$AAn?$AAa?$AAt?$AAi?$AAo?$AAn?$AA_?$AAc?$AAo?$AAu?$AAn?$AAt?$AA?5?$AA?$DO?$AA?5?$AA0?$AA?$AA@ 004c5c14     libucrtd:wctomb.obj
 0002:00016c48       ??_C@_0DM@DKIFNNOL@minkernel?2crts?2ucrt?2src?2appcrt?2i@ 004c5c48     libucrtd:per_thread_data.obj
 0002:00016c90       ??_C@_03OEIAHPBN@INF?$AA@  004c5c90     libucrtd:cvt.obj
 0002:00016c94       ??_C@_03OJHLLCGB@inf?$AA@  004c5c94     libucrtd:cvt.obj
 0002:00016c98       ??_C@_03LKNCIKJB@NAN?$AA@  004c5c98     libucrtd:cvt.obj
 0002:00016c9c       ??_C@_03LHCJEHON@nan?$AA@  004c5c9c     libucrtd:cvt.obj
 0002:00016ca0       ??_C@_09OFJJIMPC@NAN?$CISNAN?$CJ?$AA@ 004c5ca0     libucrtd:cvt.obj
 0002:00016cac       ??_C@_09IPFBKMDL@nan?$CIsnan?$CJ?$AA@ 004c5cac     libucrtd:cvt.obj
 0002:00016cb8       ??_C@_08IKHNHAJ@NAN?$CIIND?$CJ?$AA@ 004c5cb8     libucrtd:cvt.obj
 0002:00016cc4       ??_C@_08OFCDMILK@nan?$CIind?$CJ?$AA@ 004c5cc4     libucrtd:cvt.obj
 0002:00016cd0       ??_C@_1FO@GKAKAPLI@?$AAm?$AAi?$AAn?$AAk?$AAe?$AAr?$AAn?$AAe?$AAl?$AA?2?$AAc?$AAr?$AAt?$AAs?$AA?2?$AAu?$AAc?$AAr?$AAt?$AA?2?$AAs?$AAr?$AAc?$AA?2?$AAa?$AAp?$AAp?$AAc?$AAr?$AAt?$AA?2?$AAc@ 004c5cd0     libucrtd:cvt.obj
 0002:00016d40       ??_C@_1DE@EHGIGIDK@?$AAf?$AAp?$AA_?$AAf?$AAo?$AAr?$AAm?$AAa?$AAt?$AA_?$AAn?$AAa?$AAn?$AA_?$AAo?$AAr?$AA_?$AAi?$AAn?$AAf?$AAi?$AAn?$AAi?$AAt?$AAy?$AA?$AA@ 004c5d40     libucrtd:cvt.obj
 0002:00016d80       ??_C@_1LI@PCMLJPCO@?$AAs?$AAt?$AAr?$AAc?$AAp?$AAy?$AA_?$AAs?$AA?$CI?$AA?5?$AAr?$AAe?$AAs?$AAu?$AAl?$AAt?$AA_?$AAb?$AAu?$AAf?$AAf?$AAe?$AAr?$AA?0?$AA?5?$AAr?$AAe?$AAs?$AAu?$AAl?$AAt?$AA_@ 004c5d80     libucrtd:cvt.obj
 0002:00016e60       ??_C@_1KO@LJHOFBCD@?$AAr?$AAe?$AAs?$AAu?$AAl?$AAt?$AA_?$AAb?$AAu?$AAf?$AAf?$AAe?$AAr?$AA_?$AAc?$AAo?$AAu?$AAn?$AAt?$AA?5?$AA?$DO?$AA?5?$AAs?$AAt?$AAa?$AAt?$AAi?$AAc?$AA_?$AAc?$AAa?$AAs@ 004c5e60     libucrtd:cvt.obj
 0002:00016f30       ??_C@_1CK@BOLHOMFO@?$AAf?$AAp?$AA_?$AAf?$AAo?$AAr?$AAm?$AAa?$AAt?$AA_?$AAe?$AA_?$AAi?$AAn?$AAt?$AAe?$AAr?$AAn?$AAa?$AAl?$AA?$AA@ 004c5f30     libucrtd:cvt.obj
 0002:00016f68       ??_C@_1BBA@FHDJNBGM@?$AAs?$AAt?$AAr?$AAc?$AAp?$AAy?$AA_?$AAs?$AA?$CI?$AA?5?$AAp?$AA?0?$AA?5?$AAr?$AAe?$AAs?$AAu?$AAl?$AAt?$AA_?$AAb?$AAu?$AAf?$AAf?$AAe?$AAr?$AA_?$AAc?$AAo?$AAu?$AAn?$AAt@ 004c5f68     libucrtd:cvt.obj
 0002:000170b0       ??_C@_05KLBDPFGC@e?$CL000?$AA@ 004c60b0     libucrtd:cvt.obj
 0002:000170b8       ??_C@_1IC@FILKPBAB@?$AAr?$AAe?$AAs?$AAu?$AAl?$AAt?$AA_?$AAb?$AAu?$AAf?$AAf?$AAe?$AAr?$AA_?$AAc?$AAo?$AAu?$AAn?$AAt?$AA?5?$AA?$DO?$AA?5?$AAs?$AAt?$AAa?$AAt?$AAi?$AAc?$AA_?$AAc?$AAa?$AAs@ 004c60b8     libucrtd:cvt.obj
 0002:00017154       ??_C@_1BI@PNBDLNBB@?$AAf?$AAp?$AA_?$AAf?$AAo?$AAr?$AAm?$AAa?$AAt?$AA_?$AAa?$AA?$AA@ 004c6154     libucrtd:cvt.obj
 0002:00017170       ??_C@_1CC@LDAHJAKK@?$AA_?$AA_?$AAa?$AAc?$AAr?$AAt?$AA_?$AAf?$AAp?$AA_?$AAf?$AAo?$AAr?$AAm?$AAa?$AAt?$AA?$AA@ 004c6170     libucrtd:cvt.obj
 0002:00017198       ??_C@_1DA@NMLJJOCO@?$AAr?$AAe?$AAs?$AAu?$AAl?$AAt?$AA_?$AAb?$AAu?$AAf?$AAf?$AAe?$AAr?$AA_?$AAc?$AAo?$AAu?$AAn?$AAt?$AA?5?$AA?$DO?$AA?5?$AA0?$AA?$AA@ 004c6198     libucrtd:cvt.obj
 0002:000171d4       ??_C@_1DE@MNOPBCOK@?$AAs?$AAc?$AAr?$AAa?$AAt?$AAc?$AAh?$AA_?$AAb?$AAu?$AAf?$AAf?$AAe?$AAr?$AA?5?$AA?$CB?$AA?$DN?$AA?5?$AAn?$AAu?$AAl?$AAl?$AAp?$AAt?$AAr?$AA?$AA@ 004c61d4     libucrtd:cvt.obj
 0002:00017214       ??_C@_1DC@CKBKNFKH@?$AAs?$AAc?$AAr?$AAa?$AAt?$AAc?$AAh?$AA_?$AAb?$AAu?$AAf?$AAf?$AAe?$AAr?$AA_?$AAc?$AAo?$AAu?$AAn?$AAt?$AA?5?$AA?$DO?$AA?5?$AA0?$AA?$AA@ 004c6214     libucrtd:cvt.obj
 0002:00017250       ??_C@_1EI@JAHBOGIM@?$AA?$CI?$AA?$CC?$AAU?$AAn?$AAs?$AAu?$AAp?$AAp?$AAo?$AAr?$AAt?$AAe?$AAd?$AA?5?$AAf?$AAo?$AAr?$AAm?$AAa?$AAt?$AA?5?$AAs?$AAp?$AAe?$AAc?$AAi?$AAf?$AAi?$AAe?$AAr?$AA?$CC?$AA?0@ 004c6250     libucrtd:cvt.obj
 0002:000172a8       ??_C@_1GA@OJHMFOOJ@?$AAm?$AAi?$AAn?$AAk?$AAe?$AAr?$AAn?$AAe?$AAl?$AA?2?$AAc?$AAr?$AAt?$AAs?$AA?2?$AAu?$AAc?$AAr?$AAt?$AA?2?$AAs?$AAr?$AAc?$AA?2?$AAa?$AAp?$AAp?$AAc?$AAr?$AAt?$AA?2?$AAs@ 004c62a8     libucrtd:fputwc.obj
 0002:0001731c       ??_C@_1O@HJNPHHHB@?$AAf?$AAp?$AAu?$AAt?$AAw?$AAc?$AA?$AA@ 004c631c     libucrtd:fputwc.obj
 0002:00017330       ??_C@_1GC@GBMDABED@?$AAm?$AAi?$AAn?$AAk?$AAe?$AAr?$AAn?$AAe?$AAl?$AA?2?$AAc?$AAr?$AAt?$AAs?$AA?2?$AAu?$AAc?$AAr?$AAt?$AA?2?$AAs?$AAr?$AAc?$AA?2?$AAa?$AAp?$AAp?$AAc?$AAr?$AAt?$AA?2?$AAs@ 004c6330     libucrtd:_sftbuf.obj
 0002:000173a8       ??_C@_0DB@EPIHMFLB@minkernel?2crts?2ucrt?2src?2appcrt?2s@ 004c63a8     libucrtd:_sftbuf.obj
 0002:000173e4       ??_C@_03KOEHGMDN@Sun?$AA@  004c63e4     libucrtd:nlsdata.obj
 0002:000173e8       ??_C@_03PDAGKDH@Mon?$AA@   004c63e8     libucrtd:nlsdata.obj
 0002:000173ec       ??_C@_03NAGEINEP@Tue?$AA@  004c63ec     libucrtd:nlsdata.obj
 0002:000173f0       ??_C@_03MHOMLAJA@Wed?$AA@  004c63f0     libucrtd:nlsdata.obj
 0002:000173f4       ??_C@_03IOFIKPDN@Thu?$AA@  004c63f4     libucrtd:nlsdata.obj
 0002:000173f8       ??_C@_03IDIOELNC@Fri?$AA@  004c63f8     libucrtd:nlsdata.obj
 0002:000173fc       ??_C@_03FEFJNEK@Sat?$AA@   004c63fc     libucrtd:nlsdata.obj
 0002:00017400       ??_C@_06OOPIFAJ@Sunday?$AA@ 004c6400     libucrtd:nlsdata.obj
 0002:00017408       ??_C@_06JLEDEDGH@Monday?$AA@ 004c6408     libucrtd:nlsdata.obj
 0002:00017410       ??_C@_07BAAGCFCM@Tuesday?$AA@ 004c6410     libucrtd:nlsdata.obj
 0002:0001741c       ??_C@_09DLIGFAKA@Wednesday?$AA@ 004c641c     libucrtd:nlsdata.obj
 0002:00017428       ??_C@_08HACCIKIA@Thursday?$AA@ 004c6428     libucrtd:nlsdata.obj
 0002:00017434       ??_C@_06JECMNKMI@Friday?$AA@ 004c6434     libucrtd:nlsdata.obj
 0002:0001743c       ??_C@_08INBOOONO@Saturday?$AA@ 004c643c     libucrtd:nlsdata.obj
 0002:00017448       ??_C@_03JIHJHPIE@Jan?$AA@  004c6448     libucrtd:nlsdata.obj
 0002:0001744c       ??_C@_03HJBDCHOM@Feb?$AA@  004c644c     libucrtd:nlsdata.obj
 0002:00017450       ??_C@_03ODNJBKGA@Mar?$AA@  004c6450     libucrtd:nlsdata.obj
 0002:00017454       ??_C@_03LEOLGMJP@Apr?$AA@  004c6454     libucrtd:nlsdata.obj
 0002:00017458       ??_C@_03CNMDKL@May?$AA@    004c6458     libucrtd:nlsdata.obj
 0002:0001745c       ??_C@_03IDFGHECI@Jun?$AA@  004c645c     libucrtd:nlsdata.obj
 0002:00017460       ??_C@_03LBGABGKK@Jul?$AA@  004c6460     libucrtd:nlsdata.obj
 0002:00017464       ??_C@_03IFJFEIGA@Aug?$AA@  004c6464     libucrtd:nlsdata.obj
 0002:00017468       ??_C@_03GGCAPAJC@Sep?$AA@  004c6468     libucrtd:nlsdata.obj
 0002:0001746c       ??_C@_03BMAOKBAD@Oct?$AA@  004c646c     libucrtd:nlsdata.obj
 0002:00017470       ??_C@_03JPJOFNIA@Nov?$AA@  004c6470     libucrtd:nlsdata.obj
 0002:00017474       ??_C@_03MKABNOCG@Dec?$AA@  004c6474     libucrtd:nlsdata.obj
 0002:00017478       ??_C@_07CGJPFGJA@January?$AA@ 004c6478     libucrtd:nlsdata.obj
 0002:00017484       ??_C@_08GNJGEPFN@February?$AA@ 004c6484     libucrtd:nlsdata.obj
 0002:00017490       ??_C@_05HPCKOFNC@March?$AA@ 004c6490     libucrtd:nlsdata.obj
 0002:00017498       ??_C@_05DMJDNLEJ@April?$AA@ 004c6498     libucrtd:nlsdata.obj
 0002:000174a0       ??_C@_04CNLMGBGM@June?$AA@ 004c64a0     libucrtd:nlsdata.obj
 0002:000174a8       ??_C@_04MIEPOIFP@July?$AA@ 004c64a8     libucrtd:nlsdata.obj
 0002:000174b0       ??_C@_06LBBHFDDG@August?$AA@ 004c64b0     libucrtd:nlsdata.obj
 0002:000174b8       ??_C@_09BHHEALKD@September?$AA@ 004c64b8     libucrtd:nlsdata.obj
 0002:000174c4       ??_C@_07JJNFCEND@October?$AA@ 004c64c4     libucrtd:nlsdata.obj
 0002:000174d0       ??_C@_08HCHEGEOA@November?$AA@ 004c64d0     libucrtd:nlsdata.obj
 0002:000174dc       ??_C@_08EDHMEBNP@December?$AA@ 004c64dc     libucrtd:nlsdata.obj
 0002:000174e8       ??_C@_02DEDBPAFC@AM?$AA@   004c64e8     libucrtd:nlsdata.obj
 0002:000174ec       ??_C@_02CJNFDJBF@PM?$AA@   004c64ec     libucrtd:nlsdata.obj
 0002:000174f0       ??_C@_08BPBNCDIB@MM?1dd?1yy?$AA@ 004c64f0     libucrtd:nlsdata.obj
 0002:000174fc       ??_C@_0BE@CKGJFCPC@dddd?0?5MMMM?5dd?0?5yyyy?$AA@ 004c64fc     libucrtd:nlsdata.obj
 0002:00017514       ??_C@_08JCCMCCIL@HH?3mm?3ss?$AA@ 004c6514     libucrtd:nlsdata.obj
 0002:00017520       ??_C@_17MBGCMIPB@?$AAS?$AAu?$AAn?$AA?$AA@ 004c6520     libucrtd:nlsdata.obj
 0002:0001752c       ??_C@_17KBOMKBF@?$AAM?$AAo?$AAn?$AA?$AA@ 004c652c     libucrtd:nlsdata.obj
 0002:00017538       ??_C@_17BMKGEGOJ@?$AAT?$AAu?$AAe?$AA?$AA@ 004c6538     libucrtd:nlsdata.obj
 0002:00017544       ??_C@_17CJEDCEPE@?$AAW?$AAe?$AAd?$AA?$AA@ 004c6544     libucrtd:nlsdata.obj
 0002:00017550       ??_C@_17PDPHAADD@?$AAT?$AAh?$AAu?$AA?$AA@ 004c6550     libucrtd:nlsdata.obj
 0002:0001755c       ??_C@_17HFOLPPLP@?$AAF?$AAr?$AAi?$AA?$AA@ 004c655c     libucrtd:nlsdata.obj
 0002:00017568       ??_C@_17GGIBDPIH@?$AAS?$AAa?$AAt?$AA?$AA@ 004c6568     libucrtd:nlsdata.obj
 0002:00017574       ??_C@_1O@IHNHDHPB@?$AAS?$AAu?$AAn?$AAd?$AAa?$AAy?$AA?$AA@ 004c6574     libucrtd:nlsdata.obj
 0002:00017584       ??_C@_1O@MMNBFLIA@?$AAM?$AAo?$AAn?$AAd?$AAa?$AAy?$AA?$AA@ 004c6584     libucrtd:nlsdata.obj
 0002:00017594       ??_C@_1BA@ENFBFFEK@?$AAT?$AAu?$AAe?$AAs?$AAd?$AAa?$AAy?$AA?$AA@ 004c6594     libucrtd:nlsdata.obj
 0002:000175a8       ??_C@_1BE@EBOGMDOH@?$AAW?$AAe?$AAd?$AAn?$AAe?$AAs?$AAd?$AAa?$AAy?$AA?$AA@ 004c65a8     libucrtd:nlsdata.obj
 0002:000175c0       ??_C@_1BC@HHMNLIHE@?$AAT?$AAh?$AAu?$AAr?$AAs?$AAd?$AAa?$AAy?$AA?$AA@ 004c65c0     libucrtd:nlsdata.obj
 0002:000175d8       ??_C@_1O@PDICJHAG@?$AAF?$AAr?$AAi?$AAd?$AAa?$AAy?$AA?$AA@ 004c65d8     libucrtd:nlsdata.obj
 0002:000175e8       ??_C@_1BC@ENMNNPAJ@?$AAS?$AAa?$AAt?$AAu?$AAr?$AAd?$AAa?$AAy?$AA?$AA@ 004c65e8     libucrtd:nlsdata.obj
 0002:00017600       ??_C@_17DKNBKCHM@?$AAJ?$AAa?$AAn?$AA?$AA@ 004c6600     libucrtd:nlsdata.obj
 0002:0001760c       ??_C@_17LMDJEKJN@?$AAF?$AAe?$AAb?$AA?$AA@ 004c660c     libucrtd:nlsdata.obj
 0002:00017618       ??_C@_17CKNLEDEC@?$AAM?$AAa?$AAr?$AA?$AA@ 004c6618     libucrtd:nlsdata.obj
 0002:00017624       ??_C@_17LFPOIHDD@?$AAA?$AAp?$AAr?$AA?$AA@ 004c6624     libucrtd:nlsdata.obj
 0002:00017630       ??_C@_17PNNKMEED@?$AAM?$AAa?$AAy?$AA?$AA@ 004c6630     libucrtd:nlsdata.obj
 0002:0001763c       ??_C@_17KCJGOCPB@?$AAJ?$AAu?$AAn?$AA?$AA@ 004c663c     libucrtd:nlsdata.obj
 0002:00017648       ??_C@_17IJPCKHK@?$AAJ?$AAu?$AAl?$AA?$AA@ 004c6648     libucrtd:nlsdata.obj
 0002:00017654       ??_C@_17ICPELBCN@?$AAA?$AAu?$AAg?$AA?$AA@ 004c6654     libucrtd:nlsdata.obj
 0002:00017660       ??_C@_17HCHCOKMG@?$AAS?$AAe?$AAp?$AA?$AA@ 004c6660     libucrtd:nlsdata.obj
 0002:0001766c       ??_C@_17FNLKOI@?$AAO?$AAc?$AAt?$AA?$AA@ 004c666c     libucrtd:nlsdata.obj
 0002:00017678       ??_C@_17BBDMLCIG@?$AAN?$AAo?$AAv?$AA?$AA@ 004c6678     libucrtd:nlsdata.obj
 0002:00017684       ??_C@_17EGKACKIF@?$AAD?$AAe?$AAc?$AA?$AA@ 004c6684     libucrtd:nlsdata.obj
 0002:00017690       ??_C@_1BA@EFMEIEBA@?$AAJ?$AAa?$AAn?$AAu?$AAa?$AAr?$AAy?$AA?$AA@ 004c6690     libucrtd:nlsdata.obj
 0002:000176a4       ??_C@_1BC@JGDDFFAM@?$AAF?$AAe?$AAb?$AAr?$AAu?$AAa?$AAr?$AAy?$AA?$AA@ 004c66a4     libucrtd:nlsdata.obj
 0002:000176bc       ??_C@_1M@IKEENEDF@?$AAM?$AAa?$AAr?$AAc?$AAh?$AA?$AA@ 004c66bc     libucrtd:nlsdata.obj
 0002:000176cc       ??_C@_1M@GJNLMHFD@?$AAA?$AAp?$AAr?$AAi?$AAl?$AA?$AA@ 004c66cc     libucrtd:nlsdata.obj
 0002:000176dc       ??_C@_19EPFLPGAP@?$AAJ?$AAu?$AAn?$AAe?$AA?$AA@ 004c66dc     libucrtd:nlsdata.obj
 0002:000176e8       ??_C@_19BIFMLPCD@?$AAJ?$AAu?$AAl?$AAy?$AA?$AA@ 004c66e8     libucrtd:nlsdata.obj
 0002:000176f4       ??_C@_1O@PAHLKOAC@?$AAA?$AAu?$AAg?$AAu?$AAs?$AAt?$AA?$AA@ 004c66f4     libucrtd:nlsdata.obj
 0002:00017704       ??_C@_1BE@DKAAMBJL@?$AAS?$AAe?$AAp?$AAt?$AAe?$AAm?$AAb?$AAe?$AAr?$AA?$AA@ 004c6704     libucrtd:nlsdata.obj
 0002:0001771c       ??_C@_1BA@EPANDLNG@?$AAO?$AAc?$AAt?$AAo?$AAb?$AAe?$AAr?$AA?$AA@ 004c671c     libucrtd:nlsdata.obj
 0002:00017730       ??_C@_1BC@BGLIFPF@?$AAN?$AAo?$AAv?$AAe?$AAm?$AAb?$AAe?$AAr?$AA?$AA@ 004c6730     libucrtd:nlsdata.obj
 0002:00017748       ??_C@_1BC@FEMKIFH@?$AAD?$AAe?$AAc?$AAe?$AAm?$AAb?$AAe?$AAr?$AA?$AA@ 004c6748     libucrtd:nlsdata.obj
 0002:00017760       ??_C@_15ODEHAHHF@?$AAA?$AAM?$AA?$AA@ 004c6760     libucrtd:nlsdata.obj
 0002:00017768       ??_C@_15CLMNNGEL@?$AAP?$AAM?$AA?$AA@ 004c6768     libucrtd:nlsdata.obj
 0002:00017770       ??_C@_1BC@IEBCMHCM@?$AAM?$AAM?$AA?1?$AAd?$AAd?$AA?1?$AAy?$AAy?$AA?$AA@ 004c6770     libucrtd:nlsdata.obj
 0002:00017788       ??_C@_1CI@KNAKOEBC@?$AAd?$AAd?$AAd?$AAd?$AA?0?$AA?5?$AAM?$AAM?$AAM?$AAM?$AA?5?$AAd?$AAd?$AA?0?$AA?5?$AAy?$AAy?$AAy?$AAy?$AA?$AA@ 004c6788     libucrtd:nlsdata.obj
 0002:000177b8       ??_C@_1BC@GDGBMEMK@?$AAH?$AAH?$AA?3?$AAm?$AAm?$AA?3?$AAs?$AAs?$AA?$AA@ 004c67b8     libucrtd:nlsdata.obj
 0002:000177d0       ??_C@_1M@BMHNFIME@?$AAe?$AAn?$AA?9?$AAU?$AAS?$AA?$AA@ 004c67d0     libucrtd:nlsdata.obj
 0002:000177e0       ___lc_time_c               004c67e0     libucrtd:nlsdata.obj
 0002:00017990       ??_C@_1GA@MPOOLHCO@?$AAm?$AAi?$AAn?$AAk?$AAe?$AAr?$AAn?$AAe?$AAl?$AA?2?$AAc?$AAr?$AAt?$AAs?$AA?2?$AAu?$AAc?$AAr?$AAt?$AA?2?$AAs?$AAr?$AAc?$AA?2?$AAa?$AAp?$AAp?$AAc?$AAr?$AAt?$AA?2?$AAl@ 004c6990     libucrtd:commit.obj
 0002:00017a04       ??_C@_1BA@FLNMBBIM@?$AA_?$AAc?$AAo?$AAm?$AAm?$AAi?$AAt?$AA?$AA@ 004c6a04     libucrtd:commit.obj
 0002:00017a18       ??_C@_1FO@CAMPMGCN@?$AAm?$AAi?$AAn?$AAk?$AAe?$AAr?$AAn?$AAe?$AAl?$AA?2?$AAc?$AAr?$AAt?$AAs?$AA?2?$AAu?$AAc?$AAr?$AAt?$AA?2?$AAs?$AAr?$AAc?$AA?2?$AAa?$AAp?$AAp?$AAc?$AAr?$AAt?$AA?2?$AAl@ 004c6a18     libucrtd:write.obj
 0002:00017a88       ??_C@_1O@KOFKDHPL@?$AA_?$AAw?$AAr?$AAi?$AAt?$AAe?$AA?$AA@ 004c6a88     libucrtd:write.obj
 0002:00017a98       ??_C@_1DI@CNMHHHLG@?$AAi?$AAs?$AAl?$AAe?$AAa?$AAd?$AAb?$AAy?$AAt?$AAe?$AA?$CI?$AA_?$AAd?$AAb?$AAc?$AAs?$AAB?$AAu?$AAf?$AAf?$AAe?$AAr?$AA?$CI?$AAf?$AAh?$AA?$CJ?$AA?$CJ?$AA?$AA@ 004c6a98     libucrtd:write.obj
 0002:00017adc       ??_C@_1BM@NCANHCIP@?$AA_?$AAw?$AAr?$AAi?$AAt?$AAe?$AA_?$AAn?$AAo?$AAl?$AAo?$AAc?$AAk?$AA?$AA@ 004c6adc     libucrtd:write.obj
 0002:00017b00       ??_C@_1CK@CPEAGIIP@?$AAb?$AAu?$AAf?$AAf?$AAe?$AAr?$AA_?$AAs?$AAi?$AAz?$AAe?$AA?5?$AA?$CF?$AA?5?$AA2?$AA?5?$AA?$DN?$AA?$DN?$AA?5?$AA0?$AA?$AA@ 004c6b00     libucrtd:write.obj
 0002:00017b38       ??_C@_1GA@PNFFNPCM@?$AAm?$AAi?$AAn?$AAk?$AAe?$AAr?$AAn?$AAe?$AAl?$AA?2?$AAc?$AAr?$AAt?$AAs?$AA?2?$AAu?$AAc?$AAr?$AAt?$AA?2?$AAs?$AAr?$AAc?$AA?2?$AAa?$AAp?$AAp?$AAc?$AAr?$AAt?$AA?2?$AAt@ 004c6b38     libucrtd:asctime.obj
 0002:00017bac       ??_C@_1CC@IDOLFAJE@?$AAc?$AAo?$AAm?$AAm?$AAo?$AAn?$AA_?$AAa?$AAs?$AAc?$AAt?$AAi?$AAm?$AAe?$AA_?$AAs?$AA?$AA@ 004c6bac     libucrtd:asctime.obj
 0002:00017bd4       ??_C@_1DK@JNPGCACB@?$AAs?$AAi?$AAz?$AAe?$AA_?$AAi?$AAn?$AA_?$AAc?$AAh?$AAa?$AAr?$AAs?$AA?5?$AA?$DO?$AA?$DN?$AA?5?$AA_?$AAA?$AAS?$AAC?$AAB?$AAU?$AAF?$AAS?$AAI?$AAZ?$AAE?$AA?$AA@ 004c6bd4     libucrtd:asctime.obj
 0002:00017c1c       ??_C@_1CI@IBJHLOJE@?$AAt?$AAm?$AA_?$AAv?$AAa?$AAl?$AAu?$AAe?$AA?5?$AA?$CB?$AA?$DN?$AA?5?$AAn?$AAu?$AAl?$AAl?$AAp?$AAt?$AAr?$AA?$AA@ 004c6c1c     libucrtd:asctime.obj
 0002:00017c4c       ??_C@_1CO@MDPFACGF@?$AAt?$AAm?$AA_?$AAv?$AAa?$AAl?$AAu?$AAe?$AA?9?$AA?$DO?$AAt?$AAm?$AA_?$AAy?$AAe?$AAa?$AAr?$AA?5?$AA?$DO?$AA?$DN?$AA?5?$AA0?$AA?$AA@ 004c6c4c     libucrtd:asctime.obj
 0002:00017c88       ??_C@_1GA@MFHDMJAG@?$AAt?$AAm?$AA_?$AAv?$AAa?$AAl?$AAu?$AAe?$AA?9?$AA?$DO?$AAt?$AAm?$AA_?$AAm?$AAo?$AAn?$AA?5?$AA?$DO?$AA?$DN?$AA?5?$AA0?$AA?5?$AA?$CG?$AA?$CG?$AA?5?$AAt?$AAm?$AA_?$AAv?$AAa?$AAl?$AAu@ 004c6c88     libucrtd:asctime.obj
 0002:00017d00       ??_C@_1GE@OBNMCGKD@?$AAt?$AAm?$AA_?$AAv?$AAa?$AAl?$AAu?$AAe?$AA?9?$AA?$DO?$AAt?$AAm?$AA_?$AAh?$AAo?$AAu?$AAr?$AA?5?$AA?$DO?$AA?$DN?$AA?5?$AA0?$AA?5?$AA?$CG?$AA?$CG?$AA?5?$AAt?$AAm?$AA_?$AAv?$AAa?$AAl@ 004c6d00     libucrtd:asctime.obj
 0002:00017d78       ??_C@_1GA@BANGEJPH@?$AAt?$AAm?$AA_?$AAv?$AAa?$AAl?$AAu?$AAe?$AA?9?$AA?$DO?$AAt?$AAm?$AA_?$AAm?$AAi?$AAn?$AA?5?$AA?$DO?$AA?$DN?$AA?5?$AA0?$AA?5?$AA?$CG?$AA?$CG?$AA?5?$AAt?$AAm?$AA_?$AAv?$AAa?$AAl?$AAu@ 004c6d78     libucrtd:asctime.obj
 0002:00017df0       ??_C@_1GA@HMBNLCFH@?$AAt?$AAm?$AA_?$AAv?$AAa?$AAl?$AAu?$AAe?$AA?9?$AA?$DO?$AAt?$AAm?$AA_?$AAs?$AAe?$AAc?$AA?5?$AA?$DO?$AA?$DN?$AA?5?$AA0?$AA?5?$AA?$CG?$AA?$CG?$AA?5?$AAt?$AAm?$AA_?$AAv?$AAa?$AAl?$AAu@ 004c6df0     libucrtd:asctime.obj
 0002:00017e68       ??_C@_1GC@KHFEGNII@?$AAt?$AAm?$AA_?$AAv?$AAa?$AAl?$AAu?$AAe?$AA?9?$AA?$DO?$AAt?$AAm?$AA_?$AAw?$AAd?$AAa?$AAy?$AA?5?$AA?$DO?$AA?$DN?$AA?5?$AA0?$AA?5?$AA?$CG?$AA?$CG?$AA?5?$AAt?$AAm?$AA_?$AAv?$AAa?$AAl@ 004c6e68     libucrtd:asctime.obj
 0002:00017ee0       ??_C@_1KA@NLEEEMI@?$AA_?$AA_?$AAc?$AAr?$AAt?$AA_?$AAt?$AAi?$AAm?$AAe?$AA_?$AAi?$AAs?$AA_?$AAd?$AAa?$AAy?$AA_?$AAv?$AAa?$AAl?$AAi?$AAd?$AA?$CI?$AAt?$AAm?$AA_?$AAv?$AAa?$AAl?$AAu?$AAe@ 004c6ee0     libucrtd:asctime.obj
 0002:00017fa0       ??_C@_0DA@IPNMIMJM@minkernel?2crts?2ucrt?2src?2appcrt?2t@ 004c6fa0     libucrtd:asctime.obj
 0002:00017fdc       ??_C@_1BO@PPPMOAMP@?$AAp?$AAt?$AAm?$AA?5?$AA?$CB?$AA?$DN?$AA?5?$AAn?$AAu?$AAl?$AAl?$AAp?$AAt?$AAr?$AA?$AA@ 004c6fdc     libucrtd:localtime.obj
 0002:00018000       ??_C@_1GE@OILEOEKH@?$AAm?$AAi?$AAn?$AAk?$AAe?$AAr?$AAn?$AAe?$AAl?$AA?2?$AAc?$AAr?$AAt?$AAs?$AA?2?$AAu?$AAc?$AAr?$AAt?$AA?2?$AAs?$AAr?$AAc?$AA?2?$AAa?$AAp?$AAp?$AAc?$AAr?$AAt?$AA?2?$AAt@ 004c7000     libucrtd:localtime.obj
 0002:00018078       ??_C@_1CG@MOPACJME@?$AAc?$AAo?$AAm?$AAm?$AAo?$AAn?$AA_?$AAl?$AAo?$AAc?$AAa?$AAl?$AAt?$AAi?$AAm?$AAe?$AA_?$AAs?$AA?$AA@ 004c7078     libucrtd:localtime.obj
 0002:000180a8       ??_C@_1CC@FDBJMEBO@?$AAp?$AAt?$AAi?$AAm?$AAe?$AA?5?$AA?$CB?$AA?$DN?$AA?5?$AAn?$AAu?$AAl?$AAl?$AAp?$AAt?$AAr?$AA?$AA@ 004c70a8     libucrtd:localtime.obj
 0002:000180d0       ??_C@_1DC@MEHEMOPB@?$AA_?$AAg?$AAe?$AAt?$AA_?$AAd?$AAa?$AAy?$AAl?$AAi?$AAg?$AAh?$AAt?$AA?$CI?$AA?$CG?$AAd?$AAa?$AAy?$AAl?$AAi?$AAg?$AAh?$AAt?$AA?$CJ?$AA?$AA@ 004c70d0     libucrtd:localtime.obj
 0002:0001810c       ??_C@_1DC@MDEOHNED@?$AA_?$AAg?$AAe?$AAt?$AA_?$AAd?$AAs?$AAt?$AAb?$AAi?$AAa?$AAs?$AA?5?$AA?$CI?$AA?$CG?$AAd?$AAs?$AAt?$AAb?$AAi?$AAa?$AAs?$AA?5?$AA?$CJ?$AA?$AA@ 004c710c     libucrtd:localtime.obj
 0002:00018148       ??_C@_1DC@CMKCHHFC@?$AA_?$AAg?$AAe?$AAt?$AA_?$AAt?$AAi?$AAm?$AAe?$AAz?$AAo?$AAn?$AAe?$AA?$CI?$AA?$CG?$AAt?$AAi?$AAm?$AAe?$AAz?$AAo?$AAn?$AAe?$AA?$CJ?$AA?$AA@ 004c7148     libucrtd:localtime.obj
 0002:00018188       __d_inf                    004c7188     libucrtd:util.obj
 0002:00018198       __d_ind                    004c7198     libucrtd:util.obj
 0002:000181a8       __d_max                    004c71a8     libucrtd:util.obj
 0002:000181b8       __d_min                    004c71b8     libucrtd:util.obj
 0002:000181c8       __d_mzero                  004c71c8     libucrtd:util.obj
 0002:000181f4       ??_C@_1CI@JELMFMDH@?$AAc?$AA?5?$AA?$DO?$AA?$DN?$AA?5?$AA?9?$AA1?$AA?5?$AA?$CG?$AA?$CG?$AA?5?$AAc?$AA?5?$AA?$DM?$AA?$DN?$AA?5?$AA2?$AA5?$AA5?$AA?$AA@ 004c71f4     libucrtd:isctype.obj
 0002:00018228       ??_C@_1GG@KPBGDFHJ@?$AAm?$AAi?$AAn?$AAk?$AAe?$AAr?$AAn?$AAe?$AAl?$AA?2?$AAc?$AAr?$AAt?$AAs?$AA?2?$AAu?$AAc?$AAr?$AAt?$AA?2?$AAs?$AAr?$AAc?$AA?2?$AAa?$AAp?$AAp?$AAc?$AAr?$AAt?$AA?2?$AAc@ 004c7228     libucrtd:isctype.obj
 0002:000182a8       ??_C@_1FE@KNPCCODH@?$AA?$CI?$AA?$CC?$AAC?$AAo?$AAr?$AAr?$AAu?$AAp?$AAt?$AAe?$AAd?$AA?5?$AAp?$AAo?$AAi?$AAn?$AAt?$AAe?$AAr?$AA?5?$AAp?$AAa?$AAs?$AAs?$AAe?$AAd?$AA?5?$AAt?$AAo?$AA?5?$AA_?$AAf@ 004c72a8     libucrtd:lcmapstringa.obj
 0002:00018310       ??_C@_1HG@NGPLHMCI@?$AAm?$AAi?$AAn?$AAk?$AAe?$AAr?$AAn?$AAe?$AAl?$AA?2?$AAc?$AAr?$AAt?$AAs?$AA?2?$AAu?$AAc?$AAr?$AAt?$AA?2?$AAd?$AAe?$AAv?$AAd?$AAi?$AAv?$AA?2?$AAv?$AAc?$AAr?$AAu?$AAn@ 004c7310     libucrtd:lcmapstringa.obj
 0002:000183a0       ??_C@_0DH@IKPCBLP@minkernel?2crts?2ucrt?2src?2appcrt?2l@ 004c73a0     libucrtd:lcmapstringa.obj
 0002:000183e4       ??_C@_1DE@BCNCAIK@?$AA?$CI?$AA?$CC?$AAI?$AAn?$AAv?$AAa?$AAl?$AAi?$AAd?$AA?5?$AAe?$AAr?$AAr?$AAo?$AAr?$AA_?$AAm?$AAo?$AAd?$AAe?$AA?$CC?$AA?0?$AA?5?$AA0?$AA?$CJ?$AA?$AA@ 004c73e4     libucrtd:set_error_mode.obj
 0002:00018428       ??_C@_1GO@EBFPMMIJ@?$AAm?$AAi?$AAn?$AAk?$AAe?$AAr?$AAn?$AAe?$AAl?$AA?2?$AAc?$AAr?$AAt?$AAs?$AA?2?$AAu?$AAc?$AAr?$AAt?$AA?2?$AAs?$AAr?$AAc?$AA?2?$AAa?$AAp?$AAp?$AAc?$AAr?$AAt?$AA?2?$AAm@ 004c7428     libucrtd:set_error_mode.obj
 0002:000184ac       ??_C@_1CA@LFDHAMEM@?$AA_?$AAs?$AAe?$AAt?$AA_?$AAe?$AAr?$AAr?$AAo?$AAr?$AA_?$AAm?$AAo?$AAd?$AAe?$AA?$AA@ 004c74ac     libucrtd:set_error_mode.obj
 0002:000184d4       ??_C@_1CA@EOJJMFA@?$AAc?$AAo?$AAm?$AAm?$AAo?$AAn?$AA_?$AAt?$AAc?$AAs?$AAc?$AAa?$AAt?$AA_?$AAs?$AA?$AA@ 004c74d4     libucrtd:wcscat_s.obj
 0002:000184fc       ??_C@_1DM@FHLMIEG@?$AAS?$AAt?$AAr?$AAi?$AAn?$AAg?$AA?5?$AAi?$AAs?$AA?5?$AAn?$AAo?$AAt?$AA?5?$AAn?$AAu?$AAl?$AAl?$AA?5?$AAt?$AAe?$AAr?$AAm?$AAi?$AAn?$AAa?$AAt?$AAe?$AAd?$AA?$AA@ 004c74fc     libucrtd:wcscat_s.obj
 0002:00018548       ??_C@_1FA@MJKDNFFB@?$AA?$CI?$AAL?$AA?$CC?$AAS?$AAt?$AAr?$AAi?$AAn?$AAg?$AA?5?$AAi?$AAs?$AA?5?$AAn?$AAo?$AAt?$AA?5?$AAn?$AAu?$AAl?$AAl?$AA?5?$AAt?$AAe?$AAr?$AAm?$AAi?$AAn?$AAa?$AAt?$AAe?$AAd@ 004c7548     libucrtd:wcscat_s.obj
 0002:000185a8       ??_C@_1CC@CHNFGJIC@?$AAc?$AAo?$AAm?$AAm?$AAo?$AAn?$AA_?$AAt?$AAc?$AAs?$AAn?$AAc?$AAp?$AAy?$AA_?$AAs?$AA?$AA@ 004c75a8     libucrtd:wcsncpy_s.obj
 0002:000185d0       ??_C@_1HE@CEMHPOHH@?$AAm?$AAi?$AAn?$AAk?$AAe?$AAr?$AAn?$AAe?$AAl?$AA?2?$AAc?$AAr?$AAt?$AAs?$AA?2?$AAu?$AAc?$AAr?$AAt?$AA?2?$AAs?$AAr?$AAc?$AA?2?$AAa?$AAp?$AAp?$AAc?$AAr?$AAt?$AA?2?$AAs@ 004c75d0     libucrtd:argv_wildcards.obj
 0002:0001865c       ??_C@_1DK@IBFFOJGB@?$AAc?$AAo?$AAm?$AAm?$AAo?$AAn?$AA_?$AAe?$AAx?$AAp?$AAa?$AAn?$AAd?$AA_?$AAa?$AAr?$AAg?$AAv?$AA_?$AAw?$AAi?$AAl?$AAd?$AAc?$AAa?$AAr?$AAd?$AAs?$AA?$AA@ 004c765c     libucrtd:argv_wildcards.obj
 0002:000186a8       ??_C@_1MC@FLPKOFON@?$AAt?$AAr?$AAa?$AAi?$AAt?$AAs?$AA?3?$AA?3?$AAt?$AAc?$AAs?$AAn?$AAc?$AAp?$AAy?$AA_?$AAs?$AA?$CI?$AA?5?$AAc?$AAh?$AAa?$AAr?$AAa?$AAc?$AAt?$AAe?$AAr?$AA_?$AAi?$AAt?$AA?0@ 004c76a8     libucrtd:argv_wildcards.obj
 0002:00018790       ??_C@_0DK@FPFMIIJB@minkernel?2crts?2ucrt?2src?2appcrt?2s@ 004c7790     libucrtd:argv_wildcards.obj
 0002:000187d8       ??_C@_1EA@KOCCBLAD@?$AAc?$AAo?$AAp?$AAy?$AA_?$AAa?$AAn?$AAd?$AA_?$AAa?$AAd?$AAd?$AA_?$AAa?$AAr?$AAg?$AAu?$AAm?$AAe?$AAn?$AAt?$AA_?$AAt?$AAo?$AA_?$AAb?$AAu?$AAf?$AAf?$AAe?$AAr?$AA?$AA@ 004c77d8     libucrtd:argv_wildcards.obj
 0002:00018828       ??_C@_1KM@GDJIGAGL@?$AAt?$AAr?$AAa?$AAi?$AAt?$AAs?$AA?3?$AA?3?$AAt?$AAc?$AAs?$AAn?$AAc?$AAp?$AAy?$AA_?$AAs?$AA?$CI?$AAa?$AAr?$AAg?$AAu?$AAm?$AAe?$AAn?$AAt?$AA_?$AAb?$AAu?$AAf?$AAf?$AAe@ 004c7828     libucrtd:argv_wildcards.obj
 0002:000188f8       ??_C@_1PI@FGFLAGCC@?$AAt?$AAr?$AAa?$AAi?$AAt?$AAs?$AA?3?$AA?3?$AAt?$AAc?$AAs?$AAn?$AAc?$AAp?$AAy?$AA_?$AAs?$AA?$CI?$AA?5?$AAa?$AAr?$AAg?$AAu?$AAm?$AAe?$AAn?$AAt?$AA_?$AAb?$AAu?$AAf?$AAf@ 004c78f8     libucrtd:argv_wildcards.obj
 0002:00018a38       ??_C@_1M@HPNHIDJI@?$AAj?$AAa?$AA?9?$AAJ?$AAP?$AA?$AA@ 004c7a38     libucrtd:mbctype.obj
 0002:00018a48       ??_C@_1M@BIBDDEMK@?$AAz?$AAh?$AA?9?$AAC?$AAN?$AA?$AA@ 004c7a48     libucrtd:mbctype.obj
 0002:00018a58       ??_C@_1M@JLOOOEGK@?$AAk?$AAo?$AA?9?$AAK?$AAR?$AA?$AA@ 004c7a58     libucrtd:mbctype.obj
 0002:00018a68       ??_C@_1M@CLNBBOPM@?$AAz?$AAh?$AA?9?$AAT?$AAW?$AA?$AA@ 004c7a68     libucrtd:mbctype.obj
 0002:00018a78       ??_C@_0DE@HGDKNBFD@minkernel?2crts?2ucrt?2src?2appcrt?2m@ 004c7a78     libucrtd:mbctype.obj
 0002:00018ab8       ??_C@_0ED@BLPEHJAI@minkernel?2crts?2ucrt?2src?2desktopc@ 004c7ab8     libucrtd:get_environment_from_os.obj
 0002:00018b08       ??_C@_1DO@PANKIJNP@?$AAe?$AAq?$AAu?$AAa?$AAl?$AA_?$AAs?$AAi?$AAg?$AAn?$AA?5?$AA?9?$AA?5?$AAo?$AAp?$AAt?$AAi?$AAo?$AAn?$AA?5?$AA?$DM?$AA?5?$AA_?$AAM?$AAA?$AAX?$AA_?$AAE?$AAN?$AAV?$AA?$AA@ 004c7b08     libucrtd:setenv.obj
 0002:00018b58       ??_C@_1GE@MMOHBENP@?$AAm?$AAi?$AAn?$AAk?$AAe?$AAr?$AAn?$AAe?$AAl?$AA?2?$AAc?$AAr?$AAt?$AAs?$AA?2?$AAu?$AAc?$AAr?$AAt?$AA?2?$AAs?$AAr?$AAc?$AA?2?$AAd?$AAe?$AAs?$AAk?$AAt?$AAo?$AAp?$AAc@ 004c7b58     libucrtd:setenv.obj
 0002:00018bd0       ??_C@_1GK@KBABANDM@?$AAt?$AAr?$AAa?$AAi?$AAt?$AAs?$AA?3?$AA?3?$AAt?$AAc?$AAs?$AAn?$AAl?$AAe?$AAn?$AA?$CI?$AAe?$AAq?$AAu?$AAa?$AAl?$AA_?$AAs?$AAi?$AAg?$AAn?$AA?5?$AA?$CL?$AA?5?$AA1?$AA?0?$AA?5@ 004c7bd0     libucrtd:setenv.obj
 0002:00018c50       ??_C@_0DC@NJKMKCIL@minkernel?2crts?2ucrt?2src?2desktopc@ 004c7c50     libucrtd:setenv.obj
 0002:00018c90       ??_C@_1EC@IKJPFBIM@?$AA?$CI?$AA?$CC?$AAC?$AAR?$AAT?$AA?5?$AAl?$AAo?$AAg?$AAi?$AAc?$AA?5?$AAe?$AAr?$AAr?$AAo?$AAr?$AA?5?$AAi?$AAn?$AA?5?$AAs?$AAe?$AAt?$AAe?$AAn?$AAv?$AA?$CC?$AA?0?$AA?5?$AA0?$AA?$CJ@ 004c7c90     libucrtd:setenv.obj
 0002:00018ce0       ??_C@_1FE@KHMDCEEJ@?$AAc?$AAo?$AAm?$AAm?$AAo?$AAn?$AA_?$AAs?$AAe?$AAt?$AA_?$AAv?$AAa?$AAr?$AAi?$AAa?$AAb?$AAl?$AAe?$AA_?$AAi?$AAn?$AA_?$AAe?$AAn?$AAv?$AAi?$AAr?$AAo?$AAn?$AAm?$AAe@ 004c7ce0     libucrtd:setenv.obj
 0002:00018d48       ??_C@_1EM@NIOJJLEA@?$AAt?$AAr?$AAa?$AAi?$AAt?$AAs?$AA?3?$AA?3?$AAt?$AAc?$AAs?$AAc?$AAp?$AAy?$AA_?$AAs?$AA?$CI?$AAn?$AAa?$AAm?$AAe?$AA?0?$AA?5?$AAc?$AAo?$AAu?$AAn?$AAt?$AA?0?$AA?5?$AAo?$AAp@ 004c7d48     libucrtd:setenv.obj
 0002:00018da4       ??_C@_1CC@PIMGMDJH@?$AAc?$AAo?$AAp?$AAy?$AA_?$AAe?$AAn?$AAv?$AAi?$AAr?$AAo?$AAn?$AAm?$AAe?$AAn?$AAt?$AA?$AA@ 004c7da4     libucrtd:setenv.obj
 0002:00018dd0       ??_C@_1GG@EDHOMIDL@?$AAt?$AAr?$AAa?$AAi?$AAt?$AAs?$AA?3?$AA?3?$AAt?$AAc?$AAs?$AAc?$AAp?$AAy?$AA_?$AAs?$AA?$CI?$AA?$CK?$AAn?$AAe?$AAw?$AA_?$AAi?$AAt?$AA?0?$AA?5?$AAr?$AAe?$AAq?$AAu?$AAi?$AAr@ 004c7dd0     libucrtd:setenv.obj
 0002:00018e4c       ??_C@_0DB@JFFPGLDM@minkernel?2crts?2ucrt?2src?2appcrt?2l@ 004c7e4c     libucrtd:osfinfo.obj
 0002:00018e88       ??_C@_1EM@BPODPNEJ@?$AAs?$AAt?$AAa?$AAt?$AAi?$AAc?$AA_?$AAc?$AAa?$AAs?$AAt?$AA?$DM?$AAu?$AAn?$AAs?$AAi?$AAg?$AAn?$AAe?$AAd?$AA?$DO?$AA?$CI?$AAf?$AAh?$AA?$CJ?$AA?5?$AA?$DM?$AA?5?$AA_?$AAN?$AAH?$AAA@ 004c7e88     libucrtd:osfinfo.obj
 0002:00018ee8       ??_C@_1GC@LDGKBAFM@?$AAm?$AAi?$AAn?$AAk?$AAe?$AAr?$AAn?$AAe?$AAl?$AA?2?$AAc?$AAr?$AAt?$AAs?$AA?2?$AAu?$AAc?$AAr?$AAt?$AA?2?$AAs?$AAr?$AAc?$AA?2?$AAa?$AAp?$AAp?$AAc?$AAr?$AAt?$AA?2?$AAl@ 004c7ee8     libucrtd:osfinfo.obj
 0002:00018f60       ??_C@_1DM@JELNOMLN@?$AA_?$AA_?$AAa?$AAc?$AAr?$AAt?$AA_?$AAl?$AAo?$AAw?$AAi?$AAo?$AA_?$AAe?$AAn?$AAs?$AAu?$AAr?$AAe?$AA_?$AAf?$AAh?$AA_?$AAe?$AAx?$AAi?$AAs?$AAt?$AAs?$AA?$AA@ 004c7f60     libucrtd:osfinfo.obj
 0002:00018fa8       ??_C@_1BO@EMBOBGKE@?$AA_?$AAg?$AAe?$AAt?$AA_?$AAo?$AAs?$AAf?$AAh?$AAa?$AAn?$AAd?$AAl?$AAe?$AA?$AA@ 004c7fa8     libucrtd:osfinfo.obj
 0002:00018fd0       __wctype                   004c7fd0     libucrtd:ctype.obj
 0002:00019240       ___newctype                004c8240     libucrtd:ctype.obj
 0002:000195e0       ___newclmap                004c85e0     libucrtd:ctype.obj
 0002:000197b0       ___newcumap                004c87b0     libucrtd:ctype.obj
 0002:0001997c       ??_C@_0DE@PKCHMIOF@minkernel?2crts?2ucrt?2src?2appcrt?2l@ 004c897c     libucrtd:initctype.obj
 0002:000199c0       ??_C@_1GI@DPHPBMAL@?$AAm?$AAi?$AAn?$AAk?$AAe?$AAr?$AAn?$AAe?$AAl?$AA?2?$AAc?$AAr?$AAt?$AAs?$AA?2?$AAu?$AAc?$AAr?$AAt?$AA?2?$AAs?$AAr?$AAc?$AA?2?$AAa?$AAp?$AAp?$AAc?$AAr?$AAt?$AA?2?$AAl@ 004c89c0     libucrtd:initctype.obj
 0002:00019a3c       ??_C@_1DG@NMBGBDM@?$AAp?$AAl?$AAo?$AAc?$AAi?$AA?9?$AA?$DO?$AAc?$AAt?$AAy?$AAp?$AAe?$AA1?$AA_?$AAr?$AAe?$AAf?$AAc?$AAo?$AAu?$AAn?$AAt?$AA?5?$AA?$DO?$AA?5?$AA0?$AA?$AA@ 004c8a3c     libucrtd:initctype.obj
 0002:00019a7c       ??_C@_0DC@GMDOHFAP@minkernel?2crts?2ucrt?2src?2appcrt?2l@ 004c8a7c     libucrtd:initmon.obj
 0002:00019ab8       ??_C@_1DM@GKAPAMDO@?$AAp?$AAl?$AAo?$AAc?$AAi?$AA?9?$AA?$DO?$AAl?$AAc?$AAo?$AAn?$AAv?$AA_?$AAm?$AAo?$AAn?$AA_?$AAr?$AAe?$AAf?$AAc?$AAo?$AAu?$AAn?$AAt?$AA?5?$AA?$DO?$AA?5?$AA0?$AA?$AA@ 004c8ab8     libucrtd:initmon.obj
 0002:00019b00       ??_C@_1GE@IEFGCKMH@?$AAm?$AAi?$AAn?$AAk?$AAe?$AAr?$AAn?$AAe?$AAl?$AA?2?$AAc?$AAr?$AAt?$AAs?$AA?2?$AAu?$AAc?$AAr?$AAt?$AA?2?$AAs?$AAr?$AAc?$AA?2?$AAa?$AAp?$AAp?$AAc?$AAr?$AAt?$AA?2?$AAl@ 004c8b00     libucrtd:initmon.obj
 0002:00019b78       ??_C@_0DC@KHILMDMC@minkernel?2crts?2ucrt?2src?2appcrt?2l@ 004c8b78     libucrtd:initnum.obj
 0002:00019bb4       ??_C@_1DM@IFKAINNE@?$AAp?$AAl?$AAo?$AAc?$AAi?$AA?9?$AA?$DO?$AAl?$AAc?$AAo?$AAn?$AAv?$AA_?$AAn?$AAu?$AAm?$AA_?$AAr?$AAe?$AAf?$AAc?$AAo?$AAu?$AAn?$AAt?$AA?5?$AA?$DO?$AA?5?$AA0?$AA?$AA@ 004c8bb4     libucrtd:initnum.obj
 0002:00019c00       ??_C@_1GE@GOIFKKDC@?$AAm?$AAi?$AAn?$AAk?$AAe?$AAr?$AAn?$AAe?$AAl?$AA?2?$AAc?$AAr?$AAt?$AAs?$AA?2?$AAu?$AAc?$AAr?$AAt?$AA?2?$AAs?$AAr?$AAc?$AA?2?$AAa?$AAp?$AAp?$AAc?$AAr?$AAt?$AA?2?$AAl@ 004c8c00     libucrtd:initnum.obj
 0002:00019c78       ??_C@_0DD@MPFICDAE@minkernel?2crts?2ucrt?2src?2appcrt?2l@ 004c8c78     libucrtd:inittime.obj
 0002:00019cb8       ??_C@_1HK@HACABKKK@?$AA?$CI?$AA?$CC?$AAl?$AAc?$AA_?$AAt?$AAi?$AAm?$AAe?$AA_?$AAc?$AAu?$AAr?$AAr?$AA?5?$AAu?$AAn?$AAe?$AAx?$AAp?$AAe?$AAc?$AAt?$AAe?$AAd?$AAl?$AAy?$AA?5?$AAh?$AAa?$AAs?$AA?5@ 004c8cb8     libucrtd:inittime.obj
 0002:00019d50       ??_C@_1GG@BFOOANHJ@?$AAm?$AAi?$AAn?$AAk?$AAe?$AAr?$AAn?$AAe?$AAl?$AA?2?$AAc?$AAr?$AAt?$AAs?$AA?2?$AAu?$AAc?$AAr?$AAt?$AA?2?$AAs?$AAr?$AAc?$AA?2?$AAa?$AAp?$AAp?$AAc?$AAr?$AAt?$AA?2?$AAl@ 004c8d50     libucrtd:inittime.obj
 0002:00019dcc       ??_C@_0DJ@HCPJODDK@minkernel?2crts?2ucrt?2src?2appcrt?2l@ 004c8dcc     libucrtd:getstringtypea.obj
 0002:00019e10       ??_C@_1BKC@NBNHJIDM@?$AA?$CI?$AAp?$AAt?$AAl?$AAo?$AAc?$AAi?$AA?9?$AA?$DO?$AAl?$AAc?$AA_?$AAc?$AAa?$AAt?$AAe?$AAg?$AAo?$AAr?$AAy?$AA?$FL?$AAc?$AAa?$AAt?$AAe?$AAg?$AAo?$AAr?$AAy?$AA?$FN?$AA?4?$AAl@ 004c8e10     libucrtd:locale_refcounting.obj
 0002:0001a008       ??_C@_1HK@HCNMEOLA@?$AAm?$AAi?$AAn?$AAk?$AAe?$AAr?$AAn?$AAe?$AAl?$AA?2?$AAc?$AAr?$AAt?$AAs?$AA?2?$AAu?$AAc?$AAr?$AAt?$AA?2?$AAs?$AAr?$AAc?$AA?2?$AAa?$AAp?$AAp?$AAc?$AAr?$AAt?$AA?2?$AAl@ 004c9008     libucrtd:locale_refcounting.obj
 0002:0001a09c       ??_C@_1BC@LLOKLNP@?$AAa?$AAm?$AAe?$AAr?$AAi?$AAc?$AAa?$AAn?$AA?$AA@ 004c909c     libucrtd:get_qualified_locale.obj
 0002:0001a0b4       ??_C@_1CC@HEIGCDGG@?$AAa?$AAm?$AAe?$AAr?$AAi?$AAc?$AAa?$AAn?$AA?5?$AAe?$AAn?$AAg?$AAl?$AAi?$AAs?$AAh?$AA?$AA@ 004c90b4     libucrtd:get_qualified_locale.obj
 0002:0001a0dc       ??_C@_1CC@IHCNOMIN@?$AAa?$AAm?$AAe?$AAr?$AAi?$AAc?$AAa?$AAn?$AA?9?$AAe?$AAn?$AAg?$AAl?$AAi?$AAs?$AAh?$AA?$AA@ 004c90dc     libucrtd:get_qualified_locale.obj
 0002:0001a104       ??_C@_1BG@GKAGPCGG@?$AAa?$AAu?$AAs?$AAt?$AAr?$AAa?$AAl?$AAi?$AAa?$AAn?$AA?$AA@ 004c9104     libucrtd:get_qualified_locale.obj
 0002:0001a120       ??_C@_1BA@GMENCENF@?$AAb?$AAe?$AAl?$AAg?$AAi?$AAa?$AAn?$AA?$AA@ 004c9120     libucrtd:get_qualified_locale.obj
 0002:0001a134       ??_C@_1BC@PJMIIAAN@?$AAc?$AAa?$AAn?$AAa?$AAd?$AAi?$AAa?$AAn?$AA?$AA@ 004c9134     libucrtd:get_qualified_locale.obj
 0002:0001a14c       ??_C@_17NOIMNFBF@?$AAc?$AAh?$AAh?$AA?$AA@ 004c914c     libucrtd:get_qualified_locale.obj
 0002:0001a158       ??_C@_17GGDALCHA@?$AAc?$AAh?$AAi?$AA?$AA@ 004c9158     libucrtd:get_qualified_locale.obj
 0002:0001a164       ??_C@_1BA@NPNJKIBL@?$AAc?$AAh?$AAi?$AAn?$AAe?$AAs?$AAe?$AA?$AA@ 004c9164     libucrtd:get_qualified_locale.obj
 0002:0001a178       ??_C@_1CC@DINBAMMJ@?$AAc?$AAh?$AAi?$AAn?$AAe?$AAs?$AAe?$AA?9?$AAh?$AAo?$AAn?$AAg?$AAk?$AAo?$AAn?$AAg?$AA?$AA@ 004c9178     libucrtd:get_qualified_locale.obj
 0002:0001a1a0       ??_C@_1CG@IOBJPACO@?$AAc?$AAh?$AAi?$AAn?$AAe?$AAs?$AAe?$AA?9?$AAs?$AAi?$AAm?$AAp?$AAl?$AAi?$AAf?$AAi?$AAe?$AAd?$AA?$AA@ 004c91a0     libucrtd:get_qualified_locale.obj
 0002:0001a1d0       ??_C@_1CE@GAJNDCKG@?$AAc?$AAh?$AAi?$AAn?$AAe?$AAs?$AAe?$AA?9?$AAs?$AAi?$AAn?$AAg?$AAa?$AAp?$AAo?$AAr?$AAe?$AA?$AA@ 004c91d0     libucrtd:get_qualified_locale.obj
 0002:0001a1fc       ??_C@_1CI@PAJPIOOD@?$AAc?$AAh?$AAi?$AAn?$AAe?$AAs?$AAe?$AA?9?$AAt?$AAr?$AAa?$AAd?$AAi?$AAt?$AAi?$AAo?$AAn?$AAa?$AAl?$AA?$AA@ 004c91fc     libucrtd:get_qualified_locale.obj
 0002:0001a22c       ??_C@_1BM@NILJBMMD@?$AAd?$AAu?$AAt?$AAc?$AAh?$AA?9?$AAb?$AAe?$AAl?$AAg?$AAi?$AAa?$AAn?$AA?$AA@ 004c922c     libucrtd:get_qualified_locale.obj
 0002:0001a250       ??_C@_1CC@OOJPJNEJ@?$AAe?$AAn?$AAg?$AAl?$AAi?$AAs?$AAh?$AA?9?$AAa?$AAm?$AAe?$AAr?$AAi?$AAc?$AAa?$AAn?$AA?$AA@ 004c9250     libucrtd:get_qualified_locale.obj
 0002:0001a278       ??_C@_1BI@IOLFEEM@?$AAe?$AAn?$AAg?$AAl?$AAi?$AAs?$AAh?$AA?9?$AAa?$AAu?$AAs?$AA?$AA@ 004c9278     libucrtd:get_qualified_locale.obj
 0002:0001a294       ??_C@_1BO@HFFNLENJ@?$AAe?$AAn?$AAg?$AAl?$AAi?$AAs?$AAh?$AA?9?$AAb?$AAe?$AAl?$AAi?$AAz?$AAe?$AA?$AA@ 004c9294     libucrtd:get_qualified_locale.obj
 0002:0001a2b8       ??_C@_1BI@HAPKJMPO@?$AAe?$AAn?$AAg?$AAl?$AAi?$AAs?$AAh?$AA?9?$AAc?$AAa?$AAn?$AA?$AA@ 004c92b8     libucrtd:get_qualified_locale.obj
 0002:0001a2d4       ??_C@_1CE@HLNDMIOJ@?$AAe?$AAn?$AAg?$AAl?$AAi?$AAs?$AAh?$AA?9?$AAc?$AAa?$AAr?$AAi?$AAb?$AAb?$AAe?$AAa?$AAn?$AA?$AA@ 004c92d4     libucrtd:get_qualified_locale.obj
 0002:0001a300       ??_C@_1BI@LDHJHHAC@?$AAe?$AAn?$AAg?$AAl?$AAi?$AAs?$AAh?$AA?9?$AAi?$AAr?$AAe?$AA?$AA@ 004c9300     libucrtd:get_qualified_locale.obj
 0002:0001a31c       ??_C@_1CA@NJMMCFOC@?$AAe?$AAn?$AAg?$AAl?$AAi?$AAs?$AAh?$AA?9?$AAj?$AAa?$AAm?$AAa?$AAi?$AAc?$AAa?$AA?$AA@ 004c931c     libucrtd:get_qualified_locale.obj
 0002:0001a344       ??_C@_1BG@BHJEBBGG@?$AAe?$AAn?$AAg?$AAl?$AAi?$AAs?$AAh?$AA?9?$AAn?$AAz?$AA?$AA@ 004c9344     libucrtd:get_qualified_locale.obj
 0002:0001a360       ??_C@_1CK@FGOEJJCO@?$AAe?$AAn?$AAg?$AAl?$AAi?$AAs?$AAh?$AA?9?$AAs?$AAo?$AAu?$AAt?$AAh?$AA?5?$AAa?$AAf?$AAr?$AAi?$AAc?$AAa?$AA?$AA@ 004c9360     libucrtd:get_qualified_locale.obj
 0002:0001a394       ??_C@_1DE@PDBJPCJ@?$AAe?$AAn?$AAg?$AAl?$AAi?$AAs?$AAh?$AA?9?$AAt?$AAr?$AAi?$AAn?$AAi?$AAd?$AAa?$AAd?$AA?5?$AAy?$AA?5?$AAt?$AAo?$AAb?$AAa?$AAg?$AAo?$AA?$AA@ 004c9394     libucrtd:get_qualified_locale.obj
 0002:0001a3d4       ??_C@_1BG@JGCANDME@?$AAe?$AAn?$AAg?$AAl?$AAi?$AAs?$AAh?$AA?9?$AAu?$AAk?$AA?$AA@ 004c93d4     libucrtd:get_qualified_locale.obj
 0002:0001a3f0       ??_C@_1BG@DINKMLE@?$AAe?$AAn?$AAg?$AAl?$AAi?$AAs?$AAh?$AA?9?$AAu?$AAs?$AA?$AA@ 004c93f0     libucrtd:get_qualified_locale.obj
 0002:0001a40c       ??_C@_1BI@NMFDBHJE@?$AAe?$AAn?$AAg?$AAl?$AAi?$AAs?$AAh?$AA?9?$AAu?$AAs?$AAa?$AA?$AA@ 004c940c     libucrtd:get_qualified_locale.obj
 0002:0001a428       ??_C@_1BO@OIHKJKII@?$AAf?$AAr?$AAe?$AAn?$AAc?$AAh?$AA?9?$AAb?$AAe?$AAl?$AAg?$AAi?$AAa?$AAn?$AA?$AA@ 004c9428     libucrtd:get_qualified_locale.obj
 0002:0001a44c       ??_C@_1CA@NKAELJKI@?$AAf?$AAr?$AAe?$AAn?$AAc?$AAh?$AA?9?$AAc?$AAa?$AAn?$AAa?$AAd?$AAi?$AAa?$AAn?$AA?$AA@ 004c944c     libucrtd:get_qualified_locale.obj
 0002:0001a474       ??_C@_1CE@MGKCNLGN@?$AAf?$AAr?$AAe?$AAn?$AAc?$AAh?$AA?9?$AAl?$AAu?$AAx?$AAe?$AAm?$AAb?$AAo?$AAu?$AAr?$AAg?$AA?$AA@ 004c9474     libucrtd:get_qualified_locale.obj
 0002:0001a4a0       ??_C@_1BK@CEGEAILM@?$AAf?$AAr?$AAe?$AAn?$AAc?$AAh?$AA?9?$AAs?$AAw?$AAi?$AAs?$AAs?$AA?$AA@ 004c94a0     libucrtd:get_qualified_locale.obj
 0002:0001a4c0       ??_C@_1CA@PAFKEOCC@?$AAg?$AAe?$AAr?$AAm?$AAa?$AAn?$AA?9?$AAa?$AAu?$AAs?$AAt?$AAr?$AAi?$AAa?$AAn?$AA?$AA@ 004c94c0     libucrtd:get_qualified_locale.obj
 0002:0001a4e8       ??_C@_1CI@HCFHGOFD@?$AAg?$AAe?$AAr?$AAm?$AAa?$AAn?$AA?9?$AAl?$AAi?$AAc?$AAh?$AAt?$AAe?$AAn?$AAs?$AAt?$AAe?$AAi?$AAn?$AA?$AA@ 004c94e8     libucrtd:get_qualified_locale.obj
 0002:0001a518       ??_C@_1CE@FEDDNPDG@?$AAg?$AAe?$AAr?$AAm?$AAa?$AAn?$AA?9?$AAl?$AAu?$AAx?$AAe?$AAm?$AAb?$AAo?$AAu?$AAr?$AAg?$AA?$AA@ 004c9518     libucrtd:get_qualified_locale.obj
 0002:0001a544       ??_C@_1BK@LIMINNMN@?$AAg?$AAe?$AAr?$AAm?$AAa?$AAn?$AA?9?$AAs?$AAw?$AAi?$AAs?$AAs?$AA?$AA@ 004c9544     libucrtd:get_qualified_locale.obj
 0002:0001a564       ??_C@_1BM@LGMDBEPD@?$AAi?$AAr?$AAi?$AAs?$AAh?$AA?9?$AAe?$AAn?$AAg?$AAl?$AAi?$AAs?$AAh?$AA?$AA@ 004c9564     libucrtd:get_qualified_locale.obj
 0002:0001a588       ??_C@_1BM@NNCFBAEE@?$AAi?$AAt?$AAa?$AAl?$AAi?$AAa?$AAn?$AA?9?$AAs?$AAw?$AAi?$AAs?$AAs?$AA?$AA@ 004c9588     libucrtd:get_qualified_locale.obj
 0002:0001a5ac       ??_C@_1BE@FEDJNPIB@?$AAn?$AAo?$AAr?$AAw?$AAe?$AAg?$AAi?$AAa?$AAn?$AA?$AA@ 004c95ac     libucrtd:get_qualified_locale.obj
 0002:0001a5c4       ??_C@_1CC@CILKDEIE@?$AAn?$AAo?$AAr?$AAw?$AAe?$AAg?$AAi?$AAa?$AAn?$AA?9?$AAb?$AAo?$AAk?$AAm?$AAa?$AAl?$AA?$AA@ 004c95c4     libucrtd:get_qualified_locale.obj
 0002:0001a5ec       ??_C@_1CE@DHMMHEPL@?$AAn?$AAo?$AAr?$AAw?$AAe?$AAg?$AAi?$AAa?$AAn?$AA?9?$AAn?$AAy?$AAn?$AAo?$AAr?$AAs?$AAk?$AA?$AA@ 004c95ec     libucrtd:get_qualified_locale.obj
 0002:0001a618       ??_C@_1CK@OPNMHECD@?$AAp?$AAo?$AAr?$AAt?$AAu?$AAg?$AAu?$AAe?$AAs?$AAe?$AA?9?$AAb?$AAr?$AAa?$AAz?$AAi?$AAl?$AAi?$AAa?$AAn?$AA?$AA@ 004c9618     libucrtd:get_qualified_locale.obj
 0002:0001a64c       ??_C@_1CE@KEEHCDB@?$AAs?$AAp?$AAa?$AAn?$AAi?$AAs?$AAh?$AA?9?$AAa?$AAr?$AAg?$AAe?$AAn?$AAt?$AAi?$AAn?$AAa?$AA?$AA@ 004c964c     libucrtd:get_qualified_locale.obj
 0002:0001a678       ??_C@_1CA@GIAOLHJD@?$AAs?$AAp?$AAa?$AAn?$AAi?$AAs?$AAh?$AA?9?$AAb?$AAo?$AAl?$AAi?$AAv?$AAi?$AAa?$AA?$AA@ 004c9678     libucrtd:get_qualified_locale.obj
 0002:0001a6a0       ??_C@_1BM@OJNDFNPD@?$AAs?$AAp?$AAa?$AAn?$AAi?$AAs?$AAh?$AA?9?$AAc?$AAh?$AAi?$AAl?$AAe?$AA?$AA@ 004c96a0     libucrtd:get_qualified_locale.obj
 0002:0001a6c4       ??_C@_1CC@OCOLPALL@?$AAs?$AAp?$AAa?$AAn?$AAi?$AAs?$AAh?$AA?9?$AAc?$AAo?$AAl?$AAo?$AAm?$AAb?$AAi?$AAa?$AA?$AA@ 004c96c4     libucrtd:get_qualified_locale.obj
 0002:0001a6ec       ??_C@_1CG@BPOFMKBB@?$AAs?$AAp?$AAa?$AAn?$AAi?$AAs?$AAh?$AA?9?$AAc?$AAo?$AAs?$AAt?$AAa?$AA?5?$AAr?$AAi?$AAc?$AAa?$AA?$AA@ 004c96ec     libucrtd:get_qualified_locale.obj
 0002:0001a71c       ??_C@_1DG@IGOBAPBB@?$AAs?$AAp?$AAa?$AAn?$AAi?$AAs?$AAh?$AA?9?$AAd?$AAo?$AAm?$AAi?$AAn?$AAi?$AAc?$AAa?$AAn?$AA?5?$AAr?$AAe?$AAp?$AAu?$AAb?$AAl?$AAi?$AAc?$AA?$AA@ 004c971c     libucrtd:get_qualified_locale.obj
 0002:0001a75c       ??_C@_1CA@JHAPGEGI@?$AAs?$AAp?$AAa?$AAn?$AAi?$AAs?$AAh?$AA?9?$AAe?$AAc?$AAu?$AAa?$AAd?$AAo?$AAr?$AA?$AA@ 004c975c     libucrtd:get_qualified_locale.obj
 0002:0001a784       ??_C@_1CI@LAPALJPP@?$AAs?$AAp?$AAa?$AAn?$AAi?$AAs?$AAh?$AA?9?$AAe?$AAl?$AA?5?$AAs?$AAa?$AAl?$AAv?$AAa?$AAd?$AAo?$AAr?$AA?$AA@ 004c9784     libucrtd:get_qualified_locale.obj
 0002:0001a7b4       ??_C@_1CE@PDGBOFOM@?$AAs?$AAp?$AAa?$AAn?$AAi?$AAs?$AAh?$AA?9?$AAg?$AAu?$AAa?$AAt?$AAe?$AAm?$AAa?$AAl?$AAa?$AA?$AA@ 004c97b4     libucrtd:get_qualified_locale.obj
 0002:0001a7e0       ??_C@_1CC@NBEBAODI@?$AAs?$AAp?$AAa?$AAn?$AAi?$AAs?$AAh?$AA?9?$AAh?$AAo?$AAn?$AAd?$AAu?$AAr?$AAa?$AAs?$AA?$AA@ 004c97e0     libucrtd:get_qualified_locale.obj
 0002:0001a808       ??_C@_1CA@LLKGHBMF@?$AAs?$AAp?$AAa?$AAn?$AAi?$AAs?$AAh?$AA?9?$AAm?$AAe?$AAx?$AAi?$AAc?$AAa?$AAn?$AA?$AA@ 004c9808     libucrtd:get_qualified_locale.obj
 0002:0001a830       ??_C@_1BO@LKNDOIGD@?$AAs?$AAp?$AAa?$AAn?$AAi?$AAs?$AAh?$AA?9?$AAm?$AAo?$AAd?$AAe?$AAr?$AAn?$AA?$AA@ 004c9830     libucrtd:get_qualified_locale.obj
 0002:0001a854       ??_C@_1CE@NMDMOEEB@?$AAs?$AAp?$AAa?$AAn?$AAi?$AAs?$AAh?$AA?9?$AAn?$AAi?$AAc?$AAa?$AAr?$AAa?$AAg?$AAu?$AAa?$AA?$AA@ 004c9854     libucrtd:get_qualified_locale.obj
 0002:0001a880       ??_C@_1BO@LLCBEJGB@?$AAs?$AAp?$AAa?$AAn?$AAi?$AAs?$AAh?$AA?9?$AAp?$AAa?$AAn?$AAa?$AAm?$AAa?$AA?$AA@ 004c9880     libucrtd:get_qualified_locale.obj
 0002:0001a8a4       ??_C@_1CC@FKPGGIHO@?$AAs?$AAp?$AAa?$AAn?$AAi?$AAs?$AAh?$AA?9?$AAp?$AAa?$AAr?$AAa?$AAg?$AAu?$AAa?$AAy?$AA?$AA@ 004c98a4     libucrtd:get_qualified_locale.obj
 0002:0001a8cc       ??_C@_1BK@CDEIHOOP@?$AAs?$AAp?$AAa?$AAn?$AAi?$AAs?$AAh?$AA?9?$AAp?$AAe?$AAr?$AAu?$AA?$AA@ 004c98cc     libucrtd:get_qualified_locale.obj
 0002:0001a8ec       ??_C@_1CI@GAHAKKGP@?$AAs?$AAp?$AAa?$AAn?$AAi?$AAs?$AAh?$AA?9?$AAp?$AAu?$AAe?$AAr?$AAt?$AAo?$AA?5?$AAr?$AAi?$AAc?$AAo?$AA?$AA@ 004c98ec     libucrtd:get_qualified_locale.obj
 0002:0001a91c       ??_C@_1CA@NKJBCAGP@?$AAs?$AAp?$AAa?$AAn?$AAi?$AAs?$AAh?$AA?9?$AAu?$AAr?$AAu?$AAg?$AAu?$AAa?$AAy?$AA?$AA@ 004c991c     libucrtd:get_qualified_locale.obj
 0002:0001a944       ??_C@_1CE@ODILCONM@?$AAs?$AAp?$AAa?$AAn?$AAi?$AAs?$AAh?$AA?9?$AAv?$AAe?$AAn?$AAe?$AAz?$AAu?$AAe?$AAl?$AAa?$AA?$AA@ 004c9944     libucrtd:get_qualified_locale.obj
 0002:0001a970       ??_C@_1CA@OBNMCGFO@?$AAs?$AAw?$AAe?$AAd?$AAi?$AAs?$AAh?$AA?9?$AAf?$AAi?$AAn?$AAl?$AAa?$AAn?$AAd?$AA?$AA@ 004c9970     libucrtd:get_qualified_locale.obj
 0002:0001a998       ??_C@_1M@PIPDDPPI@?$AAs?$AAw?$AAi?$AAs?$AAs?$AA?$AA@ 004c9998     libucrtd:get_qualified_locale.obj
 0002:0001a9a8       ??_C@_15PJPFLCCM@?$AAu?$AAk?$AA?$AA@ 004c99a8     libucrtd:get_qualified_locale.obj
 0002:0001a9b0       ??_C@_15GMFIMNFM@?$AAu?$AAs?$AA?$AA@ 004c99b0     libucrtd:get_qualified_locale.obj
 0002:0001a9b8       ??_C@_17HAEBFAGL@?$AAu?$AAs?$AAa?$AA?$AA@ 004c99b8     libucrtd:get_qualified_locale.obj
 0002:0001a9c4       ??_C@_1BA@DPFJEPHB@?$AAa?$AAm?$AAe?$AAr?$AAi?$AAc?$AAa?$AA?$AA@ 004c99c4     libucrtd:get_qualified_locale.obj
 0002:0001a9d8       ??_C@_1BA@ELOGGFK@?$AAb?$AAr?$AAi?$AAt?$AAa?$AAi?$AAn?$AA?$AA@ 004c99d8     libucrtd:get_qualified_locale.obj
 0002:0001a9ec       ??_C@_1M@GHBGIGDA@?$AAc?$AAh?$AAi?$AAn?$AAa?$AA?$AA@ 004c99ec     libucrtd:get_qualified_locale.obj
 0002:0001a9fc       ??_C@_1M@NCHEJOPO@?$AAc?$AAz?$AAe?$AAc?$AAh?$AA?$AA@ 004c99fc     libucrtd:get_qualified_locale.obj
 0002:0001aa0c       ??_C@_1BA@BKPAPBLA@?$AAe?$AAn?$AAg?$AAl?$AAa?$AAn?$AAd?$AA?$AA@ 004c9a0c     libucrtd:get_qualified_locale.obj
 0002:0001aa20       ??_C@_1BM@HKBCKIPC@?$AAg?$AAr?$AAe?$AAa?$AAt?$AA?5?$AAb?$AAr?$AAi?$AAt?$AAa?$AAi?$AAn?$AA?$AA@ 004c9a20     libucrtd:get_qualified_locale.obj
 0002:0001aa44       ??_C@_1BA@PPCHPGJB@?$AAh?$AAo?$AAl?$AAl?$AAa?$AAn?$AAd?$AA?$AA@ 004c9a44     libucrtd:get_qualified_locale.obj
 0002:0001aa58       ??_C@_1BE@JBMPEGDG@?$AAh?$AAo?$AAn?$AAg?$AA?9?$AAk?$AAo?$AAn?$AAg?$AA?$AA@ 004c9a58     libucrtd:get_qualified_locale.obj
 0002:0001aa70       ??_C@_1BI@KOELBBPJ@?$AAn?$AAe?$AAw?$AA?9?$AAz?$AAe?$AAa?$AAl?$AAa?$AAn?$AAd?$AA?$AA@ 004c9a70     libucrtd:get_qualified_locale.obj
 0002:0001aa8c       ??_C@_15HIEBHAIO@?$AAn?$AAz?$AA?$AA@ 004c9a8c     libucrtd:get_qualified_locale.obj
 0002:0001aa94       ??_C@_1BC@CHBCPFPI@?$AAp?$AAr?$AA?5?$AAc?$AAh?$AAi?$AAn?$AAa?$AA?$AA@ 004c9a94     libucrtd:get_qualified_locale.obj
 0002:0001aaac       ??_C@_1BC@JAOIIFKD@?$AAp?$AAr?$AA?9?$AAc?$AAh?$AAi?$AAn?$AAa?$AA?$AA@ 004c9aac     libucrtd:get_qualified_locale.obj
 0002:0001aac4       ??_C@_1BI@BEHPPHKC@?$AAp?$AAu?$AAe?$AAr?$AAt?$AAo?$AA?9?$AAr?$AAi?$AAc?$AAo?$AA?$AA@ 004c9ac4     libucrtd:get_qualified_locale.obj
 0002:0001aae0       ??_C@_1O@PAEOFKDI@?$AAs?$AAl?$AAo?$AAv?$AAa?$AAk?$AA?$AA@ 004c9ae0     libucrtd:get_qualified_locale.obj
 0002:0001aaf0       ??_C@_1BK@FIHMCKAM@?$AAs?$AAo?$AAu?$AAt?$AAh?$AA?5?$AAa?$AAf?$AAr?$AAi?$AAc?$AAa?$AA?$AA@ 004c9af0     libucrtd:get_qualified_locale.obj
 0002:0001ab10       ??_C@_1BI@NAEOODKB@?$AAs?$AAo?$AAu?$AAt?$AAh?$AA?5?$AAk?$AAo?$AAr?$AAe?$AAa?$AA?$AA@ 004c9b10     libucrtd:get_qualified_locale.obj
 0002:0001ab2c       ??_C@_1BK@FBDGGIFF@?$AAs?$AAo?$AAu?$AAt?$AAh?$AA?9?$AAa?$AAf?$AAr?$AAi?$AAc?$AAa?$AA?$AA@ 004c9b2c     libucrtd:get_qualified_locale.obj
 0002:0001ab4c       ??_C@_1BI@GHLEJDPK@?$AAs?$AAo?$AAu?$AAt?$AAh?$AA?9?$AAk?$AAo?$AAr?$AAe?$AAa?$AA?$AA@ 004c9b4c     libucrtd:get_qualified_locale.obj
 0002:0001ab68       ??_C@_1CE@PLHLOMJF@?$AAt?$AAr?$AAi?$AAn?$AAi?$AAd?$AAa?$AAd?$AA?5?$AA?$CG?$AA?5?$AAt?$AAo?$AAb?$AAa?$AAg?$AAo?$AA?$AA@ 004c9b68     libucrtd:get_qualified_locale.obj
 0002:0001ab94       ??_C@_1BO@MODIMHHI@?$AAu?$AAn?$AAi?$AAt?$AAe?$AAd?$AA?9?$AAk?$AAi?$AAn?$AAg?$AAd?$AAo?$AAm?$AA?$AA@ 004c9b94     libucrtd:get_qualified_locale.obj
 0002:0001abb8       ??_C@_1BM@FFHJONBJ@?$AAu?$AAn?$AAi?$AAt?$AAe?$AAd?$AA?9?$AAs?$AAt?$AAa?$AAt?$AAe?$AAs?$AA?$AA@ 004c9bb8     libucrtd:get_qualified_locale.obj
 0002:0001abe0       ___acrt_rg_language        004c9be0     libucrtd:get_qualified_locale.obj
 0002:0001af88       ___acrt_rg_language_count  004c9f88     libucrtd:get_qualified_locale.obj
 0002:0001af90       ___acrt_rg_country         004c9f90     libucrtd:get_qualified_locale.obj
 0002:0001b0dc       ___acrt_rg_country_count   004ca0dc     libucrtd:get_qualified_locale.obj
 0002:0001b0e0       ??_C@_1HO@CKHMGCFN@?$AAm?$AAi?$AAn?$AAk?$AAe?$AAr?$AAn?$AAe?$AAl?$AA?2?$AAc?$AAr?$AAt?$AAs?$AA?2?$AAu?$AAc?$AAr?$AAt?$AA?2?$AAs?$AAr?$AAc?$AA?2?$AAa?$AAp?$AAp?$AAc?$AAr?$AAt?$AA?2?$AAl@ 004ca0e0     libucrtd:get_qualified_locale.obj
 0002:0001b178       ??_C@_1DI@HCPCNHHP@?$AA_?$AA_?$AAa?$AAc?$AAr?$AAt?$AA_?$AAg?$AAe?$AAt?$AA_?$AAq?$AAu?$AAa?$AAl?$AAi?$AAf?$AAi?$AAe?$AAd?$AA_?$AAl?$AAo?$AAc?$AAa?$AAl?$AAe?$AA?$AA@ 004ca178     libucrtd:get_qualified_locale.obj
 0002:0001b1c0       ??_C@_1BFC@DEALMEIM@?$AAw?$AAc?$AAs?$AAn?$AAc?$AAp?$AAy?$AA_?$AAs?$AA?$CI?$AAl?$AAp?$AAO?$AAu?$AAt?$AAS?$AAt?$AAr?$AA?9?$AA?$DO?$AAs?$AAz?$AAL?$AAo?$AAc?$AAa?$AAl?$AAe?$AAN?$AAa?$AAm?$AAe@ 004ca1c0     libucrtd:get_qualified_locale.obj
 0002:0001b358       ??_C@_1CM@OGEMFJNJ@?$AAL?$AAa?$AAn?$AAg?$AAC?$AAo?$AAu?$AAn?$AAt?$AAr?$AAy?$AAE?$AAn?$AAu?$AAm?$AAP?$AAr?$AAo?$AAc?$AAE?$AAx?$AA?$AA@ 004ca358     libucrtd:get_qualified_locale.obj
 0002:0001b390       ??_C@_1BDC@CGCEDIGP@?$AAw?$AAc?$AAs?$AAn?$AAc?$AAp?$AAy?$AA_?$AAs?$AA?$CI?$AA_?$AAp?$AAs?$AAe?$AAt?$AAl?$AAo?$AAc?$AA_?$AAd?$AAa?$AAt?$AAa?$AA?9?$AA?$DO?$AA_?$AAc?$AAa?$AAc?$AAh?$AAe?$AAL@ 004ca390     libucrtd:get_qualified_locale.obj
 0002:0001b500       ??_C@_1CG@PGLLICHO@?$AAL?$AAa?$AAn?$AAg?$AAu?$AAa?$AAg?$AAe?$AAE?$AAn?$AAu?$AAm?$AAP?$AAr?$AAo?$AAc?$AAE?$AAx?$AA?$AA@ 004ca500     libucrtd:get_qualified_locale.obj
 0002:0001b530       ??_C@_1DC@CPKFANGP@?$AAG?$AAe?$AAt?$AAL?$AAo?$AAc?$AAa?$AAl?$AAe?$AAN?$AAa?$AAm?$AAe?$AAF?$AAr?$AAo?$AAm?$AAD?$AAe?$AAf?$AAa?$AAu?$AAl?$AAt?$AA?$AA@ 004ca530     libucrtd:get_qualified_locale.obj
 0002:0001b570       ??_C@_1BCC@GMJIFDHO@?$AAw?$AAc?$AAs?$AAn?$AAc?$AAp?$AAy?$AA_?$AAs?$AA?$CI?$AA_?$AAp?$AAs?$AAe?$AAt?$AAl?$AAo?$AAc?$AA_?$AAd?$AAa?$AAt?$AAa?$AA?9?$AA?$DO?$AA_?$AAc?$AAa?$AAc?$AAh?$AAe?$AAL@ 004ca570     libucrtd:get_qualified_locale.obj
 0002:0001b6cc       ??_C@_17DNCLJFIF@?$AAA?$AAC?$AAP?$AA?$AA@ 004ca6cc     libucrtd:get_qualified_locale.obj
 0002:0001b6d8       ??_C@_17CIKBIHLH@?$AAO?$AAC?$AAP?$AA?$AA@ 004ca6d8     libucrtd:get_qualified_locale.obj
 0002:0001b6e4       ___rglangidNotDefault      004ca6e4     libucrtd:getqloc_downlevel.obj
 0002:0001b6fc       ??_C@_1CO@HCPPKOH@?$AA_?$AA_?$AAa?$AAc?$AAr?$AAt?$AA_?$AAh?$AAe?$AAa?$AAp?$AA?5?$AA?$CB?$AA?$DN?$AA?5?$AAn?$AAu?$AAl?$AAl?$AAp?$AAt?$AAr?$AA?$AA@ 004ca6fc     libucrtd:heap_handle.obj
 0002:0001b738       ??_C@_1GI@OADBAEGE@?$AAm?$AAi?$AAn?$AAk?$AAe?$AAr?$AAn?$AAe?$AAl?$AA?2?$AAc?$AAr?$AAt?$AAs?$AA?2?$AAu?$AAc?$AAr?$AAt?$AA?2?$AAs?$AAr?$AAc?$AA?2?$AAa?$AAp?$AAp?$AAc?$AAr?$AAt?$AA?2?$AAh@ 004ca738     libucrtd:heap_handle.obj
 0002:0001b7b4       ??_C@_1CC@LLFJPCJO@?$AAn?$AAe?$AAw?$AA_?$AAh?$AAa?$AAn?$AAd?$AAl?$AAe?$AAr?$AA?5?$AA?$DN?$AA?$DN?$AA?5?$AA0?$AA?$AA@ 004ca7b4     libucrtd:new_handler.obj
 0002:0001b7e0       ??_C@_1GI@GALDAPMM@?$AAm?$AAi?$AAn?$AAk?$AAe?$AAr?$AAn?$AAe?$AAl?$AA?2?$AAc?$AAr?$AAt?$AAs?$AA?2?$AAu?$AAc?$AAr?$AAt?$AA?2?$AAs?$AAr?$AAc?$AA?2?$AAa?$AAp?$AAp?$AAc?$AAr?$AAt?$AA?2?$AAh@ 004ca7e0     libucrtd:new_handler.obj
 0002:0001b85c       ??_C@_0CP@JIIONAG@minkernel?2crts?2ucrt?2src?2appcrt?2m@ 004ca85c     libucrtd:signal.obj
 0002:0001b894       ??_C@_1DA@NBILLKNO@?$AAl?$AAo?$AAc?$AAa?$AAl?$AA_?$AAa?$AAc?$AAt?$AAi?$AAo?$AAn?$AA?5?$AA?$CB?$AA?$DN?$AA?5?$AAn?$AAu?$AAl?$AAl?$AAp?$AAt?$AAr?$AA?$AA@ 004ca894     libucrtd:signal.obj
 0002:0001b8d0       ??_C@_1FO@CCGDPEKE@?$AAm?$AAi?$AAn?$AAk?$AAe?$AAr?$AAn?$AAe?$AAl?$AA?2?$AAc?$AAr?$AAt?$AAs?$AA?2?$AAu?$AAc?$AAr?$AAt?$AA?2?$AAs?$AAr?$AAc?$AA?2?$AAa?$AAp?$AAp?$AAc?$AAr?$AAt?$AA?2?$AAm@ 004ca8d0     libucrtd:signal.obj
 0002:0001b940       ??_C@_1M@DMJEIKHL@?$AAr?$AAa?$AAi?$AAs?$AAe?$AA?$AA@ 004ca940     libucrtd:signal.obj
 0002:0001b950       ??_C@_1DO@MLNEDKGB@?$AA?$CI?$AA?$CC?$AAI?$AAn?$AAv?$AAa?$AAl?$AAi?$AAd?$AA?5?$AAs?$AAi?$AAg?$AAn?$AAa?$AAl?$AA?5?$AAo?$AAr?$AA?5?$AAe?$AAr?$AAr?$AAo?$AAr?$AA?$CC?$AA?0?$AA?5?$AA0?$AA?$CJ?$AA?$AA@ 004ca950     libucrtd:signal.obj
 0002:0001b9a0       ??_C@_1GE@KFPKEKCH@?$AAm?$AAi?$AAn?$AAk?$AAe?$AAr?$AAn?$AAe?$AAl?$AA?2?$AAc?$AAr?$AAt?$AAs?$AA?2?$AAu?$AAc?$AAr?$AAt?$AA?2?$AAs?$AAr?$AAc?$AA?2?$AAa?$AAp?$AAp?$AAc?$AAr?$AAt?$AA?2?$AAt@ 004ca9a0     libucrtd:ieee87.obj
 0002:0001ba18       ??_C@_1BO@OFDNCLL@?$AA_?$AAs?$AAe?$AAt?$AA_?$AAc?$AAo?$AAn?$AAt?$AAr?$AAo?$AAl?$AAf?$AAp?$AA?$AA@ 004caa18     libucrtd:ieee87.obj
 0002:0001ba40       ??_C@_1GO@OKJGOMCB@?$AA_?$AAc?$AAo?$AAn?$AAt?$AAr?$AAo?$AAl?$AAf?$AAp?$AA_?$AAs?$AA?$CI?$AA?$CI?$AA?$CI?$AAv?$AAo?$AAi?$AAd?$AA?5?$AA?$CK?$AA?$CJ?$AA0?$AA?$CJ?$AA?0?$AA?5?$AAn?$AAe?$AAw?$AAc?$AAt?$AAr@ 004caa40     libucrtd:ieee87.obj
 0002:0001bac4       ??_C@_1BG@HHIFPOEK@?$AAm?$AAs?$AAv?$AAc?$AAr?$AAt?$AA?4?$AAd?$AAl?$AAl?$AA?$AA@ 004caac4     libucrtd:free_base.obj
 0002:0001bae0       ??_C@_1CE@NPMGPNNP@?$AAI?$AAS?$AA_?$AA2?$AA_?$AAP?$AAO?$AAW?$AA_?$AAN?$AA?$CI?$AAa?$AAl?$AAi?$AAg?$AAn?$AA?$CJ?$AA?$AA@ 004caae0     libucrtd:align.obj
 0002:0001bb10       ??_C@_1FM@GHAMPDNO@?$AAm?$AAi?$AAn?$AAk?$AAe?$AAr?$AAn?$AAe?$AAl?$AA?2?$AAc?$AAr?$AAt?$AAs?$AA?2?$AAu?$AAc?$AAr?$AAt?$AA?2?$AAs?$AAr?$AAc?$AA?2?$AAa?$AAp?$AAp?$AAc?$AAr?$AAt?$AA?2?$AAh@ 004cab10     libucrtd:align.obj
 0002:0001bb80       ??_C@_1DI@LCGAEAA@?$AA_?$AAa?$AAl?$AAi?$AAg?$AAn?$AAe?$AAd?$AA_?$AAo?$AAf?$AAf?$AAs?$AAe?$AAt?$AA_?$AAm?$AAa?$AAl?$AAl?$AAo?$AAc?$AA_?$AAb?$AAa?$AAs?$AAe?$AA?$AA@ 004cab80     libucrtd:align.obj
 0002:0001bbc4       ??_C@_1DK@PBMGAKHJ@?$AA_?$AAa?$AAl?$AAi?$AAg?$AAn?$AAe?$AAd?$AA_?$AAo?$AAf?$AAf?$AAs?$AAe?$AAt?$AA_?$AAr?$AAe?$AAa?$AAl?$AAl?$AAo?$AAc?$AA_?$AAb?$AAa?$AAs?$AAe?$AA?$AA@ 004cabc4     libucrtd:align.obj
 0002:0001bc0c       ??_C@_1CI@DHKEEEHJ@?$AA_?$AAa?$AAl?$AAi?$AAg?$AAn?$AAe?$AAd?$AA_?$AAm?$AAs?$AAi?$AAz?$AAe?$AA_?$AAb?$AAa?$AAs?$AAe?$AA?$AA@ 004cac0c     libucrtd:align.obj
 0002:0001bc40       ??_C@_1FO@GEKPJHID@?$AAm?$AAi?$AAn?$AAk?$AAe?$AAr?$AAn?$AAe?$AAl?$AA?2?$AAc?$AAr?$AAt?$AAs?$AA?2?$AAu?$AAc?$AAr?$AAt?$AA?2?$AAs?$AAr?$AAc?$AA?2?$AAa?$AAp?$AAp?$AAc?$AAr?$AAt?$AA?2?$AAh@ 004cac40     libucrtd:expand.obj
 0002:0001bcb0       ??_C@_1BK@JMCGJOCC@?$AA_?$AAe?$AAx?$AAp?$AAa?$AAn?$AAd?$AA_?$AAb?$AAa?$AAs?$AAe?$AA?$AA@ 004cacb0     libucrtd:expand.obj
 0002:0001bcd0       ??_C@_1FA@IFFFOLDJ@?$AAn?$AAR?$AAp?$AAt?$AAT?$AAy?$AAp?$AAe?$AA?5?$AA?$DO?$AA?$DN?$AA?5?$AA0?$AA?5?$AA?$CG?$AA?$CG?$AA?5?$AAn?$AAR?$AAp?$AAt?$AAT?$AAy?$AAp?$AAe?$AA?5?$AA?$DM?$AA?5?$AA_?$AAC?$AAR?$AAT@ 004cacd0     libucrtd:dbgrptt.obj
 0002:0001bd30       ??_C@_1GA@LFAOKOOP@?$AAm?$AAi?$AAn?$AAk?$AAe?$AAr?$AAn?$AAe?$AAl?$AA?2?$AAc?$AAr?$AAt?$AAs?$AA?2?$AAu?$AAc?$AAr?$AAt?$AA?2?$AAs?$AAr?$AAc?$AA?2?$AAa?$AAp?$AAp?$AAc?$AAr?$AAt?$AA?2?$AAm@ 004cad30     libucrtd:dbgrptt.obj
 0002:0001bda4       ??_C@_1CE@FIHIECNJ@?$AA_?$AAC?$AAr?$AAt?$AAS?$AAe?$AAt?$AAR?$AAe?$AAp?$AAo?$AAr?$AAt?$AAM?$AAo?$AAd?$AAe?$AA?$AA@ 004cada4     libucrtd:dbgrptt.obj
 0002:0001bdd0       ??_C@_1NK@LOFHIHFC@?$AAf?$AAM?$AAo?$AAd?$AAe?$AA?5?$AA?$DN?$AA?$DN?$AA?5?$AA_?$AAC?$AAR?$AAT?$AAD?$AAB?$AAG?$AA_?$AAR?$AAE?$AAP?$AAO?$AAR?$AAT?$AA_?$AAM?$AAO?$AAD?$AAE?$AA?5?$AA?$HM?$AA?$HM?$AA?5@ 004cadd0     libucrtd:dbgrptt.obj
 0002:0001bed8       ??_C@_1CE@IKKEDCME@?$AA_?$AAC?$AAr?$AAt?$AAS?$AAe?$AAt?$AAR?$AAe?$AAp?$AAo?$AAr?$AAt?$AAF?$AAi?$AAl?$AAe?$AA?$AA@ 004caed8     libucrtd:dbgrptt.obj
 0002:0001bf04       ??_C@_1CA@KHJHLKA@?$AA_?$AAV?$AAC?$AAr?$AAt?$AAD?$AAb?$AAg?$AAR?$AAe?$AAp?$AAo?$AAr?$AAt?$AAA?$AA?$AA@ 004caf04     libucrtd:dbgrptt.obj
 0002:0001bf30       ??_C@_1FA@JPHJBHEM@?$AA_?$AAi?$AAt?$AAo?$AAa?$AA_?$AAs?$AA?$CI?$AAn?$AAL?$AAi?$AAn?$AAe?$AA?0?$AA?5?$AAs?$AAz?$AAL?$AAi?$AAn?$AAe?$AAM?$AAe?$AAs?$AAs?$AAa?$AAg?$AAe?$AA?0?$AA?5?$AA4?$AA0@ 004caf30     libucrtd:dbgrptt.obj
 0002:0001bf90       ??_C@_0CG@BNGLOCEO@Second?5Chance?5Assertion?5Failed?3?5@ 004caf90     libucrtd:dbgrptt.obj
 0002:0001bfc0       ??_C@_0P@DFJNDPOP@?$DMfile?5unknown?$DO?$AA@ 004cafc0     libucrtd:dbgrptt.obj
 0002:0001bfd4       ??_C@_07BHGABMGB@?0?5Line?5?$AA@ 004cafd4     libucrtd:dbgrptt.obj
 0002:0001bfe0       ??_C@_1JI@GAALPGBM@?$AAs?$AAt?$AAr?$AAc?$AAp?$AAy?$AA_?$AAs?$AA?$CI?$AAs?$AAz?$AAU?$AAs?$AAe?$AAr?$AAM?$AAe?$AAs?$AAs?$AAa?$AAg?$AAe?$AA?0?$AA?5?$AA4?$AA0?$AA9?$AA6?$AA?0?$AA?5?$AA?$CC?$AA_@ 004cafe0     libucrtd:dbgrptt.obj
 0002:0001c098       ??_C@_0CL@EACFGMNB@_CrtDbgReport?3?5String?5too?5long?5o@ 004cb098     libucrtd:dbgrptt.obj
 0002:0001c0d0       ??_C@_1KK@GIGAEDMO@?$AAs?$AAt?$AAr?$AAc?$AAp?$AAy?$AA_?$AAs?$AA?$CI?$AAs?$AAz?$AAL?$AAi?$AAn?$AAe?$AAM?$AAe?$AAs?$AAs?$AAa?$AAg?$AAe?$AA?0?$AA?5?$AA4?$AA0?$AA9?$AA6?$AA?0?$AA?5?$AAs?$AAz@ 004cb0d0     libucrtd:dbgrptt.obj
 0002:0001c19c       ??_C@_0BD@CAENFOHP@Assertion?5failed?3?5?$AA@ 004cb19c     libucrtd:dbgrptt.obj
 0002:0001c1b4       ??_C@_0BC@LAIDCHCH@Assertion?5failed?$CB?$AA@ 004cb1b4     libucrtd:dbgrptt.obj
 0002:0001c1d0       ??_C@_1FK@NPGBPOFO@?$AAs?$AAt?$AAr?$AAc?$AAa?$AAt?$AA_?$AAs?$AA?$CI?$AAs?$AAz?$AAL?$AAi?$AAn?$AAe?$AAM?$AAe?$AAs?$AAs?$AAa?$AAg?$AAe?$AA?0?$AA?5?$AA4?$AA0?$AA9?$AA6?$AA?0?$AA?5?$AAs?$AAz@ 004cb1d0     libucrtd:dbgrptt.obj
 0002:0001c240       ??_C@_1EI@CACDLAFK@?$AAs?$AAt?$AAr?$AAc?$AAa?$AAt?$AA_?$AAs?$AA?$CI?$AAs?$AAz?$AAL?$AAi?$AAn?$AAe?$AAM?$AAe?$AAs?$AAs?$AAa?$AAg?$AAe?$AA?0?$AA?5?$AA4?$AA0?$AA9?$AA6?$AA?0?$AA?5?$AA?$CC?$AA?2@ 004cb240     libucrtd:dbgrptt.obj
 0002:0001c298       ??_C@_01LIIJDEN@?$AN?$AA@  004cb298     libucrtd:dbgrptt.obj
 0002:0001c2a0       ??_C@_1EI@LDHJEDO@?$AAs?$AAt?$AAr?$AAc?$AAa?$AAt?$AA_?$AAs?$AA?$CI?$AAs?$AAz?$AAL?$AAi?$AAn?$AAe?$AAM?$AAe?$AAs?$AAs?$AAa?$AAg?$AAe?$AA?0?$AA?5?$AA4?$AA0?$AA9?$AA6?$AA?0?$AA?5?$AA?$CC?$AA?2@ 004cb2a0     libucrtd:dbgrptt.obj
 0002:0001c2f8       ??_C@_0M@IPILFDFN@?$CFs?$CI?$CFd?$CJ?5?3?5?$CFs?$AA@ 004cb2f8     libucrtd:dbgrptt.obj
 0002:0001c308       ??_C@_1JG@CPKCIOEE@?$AAs?$AAt?$AAr?$AAc?$AAp?$AAy?$AA_?$AAs?$AA?$CI?$AAs?$AAz?$AAO?$AAu?$AAt?$AAM?$AAe?$AAs?$AAs?$AAa?$AAg?$AAe?$AA?0?$AA?5?$AA4?$AA0?$AA9?$AA6?$AA?0?$AA?5?$AA?$CC?$AA_?$AAC@ 004cb308     libucrtd:dbgrptt.obj
 0002:0001c3c0       ??_C@_1FI@IBIOIHEG@?$AAs?$AAt?$AAr?$AAc?$AAp?$AAy?$AA_?$AAs?$AA?$CI?$AAs?$AAz?$AAO?$AAu?$AAt?$AAM?$AAe?$AAs?$AAs?$AAa?$AAg?$AAe?$AA?0?$AA?5?$AA4?$AA0?$AA9?$AA6?$AA?0?$AA?5?$AAs?$AAz?$AAL@ 004cb3c0     libucrtd:dbgrptt.obj
 0002:0001c430       ??_C@_1IM@OOKIFKOH@?$AAe?$AA?5?$AA?$DN?$AA?5?$AAm?$AAb?$AAs?$AAt?$AAo?$AAw?$AAc?$AAs?$AA_?$AAs?$AA?$CI?$AA?$CG?$AAr?$AAe?$AAt?$AA?0?$AA?5?$AAs?$AAz?$AAO?$AAu?$AAt?$AAM?$AAe?$AAs?$AAs?$AAa?$AAg@ 004cb430     libucrtd:dbgrptt.obj
 0002:0001c4d8       ??_C@_1MC@IGEECMDB@?$AAw?$AAc?$AAs?$AAc?$AAp?$AAy?$AA_?$AAs?$AA?$CI?$AAs?$AAz?$AAO?$AAu?$AAt?$AAM?$AAe?$AAs?$AAs?$AAa?$AAg?$AAe?$AA2?$AA?0?$AA?5?$AA4?$AA0?$AA9?$AA6?$AA?0?$AA?5?$AAL?$AA?$CC@ 004cb4d8     libucrtd:dbgrptt.obj
 0002:0001c5c0       ??_C@_1HO@PJOFIKFE@?$AA_?$AAC?$AAr?$AAt?$AAD?$AAb?$AAg?$AAR?$AAe?$AAp?$AAo?$AAr?$AAt?$AA?3?$AA?5?$AAS?$AAt?$AAr?$AAi?$AAn?$AAg?$AA?5?$AAt?$AAo?$AAo?$AA?5?$AAl?$AAo?$AAn?$AAg?$AA?5?$AAo@ 004cb5c0     libucrtd:dbgrptt.obj
 0002:0001c658       ??_C@_1CA@HPALHDOD@?$AA_?$AAV?$AAC?$AAr?$AAt?$AAD?$AAb?$AAg?$AAR?$AAe?$AAp?$AAo?$AAr?$AAt?$AAW?$AA?$AA@ 004cb658     libucrtd:dbgrptt.obj
 0002:0001c680       ??_C@_1FA@CNLLOMHI@?$AA_?$AAi?$AAt?$AAo?$AAw?$AA_?$AAs?$AA?$CI?$AAn?$AAL?$AAi?$AAn?$AAe?$AA?0?$AA?5?$AAs?$AAz?$AAL?$AAi?$AAn?$AAe?$AAM?$AAe?$AAs?$AAs?$AAa?$AAg?$AAe?$AA?0?$AA?5?$AA4?$AA0@ 004cb680     libucrtd:dbgrptt.obj
 0002:0001c6e0       ??_C@_1EM@MJFLEDMB@?$AAS?$AAe?$AAc?$AAo?$AAn?$AAd?$AA?5?$AAC?$AAh?$AAa?$AAn?$AAc?$AAe?$AA?5?$AAA?$AAs?$AAs?$AAe?$AAr?$AAt?$AAi?$AAo?$AAn?$AA?5?$AAF?$AAa?$AAi?$AAl?$AAe?$AAd?$AA?3?$AA?5@ 004cb6e0     libucrtd:dbgrptt.obj
 0002:0001c73c       ??_C@_1BO@OCHMLCAG@?$AA?$DM?$AAf?$AAi?$AAl?$AAe?$AA?5?$AAu?$AAn?$AAk?$AAn?$AAo?$AAw?$AAn?$AA?$DO?$AA?$AA@ 004cb73c     libucrtd:dbgrptt.obj
 0002:0001c760       ??_C@_1BA@ELMMDCFC@?$AA?0?$AA?5?$AAL?$AAi?$AAn?$AAe?$AA?5?$AA?$AA@ 004cb760     libucrtd:dbgrptt.obj
 0002:0001c774       ??_C@_13LBAGMAIH@?$AA?6?$AA?$AA@ 004cb774     libucrtd:dbgrptt.obj
 0002:0001c778       ??_C@_1JK@KHFABAEO@?$AAw?$AAc?$AAs?$AAc?$AAp?$AAy?$AA_?$AAs?$AA?$CI?$AAs?$AAz?$AAU?$AAs?$AAe?$AAr?$AAM?$AAe?$AAs?$AAs?$AAa?$AAg?$AAe?$AA?0?$AA?5?$AA4?$AA0?$AA9?$AA6?$AA?0?$AA?5?$AAL?$AA?$CC@ 004cb778     libucrtd:dbgrptt.obj
 0002:0001c830       ??_C@_1KO@DGAHENCH@?$AAw?$AAc?$AAs?$AAc?$AAp?$AAy?$AA_?$AAs?$AA?$CI?$AAs?$AAz?$AAL?$AAi?$AAn?$AAe?$AAM?$AAe?$AAs?$AAs?$AAa?$AAg?$AAe?$AA?0?$AA?5?$AA4?$AA0?$AA9?$AA6?$AA?0?$AA?5?$AAs?$AAz@ 004cb830     libucrtd:dbgrptt.obj
 0002:0001c900       ??_C@_1CG@FFFGGODN@?$AAA?$AAs?$AAs?$AAe?$AAr?$AAt?$AAi?$AAo?$AAn?$AA?5?$AAf?$AAa?$AAi?$AAl?$AAe?$AAd?$AA?3?$AA?5?$AA?$AA@ 004cb900     libucrtd:dbgrptt.obj
 0002:0001c930       ??_C@_1CE@OJBNHDMO@?$AAA?$AAs?$AAs?$AAe?$AAr?$AAt?$AAi?$AAo?$AAn?$AA?5?$AAf?$AAa?$AAi?$AAl?$AAe?$AAd?$AA?$CB?$AA?$AA@ 004cb930     libucrtd:dbgrptt.obj
 0002:0001c960       ??_C@_1FK@HPADHBBD@?$AAw?$AAc?$AAs?$AAc?$AAa?$AAt?$AA_?$AAs?$AA?$CI?$AAs?$AAz?$AAL?$AAi?$AAn?$AAe?$AAM?$AAe?$AAs?$AAs?$AAa?$AAg?$AAe?$AA?0?$AA?5?$AA4?$AA0?$AA9?$AA6?$AA?0?$AA?5?$AAs?$AAz@ 004cb960     libucrtd:dbgrptt.obj
 0002:0001c9d0       ??_C@_1EK@NMDFGHMF@?$AAw?$AAc?$AAs?$AAc?$AAa?$AAt?$AA_?$AAs?$AA?$CI?$AAs?$AAz?$AAL?$AAi?$AAn?$AAe?$AAM?$AAe?$AAs?$AAs?$AAa?$AAg?$AAe?$AA?0?$AA?5?$AA4?$AA0?$AA9?$AA6?$AA?0?$AA?5?$AAL?$AA?$CC@ 004cb9d0     libucrtd:dbgrptt.obj
 0002:0001ca28       ??_C@_13CMNBPIDO@?$AA?$AN?$AA?$AA@ 004cba28     libucrtd:dbgrptt.obj
 0002:0001ca30       ??_C@_1EK@PHCBEDKB@?$AAw?$AAc?$AAs?$AAc?$AAa?$AAt?$AA_?$AAs?$AA?$CI?$AAs?$AAz?$AAL?$AAi?$AAn?$AAe?$AAM?$AAe?$AAs?$AAs?$AAa?$AAg?$AAe?$AA?0?$AA?5?$AA4?$AA0?$AA9?$AA6?$AA?0?$AA?5?$AAL?$AA?$CC@ 004cba30     libucrtd:dbgrptt.obj
 0002:0001ca88       ??_C@_1BM@GIBPMLNL@?$AA?$CF?$AAl?$AAs?$AA?$CI?$AA?$CF?$AAd?$AA?$CJ?$AA?5?$AA?3?$AA?5?$AA?$CF?$AAl?$AAs?$AA?$AA@ 004cba88     libucrtd:dbgrptt.obj
 0002:0001cab0       ??_C@_1JI@EACPGHID@?$AAw?$AAc?$AAs?$AAc?$AAp?$AAy?$AA_?$AAs?$AA?$CI?$AAs?$AAz?$AAO?$AAu?$AAt?$AAM?$AAe?$AAs?$AAs?$AAa?$AAg?$AAe?$AA?0?$AA?5?$AA4?$AA0?$AA9?$AA6?$AA?0?$AA?5?$AAL?$AA?$CC?$AA_@ 004cbab0     libucrtd:dbgrptt.obj
 0002:0001cb68       ??_C@_1FI@DBAIJPJE@?$AAw?$AAc?$AAs?$AAc?$AAp?$AAy?$AA_?$AAs?$AA?$CI?$AAs?$AAz?$AAO?$AAu?$AAt?$AAM?$AAe?$AAs?$AAs?$AAa?$AAg?$AAe?$AA?0?$AA?5?$AA4?$AA0?$AA9?$AA6?$AA?0?$AA?5?$AAs?$AAz?$AAL@ 004cbb68     libucrtd:dbgrptt.obj
 0002:0001cbd8       ??_C@_1IK@LEBMBAP@?$AAw?$AAc?$AAs?$AAt?$AAo?$AAm?$AAb?$AAs?$AA_?$AAs?$AA?$CI?$AAn?$AAu?$AAl?$AAl?$AAp?$AAt?$AAr?$AA?0?$AA?5?$AAs?$AAz?$AAO?$AAu?$AAt?$AAM?$AAe?$AAs?$AAs?$AAa?$AAg?$AAe@ 004cbbd8     libucrtd:dbgrptt.obj
 0002:0001cc80       ??_C@_1MA@LBAMNNOB@?$AAs?$AAt?$AAr?$AAc?$AAp?$AAy?$AA_?$AAs?$AA?$CI?$AAs?$AAz?$AAO?$AAu?$AAt?$AAM?$AAe?$AAs?$AAs?$AAa?$AAg?$AAe?$AA2?$AA?0?$AA?5?$AA4?$AA0?$AA9?$AA6?$AA?0?$AA?5?$AA?$CC?$AA_@ 004cbc80     libucrtd:dbgrptt.obj
 0002:0001cd68       ??_C@_0DP@GNPEPHJD@_CrtDbgReport?3?5String?5too?5long?5o@ 004cbd68     libucrtd:dbgrptt.obj
 0002:0001cdb8       ??_C@_1IE@CPGKIAGP@?$AAw?$AAc?$AAs?$AAt?$AAo?$AAm?$AAb?$AAs?$AA_?$AAs?$AA?$CI?$AA?$CG?$AAr?$AAe?$AAt?$AA?0?$AA?5?$AAs?$AAz?$AAa?$AAO?$AAu?$AAt?$AAM?$AAe?$AAs?$AAs?$AAa?$AAg?$AAe?$AA?0?$AA?5@ 004cbdb8     libucrtd:dbgrptt.obj
 0002:0001d6e4       ??_C@_15EMKDOKLE@?$AAa?$AAr?$AA?$AA@ 004cc6e4     libucrtd:lcidtoname_downlevel.obj
 0002:0001d6ec       ??_C@_15KNPADPLH@?$AAb?$AAg?$AA?$AA@ 004cc6ec     libucrtd:lcidtoname_downlevel.obj
 0002:0001d6f4       ??_C@_15EDMHLDMO@?$AAc?$AAa?$AA?$AA@ 004cc6f4     libucrtd:lcidtoname_downlevel.obj
 0002:0001d6fc       ??_C@_1O@BPEAJADD@?$AAz?$AAh?$AA?9?$AAC?$AAH?$AAS?$AA?$AA@ 004cc6fc     libucrtd:lcidtoname_downlevel.obj
 0002:0001d70c       ??_C@_15LJNHCMNK@?$AAc?$AAs?$AA?$AA@ 004cc70c     libucrtd:lcidtoname_downlevel.obj
 0002:0001d714       ??_C@_15FOMCIDHG@?$AAd?$AAa?$AA?$AA@ 004cc714     libucrtd:lcidtoname_downlevel.obj
 0002:0001d71c       ??_C@_15NBKABECB@?$AAd?$AAe?$AA?$AA@ 004cc71c     libucrtd:lcidtoname_downlevel.obj
 0002:0001d724       ??_C@_15GHPEIIAO@?$AAe?$AAl?$AA?$AA@ 004cc724     libucrtd:lcidtoname_downlevel.obj
 0002:0001d72c       ??_C@_15MNPNEAIF@?$AAe?$AAn?$AA?$AA@ 004cc72c     libucrtd:lcidtoname_downlevel.obj
 0002:0001d734       ??_C@_15GPIOMPMH@?$AAe?$AAs?$AA?$AA@ 004cc734     libucrtd:lcidtoname_downlevel.obj
 0002:0001d73c       ??_C@_15NGLOAKJC@?$AAf?$AAi?$AA?$AA@ 004cc73c     libucrtd:lcidtoname_downlevel.obj
 0002:0001d744       ??_C@_15FBKGNKAM@?$AAf?$AAr?$AA?$AA@ 004cc744     libucrtd:lcidtoname_downlevel.obj
 0002:0001d74c       ??_C@_15KGGCNEFK@?$AAh?$AAe?$AA?$AA@ 004cc74c     libucrtd:lcidtoname_downlevel.obj
 0002:0001d754       ??_C@_15PGHLIDMF@?$AAh?$AAu?$AA?$AA@ 004cc754     libucrtd:lcidtoname_downlevel.obj
 0002:0001d75c       ??_C@_15BIEMAPLM@?$AAi?$AAs?$AA?$AA@ 004cc75c     libucrtd:lcidtoname_downlevel.obj
 0002:0001d764       ??_C@_15IFJLDHAF@?$AAi?$AAt?$AA?$AA@ 004cc764     libucrtd:lcidtoname_downlevel.obj
 0002:0001d76c       ??_C@_15GEMIOCAG@?$AAj?$AAa?$AA?$AA@ 004cc76c     libucrtd:lcidtoname_downlevel.obj
 0002:0001d774       ??_C@_15EPELEGJA@?$AAk?$AAo?$AA?$AA@ 004cc774     libucrtd:lcidtoname_downlevel.obj
 0002:0001d77c       ??_C@_15NDDHIMN@?$AAn?$AAl?$AA?$AA@ 004cc77c     libucrtd:lcidtoname_downlevel.obj
 0002:0001d784       ??_C@_15BPIGNHCD@?$AAn?$AAo?$AA?$AA@ 004cc784     libucrtd:lcidtoname_downlevel.obj
 0002:0001d78c       ??_C@_15DEOPBLCG@?$AAp?$AAl?$AA?$AA@ 004cc78c     libucrtd:lcidtoname_downlevel.obj
 0002:0001d794       ??_C@_15KBECGEFG@?$AAp?$AAt?$AA?$AA@ 004cc794     libucrtd:lcidtoname_downlevel.obj
 0002:0001d79c       ??_C@_15GLJCBFMD@?$AAr?$AAo?$AA?$AA@ 004cc79c     libucrtd:lcidtoname_downlevel.obj
 0002:0001d7a4       ??_C@_15FEDGKCDI@?$AAr?$AAu?$AA?$AA@ 004cc7a4     libucrtd:lcidtoname_downlevel.obj
 0002:0001d7ac       ??_C@_15GLKMLLHM@?$AAh?$AAr?$AA?$AA@ 004cc7ac     libucrtd:lcidtoname_downlevel.obj
 0002:0001d7b4       ??_C@_15CPKMFBDB@?$AAs?$AAk?$AA?$AA@ 004cc7b4     libucrtd:lcidtoname_downlevel.obj
 0002:0001d7bc       ??_C@_15BAAIOGMK@?$AAs?$AAq?$AA?$AA@ 004cc7bc     libucrtd:lcidtoname_downlevel.obj
 0002:0001d7c4       ??_C@_15INNPNOHD@?$AAs?$AAv?$AA?$AA@ 004cc7c4     libucrtd:lcidtoname_downlevel.obj
 0002:0001d7cc       ??_C@_15CABMMOGH@?$AAt?$AAh?$AA?$AA@ 004cc7cc     libucrtd:lcidtoname_downlevel.obj
 0002:0001d7d4       ??_C@_15BPLIHJJM@?$AAt?$AAr?$AA?$AA@ 004cc7d4     libucrtd:lcidtoname_downlevel.obj
 0002:0001d7dc       ??_C@_15NEOEKKDJ@?$AAu?$AAr?$AA?$AA@ 004cc7dc     libucrtd:lcidtoname_downlevel.obj
 0002:0001d7e4       ??_C@_15NFICGAJK@?$AAi?$AAd?$AA?$AA@ 004cc7e4     libucrtd:lcidtoname_downlevel.obj
 0002:0001d7ec       ??_C@_15HPJPHDM@?$AAb?$AAe?$AA?$AA@ 004cc7ec     libucrtd:lcidtoname_downlevel.obj
 0002:0001d7f4       ??_C@_15LCHLGJII@?$AAs?$AAl?$AA?$AA@ 004cc7f4     libucrtd:lcidtoname_downlevel.obj
 0002:0001d7fc       ??_C@_15PCFJPHHO@?$AAe?$AAt?$AA?$AA@ 004cc7fc     libucrtd:lcidtoname_downlevel.obj
 0002:0001d804       ??_C@_15HPFPGODN@?$AAl?$AAv?$AA?$AA@ 004cc804     libucrtd:lcidtoname_downlevel.obj
 0002:0001d80c       ??_C@_15NFFGKGLG@?$AAl?$AAt?$AA?$AA@ 004cc80c     libucrtd:lcidtoname_downlevel.obj
 0002:0001d814       ??_C@_15BDAKCCHN@?$AAf?$AAa?$AA?$AA@ 004cc814     libucrtd:lcidtoname_downlevel.obj
 0002:0001d81c       ??_C@_15NFGIAIAJ@?$AAv?$AAi?$AA?$AA@ 004cc81c     libucrtd:lcidtoname_downlevel.obj
 0002:0001d824       ??_C@_15LMKNDMHN@?$AAh?$AAy?$AA?$AA@ 004cc824     libucrtd:lcidtoname_downlevel.obj
 0002:0001d82c       ??_C@_15IJBHMCFL@?$AAa?$AAz?$AA?$AA@ 004cc82c     libucrtd:lcidtoname_downlevel.obj
 0002:0001d834       ??_C@_15EKOFJABL@?$AAe?$AAu?$AA?$AA@ 004cc834     libucrtd:lcidtoname_downlevel.obj
 0002:0001d83c       ??_C@_15BGHADCNK@?$AAm?$AAk?$AA?$AA@ 004cc83c     libucrtd:lcidtoname_downlevel.obj
 0002:0001d844       ??_C@_15JDNICKHM@?$AAa?$AAf?$AA?$AA@ 004cc844     libucrtd:lcidtoname_downlevel.obj
 0002:0001d84c       ??_C@_15KPJEDBKD@?$AAk?$AAa?$AA?$AA@ 004cc84c     libucrtd:lcidtoname_downlevel.obj
 0002:0001d854       ??_C@_15PDNFFFEO@?$AAf?$AAo?$AA?$AA@ 004cc854     libucrtd:lcidtoname_downlevel.obj
 0002:0001d85c       ??_C@_15OMLEGLOC@?$AAh?$AAi?$AA?$AA@ 004cc85c     libucrtd:lcidtoname_downlevel.obj
 0002:0001d864       ??_C@_15IDNNENKK@?$AAm?$AAs?$AA?$AA@ 004cc864     libucrtd:lcidtoname_downlevel.obj
 0002:0001d86c       ??_C@_15MACJNBMH@?$AAk?$AAk?$AA?$AA@ 004cc86c     libucrtd:lcidtoname_downlevel.obj
 0002:0001d874       ??_C@_15DKDJEOND@?$AAk?$AAy?$AA?$AA@ 004cc874     libucrtd:lcidtoname_downlevel.obj
 0002:0001d87c       ??_C@_15DFGDLJBG@?$AAs?$AAw?$AA?$AA@ 004cc87c     libucrtd:lcidtoname_downlevel.obj
 0002:0001d884       ??_C@_15BBFAICNG@?$AAu?$AAz?$AA?$AA@ 004cc884     libucrtd:lcidtoname_downlevel.obj
 0002:0001d88c       ??_C@_15DKNDCGEA@?$AAt?$AAt?$AA?$AA@ 004cc88c     libucrtd:lcidtoname_downlevel.obj
 0002:0001d894       ??_C@_15MGIFMDPL@?$AAp?$AAa?$AA?$AA@ 004cc894     libucrtd:lcidtoname_downlevel.obj
 0002:0001d89c       ??_C@_15HCNDBBA@?$AAg?$AAu?$AA?$AA@ 004cc89c     libucrtd:lcidtoname_downlevel.obj
 0002:0001d8a4       ??_C@_15FNBEIBON@?$AAt?$AAa?$AA?$AA@ 004cc8a4     libucrtd:lcidtoname_downlevel.obj
 0002:0001d8ac       ??_C@_15NCHGBGLK@?$AAt?$AAe?$AA?$AA@ 004cc8ac     libucrtd:lcidtoname_downlevel.obj
 0002:0001d8b4       ??_C@_15PHPHCBPF@?$AAk?$AAn?$AA?$AA@ 004cc8b4     libucrtd:lcidtoname_downlevel.obj
 0002:0001d8bc       ??_C@_15DLGBCKMP@?$AAm?$AAr?$AA?$AA@ 004cc8bc     libucrtd:lcidtoname_downlevel.obj
 0002:0001d8c4       ??_C@_15EABBLBFF@?$AAs?$AAa?$AA?$AA@ 004cc8c4     libucrtd:lcidtoname_downlevel.obj
 0002:0001d8cc       ??_C@_15CBKOMCOI@?$AAm?$AAn?$AA?$AA@ 004cc8cc     libucrtd:lcidtoname_downlevel.obj
 0002:0001d8d4       ??_C@_15CKDMCJAF@?$AAg?$AAl?$AA?$AA@ 004cc8d4     libucrtd:lcidtoname_downlevel.obj
 0002:0001d8dc       ??_C@_17CNJFBPG@?$AAk?$AAo?$AAk?$AA?$AA@ 004cc8dc     libucrtd:lcidtoname_downlevel.obj
 0002:0001d8e8       ??_C@_17FFBJICPL@?$AAs?$AAy?$AAr?$AA?$AA@ 004cc8e8     libucrtd:lcidtoname_downlevel.obj
 0002:0001d8f4       ??_C@_17KPNDCPAF@?$AAd?$AAi?$AAv?$AA?$AA@ 004cc8f4     libucrtd:lcidtoname_downlevel.obj
 0002:0001d900       ??_C@_1M@OKAHONE@?$AAa?$AAr?$AA?9?$AAS?$AAA?$AA?$AA@ 004cc900     libucrtd:lcidtoname_downlevel.obj
 0002:0001d910       ??_C@_1M@FFFIGIGK@?$AAb?$AAg?$AA?9?$AAB?$AAG?$AA?$AA@ 004cc910     libucrtd:lcidtoname_downlevel.obj
 0002:0001d920       ??_C@_1M@BJNKEDC@?$AAc?$AAa?$AA?9?$AAE?$AAS?$AA?$AA@ 004cc920     libucrtd:lcidtoname_downlevel.obj
 0002:0001d930       ??_C@_1M@IJJHFJHA@?$AAc?$AAs?$AA?9?$AAC?$AAZ?$AA?$AA@ 004cc930     libucrtd:lcidtoname_downlevel.obj
 0002:0001d940       ??_C@_1M@CLPEOBGI@?$AAd?$AAa?$AA?9?$AAD?$AAK?$AA?$AA@ 004cc940     libucrtd:lcidtoname_downlevel.obj
 0002:0001d950       ??_C@_1M@MCMADGCB@?$AAd?$AAe?$AA?9?$AAD?$AAE?$AA?$AA@ 004cc950     libucrtd:lcidtoname_downlevel.obj
 0002:0001d960       ??_C@_1M@OOCKEMAM@?$AAe?$AAl?$AA?9?$AAG?$AAR?$AA?$AA@ 004cc960     libucrtd:lcidtoname_downlevel.obj
 0002:0001d970       ??_C@_1M@DDNJFGID@?$AAf?$AAi?$AA?9?$AAF?$AAI?$AA?$AA@ 004cc970     libucrtd:lcidtoname_downlevel.obj
 0002:0001d980       ??_C@_1M@GLIPPMAC@?$AAf?$AAr?$AA?9?$AAF?$AAR?$AA?$AA@ 004cc980     libucrtd:lcidtoname_downlevel.obj
 0002:0001d990       ??_C@_1M@GFMCHPE@?$AAh?$AAe?$AA?9?$AAI?$AAL?$AA?$AA@ 004cc990     libucrtd:lcidtoname_downlevel.obj
 0002:0001d9a0       ??_C@_1M@MHLPGNKM@?$AAh?$AAu?$AA?9?$AAH?$AAU?$AA?$AA@ 004cc9a0     libucrtd:lcidtoname_downlevel.obj
 0002:0001d9b0       ??_C@_1M@LPDDNNPN@?$AAi?$AAs?$AA?9?$AAI?$AAS?$AA?$AA@ 004cc9b0     libucrtd:lcidtoname_downlevel.obj
 0002:0001d9c0       ??_C@_1M@MADIPODN@?$AAi?$AAt?$AA?9?$AAI?$AAT?$AA?$AA@ 004cc9c0     libucrtd:lcidtoname_downlevel.obj
 0002:0001d9d0       ??_C@_1M@IHBJJGG@?$AAn?$AAl?$AA?9?$AAN?$AAL?$AA?$AA@ 004cc9d0     libucrtd:lcidtoname_downlevel.obj
 0002:0001d9e0       ??_C@_1M@EANAGDL@?$AAn?$AAb?$AA?9?$AAN?$AAO?$AA?$AA@ 004cc9e0     libucrtd:lcidtoname_downlevel.obj
 0002:0001d9f0       ??_C@_1M@NEIEMEGP@?$AAp?$AAl?$AA?9?$AAP?$AAL?$AA?$AA@ 004cc9f0     libucrtd:lcidtoname_downlevel.obj
 0002:0001da00       ??_C@_1M@BOCFIGEP@?$AAp?$AAt?$AA?9?$AAB?$AAR?$AA?$AA@ 004cca00     libucrtd:lcidtoname_downlevel.obj
 0002:0001da10       ??_C@_1M@IMPFOPBG@?$AAr?$AAo?$AA?9?$AAR?$AAO?$AA?$AA@ 004cca10     libucrtd:lcidtoname_downlevel.obj
 0002:0001da20       ??_C@_1M@IDNNEJMM@?$AAr?$AAu?$AA?9?$AAR?$AAU?$AA?$AA@ 004cca20     libucrtd:lcidtoname_downlevel.obj
 0002:0001da30       ??_C@_1M@LILEEOGM@?$AAh?$AAr?$AA?9?$AAH?$AAR?$AA?$AA@ 004cca30     libucrtd:lcidtoname_downlevel.obj
 0002:0001da40       ??_C@_1M@FKIFEHPB@?$AAs?$AAk?$AA?9?$AAS?$AAK?$AA?$AA@ 004cca40     libucrtd:lcidtoname_downlevel.obj
 0002:0001da50       ??_C@_1M@LJMAMNPJ@?$AAs?$AAq?$AA?9?$AAA?$AAL?$AA?$AA@ 004cca50     libucrtd:lcidtoname_downlevel.obj
 0002:0001da60       ??_C@_1M@GIAKDKJK@?$AAs?$AAv?$AA?9?$AAS?$AAE?$AA?$AA@ 004cca60     libucrtd:lcidtoname_downlevel.obj
 0002:0001da70       ??_C@_1M@MKJKIKCL@?$AAt?$AAh?$AA?9?$AAT?$AAH?$AA?$AA@ 004cca70     libucrtd:lcidtoname_downlevel.obj
 0002:0001da80       ??_C@_1M@MFLCCMPB@?$AAt?$AAr?$AA?9?$AAT?$AAR?$AA?$AA@ 004cca80     libucrtd:lcidtoname_downlevel.obj
 0002:0001da90       ??_C@_1M@OIJHDKJN@?$AAu?$AAr?$AA?9?$AAP?$AAK?$AA?$AA@ 004cca90     libucrtd:lcidtoname_downlevel.obj
 0002:0001daa0       ??_C@_1M@LHIPCIEK@?$AAi?$AAd?$AA?9?$AAI?$AAD?$AA?$AA@ 004ccaa0     libucrtd:lcidtoname_downlevel.obj
 0002:0001dab0       ??_C@_1M@MFMOBGI@?$AAu?$AAk?$AA?9?$AAU?$AAA?$AA?$AA@ 004ccab0     libucrtd:lcidtoname_downlevel.obj
 0002:0001dac0       ??_C@_1M@OBGLJIPL@?$AAb?$AAe?$AA?9?$AAB?$AAY?$AA?$AA@ 004ccac0     libucrtd:lcidtoname_downlevel.obj
 0002:0001dad0       ??_C@_1M@BCFAJEAD@?$AAs?$AAl?$AA?9?$AAS?$AAI?$AA?$AA@ 004ccad0     libucrtd:lcidtoname_downlevel.obj
 0002:0001dae0       ??_C@_1M@FKFFEDDN@?$AAe?$AAt?$AA?9?$AAE?$AAE?$AA?$AA@ 004ccae0     libucrtd:lcidtoname_downlevel.obj
 0002:0001daf0       ??_C@_1M@KGKKAACI@?$AAl?$AAv?$AA?9?$AAL?$AAV?$AA?$AA@ 004ccaf0     libucrtd:lcidtoname_downlevel.obj
 0002:0001db00       ??_C@_1M@IFGBIJO@?$AAl?$AAt?$AA?9?$AAL?$AAT?$AA?$AA@ 004ccb00     libucrtd:lcidtoname_downlevel.obj
 0002:0001db10       ??_C@_1M@FGEAHEDM@?$AAf?$AAa?$AA?9?$AAI?$AAR?$AA?$AA@ 004ccb10     libucrtd:lcidtoname_downlevel.obj
 0002:0001db20       ??_C@_1M@KBMAIBFN@?$AAv?$AAi?$AA?9?$AAV?$AAN?$AA?$AA@ 004ccb20     libucrtd:lcidtoname_downlevel.obj
 0002:0001db30       ??_C@_1M@GPCBKDJK@?$AAh?$AAy?$AA?9?$AAA?$AAM?$AA?$AA@ 004ccb30     libucrtd:lcidtoname_downlevel.obj
 0002:0001db40       ??_C@_1BG@BECMDDJB@?$AAa?$AAz?$AA?9?$AAA?$AAZ?$AA?9?$AAL?$AAa?$AAt?$AAn?$AA?$AA@ 004ccb40     libucrtd:lcidtoname_downlevel.obj
 0002:0001db5c       ??_C@_1M@MAOFCAEA@?$AAe?$AAu?$AA?9?$AAE?$AAS?$AA?$AA@ 004ccb5c     libucrtd:lcidtoname_downlevel.obj
 0002:0001db6c       ??_C@_1M@IGHABKPI@?$AAm?$AAk?$AA?9?$AAM?$AAK?$AA?$AA@ 004ccb6c     libucrtd:lcidtoname_downlevel.obj
 0002:0001db7c       ??_C@_1M@IAIGNEJG@?$AAt?$AAn?$AA?9?$AAZ?$AAA?$AA?$AA@ 004ccb7c     libucrtd:lcidtoname_downlevel.obj
 0002:0001db8c       ??_C@_1M@IIJCOJFA@?$AAx?$AAh?$AA?9?$AAZ?$AAA?$AA?$AA@ 004ccb8c     libucrtd:lcidtoname_downlevel.obj
 0002:0001db9c       ??_C@_1M@LGPJHNJH@?$AAz?$AAu?$AA?9?$AAZ?$AAA?$AA?$AA@ 004ccb9c     libucrtd:lcidtoname_downlevel.obj
 0002:0001dbac       ??_C@_1M@HOKAOIO@?$AAa?$AAf?$AA?9?$AAZ?$AAA?$AA?$AA@ 004ccbac     libucrtd:lcidtoname_downlevel.obj
 0002:0001dbbc       ??_C@_1M@DPCLHLIE@?$AAk?$AAa?$AA?9?$AAG?$AAE?$AA?$AA@ 004ccbbc     libucrtd:lcidtoname_downlevel.obj
 0002:0001dbcc       ??_C@_1M@BLKMHJBI@?$AAf?$AAo?$AA?9?$AAF?$AAO?$AA?$AA@ 004ccbcc     libucrtd:lcidtoname_downlevel.obj
 0002:0001dbdc       ??_C@_1M@LGGJAPPB@?$AAh?$AAi?$AA?9?$AAI?$AAN?$AA?$AA@ 004ccbdc     libucrtd:lcidtoname_downlevel.obj
 0002:0001dbec       ??_C@_1M@FIKPIHFE@?$AAm?$AAt?$AA?9?$AAM?$AAT?$AA?$AA@ 004ccbec     libucrtd:lcidtoname_downlevel.obj
 0002:0001dbfc       ??_C@_1M@HEGGPBFA@?$AAs?$AAe?$AA?9?$AAN?$AAO?$AA?$AA@ 004ccbfc     libucrtd:lcidtoname_downlevel.obj
 0002:0001dc0c       ??_C@_1M@EIBJEEPA@?$AAm?$AAs?$AA?9?$AAM?$AAY?$AA?$AA@ 004ccc0c     libucrtd:lcidtoname_downlevel.obj
 0002:0001dc1c       ??_C@_1M@FHLBGMPP@?$AAk?$AAk?$AA?9?$AAK?$AAZ?$AA?$AA@ 004ccc1c     libucrtd:lcidtoname_downlevel.obj
 0002:0001dc2c       ??_C@_1M@NGJJLCGI@?$AAk?$AAy?$AA?9?$AAK?$AAG?$AA?$AA@ 004ccc2c     libucrtd:lcidtoname_downlevel.obj
 0002:0001dc3c       ??_C@_1M@GIENNBFC@?$AAs?$AAw?$AA?9?$AAK?$AAE?$AA?$AA@ 004ccc3c     libucrtd:lcidtoname_downlevel.obj
 0002:0001dc4c       ??_C@_1BG@NDGMJIMJ@?$AAu?$AAz?$AA?9?$AAU?$AAZ?$AA?9?$AAL?$AAa?$AAt?$AAn?$AA?$AA@ 004ccc4c     libucrtd:lcidtoname_downlevel.obj
 0002:0001dc68       ??_C@_1M@IDCCIHBC@?$AAt?$AAt?$AA?9?$AAR?$AAU?$AA?$AA@ 004ccc68     libucrtd:lcidtoname_downlevel.obj
 0002:0001dc78       ??_C@_1M@LOICPMOJ@?$AAb?$AAn?$AA?9?$AAI?$AAN?$AA?$AA@ 004ccc78     libucrtd:lcidtoname_downlevel.obj
 0002:0001dc88       ??_C@_1M@KPKKNEAH@?$AAp?$AAa?$AA?9?$AAI?$AAN?$AA?$AA@ 004ccc88     libucrtd:lcidtoname_downlevel.obj
 0002:0001dc98       ??_C@_1M@PJGPPBOG@?$AAg?$AAu?$AA?9?$AAI?$AAN?$AA?$AA@ 004ccc98     libucrtd:lcidtoname_downlevel.obj
 0002:0001dca8       ??_C@_1M@KMKMOPHI@?$AAt?$AAa?$AA?9?$AAI?$AAN?$AA?$AA@ 004ccca8     libucrtd:lcidtoname_downlevel.obj
 0002:0001dcb8       ??_C@_1M@KFEHEPAC@?$AAt?$AAe?$AA?9?$AAI?$AAN?$AA?$AA@ 004cccb8     libucrtd:lcidtoname_downlevel.obj
 0002:0001dcc8       ??_C@_1M@CDCLMGHI@?$AAk?$AAn?$AA?9?$AAI?$AAN?$AA?$AA@ 004cccc8     libucrtd:lcidtoname_downlevel.obj
 0002:0001dcd8       ??_C@_1M@MIODLDKF@?$AAm?$AAl?$AA?9?$AAI?$AAN?$AA?$AA@ 004cccd8     libucrtd:lcidtoname_downlevel.obj
 0002:0001dce8       ??_C@_1M@PBIEACPO@?$AAm?$AAr?$AA?9?$AAI?$AAN?$AA?$AA@ 004ccce8     libucrtd:lcidtoname_downlevel.obj
 0002:0001dcf8       ??_C@_1M@NIDEAGPH@?$AAs?$AAa?$AA?9?$AAI?$AAN?$AA?$AA@ 004cccf8     libucrtd:lcidtoname_downlevel.obj
 0002:0001dd08       ??_C@_1M@FHIHCBIO@?$AAm?$AAn?$AA?9?$AAM?$AAN?$AA?$AA@ 004ccd08     libucrtd:lcidtoname_downlevel.obj
 0002:0001dd18       ??_C@_1M@JAIJPENP@?$AAc?$AAy?$AA?9?$AAG?$AAB?$AA?$AA@ 004ccd18     libucrtd:lcidtoname_downlevel.obj
 0002:0001dd28       ??_C@_1M@PHGFBEPN@?$AAg?$AAl?$AA?9?$AAE?$AAS?$AA?$AA@ 004ccd28     libucrtd:lcidtoname_downlevel.obj
 0002:0001dd38       ??_C@_1O@KPIPDNCP@?$AAk?$AAo?$AAk?$AA?9?$AAI?$AAN?$AA?$AA@ 004ccd38     libucrtd:lcidtoname_downlevel.obj
 0002:0001dd48       ??_C@_1O@KNHJLDJA@?$AAs?$AAy?$AAr?$AA?9?$AAS?$AAY?$AA?$AA@ 004ccd48     libucrtd:lcidtoname_downlevel.obj
 0002:0001dd58       ??_C@_1O@MKEKBLAH@?$AAd?$AAi?$AAv?$AA?9?$AAM?$AAV?$AA?$AA@ 004ccd58     libucrtd:lcidtoname_downlevel.obj
 0002:0001dd68       ??_C@_1O@OHDCKDDF@?$AAq?$AAu?$AAz?$AA?9?$AAB?$AAO?$AA?$AA@ 004ccd68     libucrtd:lcidtoname_downlevel.obj
 0002:0001dd78       ??_C@_1M@LEPJNLFD@?$AAn?$AAs?$AA?9?$AAZ?$AAA?$AA?$AA@ 004ccd78     libucrtd:lcidtoname_downlevel.obj
 0002:0001dd88       ??_C@_1M@OMLEIIJB@?$AAm?$AAi?$AA?9?$AAN?$AAZ?$AA?$AA@ 004ccd88     libucrtd:lcidtoname_downlevel.obj
 0002:0001dd98       ??_C@_1M@PMPEAILG@?$AAa?$AAr?$AA?9?$AAI?$AAQ?$AA?$AA@ 004ccd98     libucrtd:lcidtoname_downlevel.obj
 0002:0001dda8       ??_C@_1M@CNKPNOEE@?$AAd?$AAe?$AA?9?$AAC?$AAH?$AA?$AA@ 004ccda8     libucrtd:lcidtoname_downlevel.obj
 0002:0001ddb8       ??_C@_1M@LKMGMLKO@?$AAe?$AAn?$AA?9?$AAG?$AAB?$AA?$AA@ 004ccdb8     libucrtd:lcidtoname_downlevel.obj
 0002:0001ddc8       ??_C@_1M@PGKJFFGL@?$AAe?$AAs?$AA?9?$AAM?$AAX?$AA?$AA@ 004ccdc8     libucrtd:lcidtoname_downlevel.obj
 0002:0001ddd8       ??_C@_1M@DNNANBDC@?$AAf?$AAr?$AA?9?$AAB?$AAE?$AA?$AA@ 004ccdd8     libucrtd:lcidtoname_downlevel.obj
 0002:0001dde8       ??_C@_1M@HLGMDFHM@?$AAi?$AAt?$AA?9?$AAC?$AAH?$AA?$AA@ 004ccde8     libucrtd:lcidtoname_downlevel.obj
 0002:0001ddf8       ??_C@_1M@CLLBGJH@?$AAn?$AAl?$AA?9?$AAB?$AAE?$AA?$AA@ 004ccdf8     libucrtd:lcidtoname_downlevel.obj
 0002:0001de08       ??_C@_1M@BODBOGLF@?$AAn?$AAn?$AA?9?$AAN?$AAO?$AA?$AA@ 004cce08     libucrtd:lcidtoname_downlevel.obj
 0002:0001de18       ??_C@_1M@HFFAHKAD@?$AAp?$AAt?$AA?9?$AAP?$AAT?$AA?$AA@ 004cce18     libucrtd:lcidtoname_downlevel.obj
 0002:0001de28       ??_C@_1BG@LNOAKHIE@?$AAs?$AAr?$AA?9?$AAS?$AAP?$AA?9?$AAL?$AAa?$AAt?$AAn?$AA?$AA@ 004cce28     libucrtd:lcidtoname_downlevel.obj
 0002:0001de44       ??_C@_1M@HBMHBGAK@?$AAs?$AAv?$AA?9?$AAF?$AAI?$AA?$AA@ 004cce44     libucrtd:lcidtoname_downlevel.obj
 0002:0001de54       ??_C@_1BG@DGCJGJBE@?$AAa?$AAz?$AA?9?$AAA?$AAZ?$AA?9?$AAC?$AAy?$AAr?$AAl?$AA?$AA@ 004cce54     libucrtd:lcidtoname_downlevel.obj
 0002:0001de70       ??_C@_1M@KEJDAAHB@?$AAs?$AAe?$AA?9?$AAS?$AAE?$AA?$AA@ 004cce70     libucrtd:lcidtoname_downlevel.obj
 0002:0001de80       ??_C@_1M@HEIBJJAD@?$AAm?$AAs?$AA?9?$AAB?$AAN?$AA?$AA@ 004cce80     libucrtd:lcidtoname_downlevel.obj
 0002:0001de90       ??_C@_1BG@PBGJMCEM@?$AAu?$AAz?$AA?9?$AAU?$AAZ?$AA?9?$AAC?$AAy?$AAr?$AAl?$AA?$AA@ 004cce90     libucrtd:lcidtoname_downlevel.obj
 0002:0001deac       ??_C@_1O@LAOBCMDF@?$AAq?$AAu?$AAz?$AA?9?$AAE?$AAC?$AA?$AA@ 004cceac     libucrtd:lcidtoname_downlevel.obj
 0002:0001debc       ??_C@_1M@POEEMAIO@?$AAa?$AAr?$AA?9?$AAE?$AAG?$AA?$AA@ 004ccebc     libucrtd:lcidtoname_downlevel.obj
 0002:0001decc       ??_C@_1M@EFAKDEDL@?$AAz?$AAh?$AA?9?$AAH?$AAK?$AA?$AA@ 004ccecc     libucrtd:lcidtoname_downlevel.obj
 0002:0001dedc       ??_C@_1M@HKKIJHGI@?$AAd?$AAe?$AA?9?$AAA?$AAT?$AA?$AA@ 004ccedc     libucrtd:lcidtoname_downlevel.obj
 0002:0001deec       ??_C@_1M@KBFBEHJF@?$AAe?$AAn?$AA?9?$AAA?$AAU?$AA?$AA@ 004cceec     libucrtd:lcidtoname_downlevel.obj
 0002:0001defc       ??_C@_1M@MNPLFAAH@?$AAe?$AAs?$AA?9?$AAE?$AAS?$AA?$AA@ 004ccefc     libucrtd:lcidtoname_downlevel.obj
 0002:0001df0c       ??_C@_1M@HJOOJFMA@?$AAf?$AAr?$AA?9?$AAC?$AAA?$AA?$AA@ 004ccf0c     libucrtd:lcidtoname_downlevel.obj
 0002:0001df1c       ??_C@_1BG@JPOFPNAB@?$AAs?$AAr?$AA?9?$AAS?$AAP?$AA?9?$AAC?$AAy?$AAr?$AAl?$AA?$AA@ 004ccf1c     libucrtd:lcidtoname_downlevel.obj
 0002:0001df38       ??_C@_1M@LNFOCMOB@?$AAs?$AAe?$AA?9?$AAF?$AAI?$AA?$AA@ 004ccf38     libucrtd:lcidtoname_downlevel.obj
 0002:0001df48       ??_C@_1O@MGJBOAMB@?$AAq?$AAu?$AAz?$AA?9?$AAP?$AAE?$AA?$AA@ 004ccf48     libucrtd:lcidtoname_downlevel.obj
 0002:0001df58       ??_C@_1M@GJINLBOK@?$AAa?$AAr?$AA?9?$AAL?$AAY?$AA?$AA@ 004ccf58     libucrtd:lcidtoname_downlevel.obj
 0002:0001df68       ??_C@_1M@GGMNHJNL@?$AAz?$AAh?$AA?9?$AAS?$AAG?$AA?$AA@ 004ccf68     libucrtd:lcidtoname_downlevel.obj
 0002:0001df78       ??_C@_1M@HOIKODND@?$AAd?$AAe?$AA?9?$AAL?$AAU?$AA?$AA@ 004ccf78     libucrtd:lcidtoname_downlevel.obj
 0002:0001df88       ??_C@_1M@DDOCCGFG@?$AAe?$AAn?$AA?9?$AAC?$AAA?$AA?$AA@ 004ccf88     libucrtd:lcidtoname_downlevel.obj
 0002:0001df98       ??_C@_1M@BNOEMJLF@?$AAe?$AAs?$AA?9?$AAG?$AAT?$AA?$AA@ 004ccf98     libucrtd:lcidtoname_downlevel.obj
 0002:0001dfa8       ??_C@_1M@EOGNKEK@?$AAf?$AAr?$AA?9?$AAC?$AAH?$AA?$AA@ 004ccfa8     libucrtd:lcidtoname_downlevel.obj
 0002:0001dfb8       ??_C@_1M@FLIDJFHL@?$AAh?$AAr?$AA?9?$AAB?$AAA?$AA?$AA@ 004ccfb8     libucrtd:lcidtoname_downlevel.obj
 0002:0001dfc8       ??_C@_1O@FMCELNAJ@?$AAs?$AAm?$AAj?$AA?9?$AAN?$AAO?$AA?$AA@ 004ccfc8     libucrtd:lcidtoname_downlevel.obj
 0002:0001dfd8       ??_C@_1M@JHGLJMGJ@?$AAa?$AAr?$AA?9?$AAD?$AAZ?$AA?$AA@ 004ccfd8     libucrtd:lcidtoname_downlevel.obj
 0002:0001dfe8       ??_C@_1M@JKKFDCNP@?$AAz?$AAh?$AA?9?$AAM?$AAO?$AA?$AA@ 004ccfe8     libucrtd:lcidtoname_downlevel.obj
 0002:0001dff8       ??_C@_1M@GEEFALPE@?$AAd?$AAe?$AA?9?$AAL?$AAI?$AA?$AA@ 004ccff8     libucrtd:lcidtoname_downlevel.obj
 0002:0001e008       ??_C@_1M@IGEOFBG@?$AAe?$AAn?$AA?9?$AAN?$AAZ?$AA?$AA@ 004cd008     libucrtd:lcidtoname_downlevel.obj
 0002:0001e018       ??_C@_1M@KDBONEHP@?$AAe?$AAs?$AA?9?$AAC?$AAR?$AA?$AA@ 004cd018     libucrtd:lcidtoname_downlevel.obj
 0002:0001e028       ??_C@_1M@FHMDOHNN@?$AAf?$AAr?$AA?9?$AAL?$AAU?$AA?$AA@ 004cd028     libucrtd:lcidtoname_downlevel.obj
 0002:0001e038       ??_C@_1BG@NFKKMAFG@?$AAb?$AAs?$AA?9?$AAB?$AAA?$AA?9?$AAL?$AAa?$AAt?$AAn?$AA?$AA@ 004cd038     libucrtd:lcidtoname_downlevel.obj
 0002:0001e054       ??_C@_1O@IMNBEMCI@?$AAs?$AAm?$AAj?$AA?9?$AAS?$AAE?$AA?$AA@ 004cd054     libucrtd:lcidtoname_downlevel.obj
 0002:0001e064       ??_C@_1M@DHHMBNDP@?$AAa?$AAr?$AA?9?$AAM?$AAA?$AA?$AA@ 004cd064     libucrtd:lcidtoname_downlevel.obj
 0002:0001e074       ??_C@_1M@BNBLJCGH@?$AAe?$AAn?$AA?9?$AAI?$AAE?$AA?$AA@ 004cd074     libucrtd:lcidtoname_downlevel.obj
 0002:0001e084       ??_C@_1M@GEPAFMDL@?$AAe?$AAs?$AA?9?$AAP?$AAA?$AA?$AA@ 004cd084     libucrtd:lcidtoname_downlevel.obj
 0002:0001e094       ??_C@_1M@OJONDMDL@?$AAf?$AAr?$AA?9?$AAM?$AAC?$AA?$AA@ 004cd094     libucrtd:lcidtoname_downlevel.obj
 0002:0001e0a4       ??_C@_1BG@OBCNFJB@?$AAs?$AAr?$AA?9?$AAB?$AAA?$AA?9?$AAL?$AAa?$AAt?$AAn?$AA?$AA@ 004cd0a4     libucrtd:lcidtoname_downlevel.obj
 0002:0001e0c0       ??_C@_1O@KEMEEGPO@?$AAs?$AAm?$AAa?$AA?9?$AAN?$AAO?$AA?$AA@ 004cd0c0     libucrtd:lcidtoname_downlevel.obj
 0002:0001e0d0       ??_C@_1M@ELMGFODK@?$AAa?$AAr?$AA?9?$AAT?$AAN?$AA?$AA@ 004cd0d0     libucrtd:lcidtoname_downlevel.obj
 0002:0001e0e0       ??_C@_1M@BHDLHFAF@?$AAe?$AAn?$AA?9?$AAZ?$AAA?$AA?$AA@ 004cd0e0     libucrtd:lcidtoname_downlevel.obj
 0002:0001e0f0       ??_C@_1M@BMGIGLIF@?$AAe?$AAs?$AA?9?$AAD?$AAO?$AA?$AA@ 004cd0f0     libucrtd:lcidtoname_downlevel.obj
 0002:0001e100       ??_C@_1BG@CMBHIPBE@?$AAs?$AAr?$AA?9?$AAB?$AAA?$AA?9?$AAC?$AAy?$AAr?$AAl?$AA?$AA@ 004cd100     libucrtd:lcidtoname_downlevel.obj
 0002:0001e11c       ??_C@_1O@HEDBLHNP@?$AAs?$AAm?$AAa?$AA?9?$AAS?$AAE?$AA?$AA@ 004cd11c     libucrtd:lcidtoname_downlevel.obj
 0002:0001e12c       ??_C@_1M@DAGCADIM@?$AAa?$AAr?$AA?9?$AAO?$AAM?$AA?$AA@ 004cd12c     libucrtd:lcidtoname_downlevel.obj
 0002:0001e13c       ??_C@_1M@FODLMICG@?$AAe?$AAn?$AA?9?$AAJ?$AAM?$AA?$AA@ 004cd13c     libucrtd:lcidtoname_downlevel.obj
 0002:0001e14c       ??_C@_1M@DNMLCIHB@?$AAe?$AAs?$AA?9?$AAV?$AAE?$AA?$AA@ 004cd14c     libucrtd:lcidtoname_downlevel.obj
 0002:0001e15c       ??_C@_1O@EOKHMKJK@?$AAs?$AAm?$AAs?$AA?9?$AAF?$AAI?$AA?$AA@ 004cd15c     libucrtd:lcidtoname_downlevel.obj
 0002:0001e16c       ??_C@_1M@CAFJMKOF@?$AAa?$AAr?$AA?9?$AAY?$AAE?$AA?$AA@ 004cd16c     libucrtd:lcidtoname_downlevel.obj
 0002:0001e17c       ??_C@_1M@CBFHIJLI@?$AAe?$AAn?$AA?9?$AAC?$AAB?$AA?$AA@ 004cd17c     libucrtd:lcidtoname_downlevel.obj
 0002:0001e18c       ??_C@_1M@BGNFLDN@?$AAe?$AAs?$AA?9?$AAC?$AAO?$AA?$AA@ 004cd18c     libucrtd:lcidtoname_downlevel.obj
 0002:0001e19c       ??_C@_1O@JMPHMAMC@?$AAs?$AAm?$AAn?$AA?9?$AAF?$AAI?$AA?$AA@ 004cd19c     libucrtd:lcidtoname_downlevel.obj
 0002:0001e1ac       ??_C@_1M@JLANABKE@?$AAa?$AAr?$AA?9?$AAS?$AAY?$AA?$AA@ 004cd1ac     libucrtd:lcidtoname_downlevel.obj
 0002:0001e1bc       ??_C@_1M@HPKGCFGN@?$AAe?$AAn?$AA?9?$AAB?$AAZ?$AA?$AA@ 004cd1bc     libucrtd:lcidtoname_downlevel.obj
 0002:0001e1cc       ??_C@_1M@OLJCMLGM@?$AAe?$AAs?$AA?9?$AAP?$AAE?$AA?$AA@ 004cd1cc     libucrtd:lcidtoname_downlevel.obj
 0002:0001e1dc       ??_C@_1M@MKKGFKLE@?$AAa?$AAr?$AA?9?$AAJ?$AAO?$AA?$AA@ 004cd1dc     libucrtd:lcidtoname_downlevel.obj
 0002:0001e1ec       ??_C@_1M@EKPGLDNI@?$AAe?$AAn?$AA?9?$AAT?$AAT?$AA?$AA@ 004cd1ec     libucrtd:lcidtoname_downlevel.obj
 0002:0001e1fc       ??_C@_1M@OONGHFHE@?$AAe?$AAs?$AA?9?$AAA?$AAR?$AA?$AA@ 004cd1fc     libucrtd:lcidtoname_downlevel.obj
 0002:0001e20c       ??_C@_1M@OOJFGBHE@?$AAa?$AAr?$AA?9?$AAL?$AAB?$AA?$AA@ 004cd20c     libucrtd:lcidtoname_downlevel.obj
 0002:0001e21c       ??_C@_1M@GCEJHNEG@?$AAe?$AAn?$AA?9?$AAZ?$AAW?$AA?$AA@ 004cd21c     libucrtd:lcidtoname_downlevel.obj
 0002:0001e22c       ??_C@_1M@JNOCAHJI@?$AAe?$AAs?$AA?9?$AAE?$AAC?$AA?$AA@ 004cd22c     libucrtd:lcidtoname_downlevel.obj
 0002:0001e23c       ??_C@_1M@JEFHPGGB@?$AAa?$AAr?$AA?9?$AAK?$AAW?$AA?$AA@ 004cd23c     libucrtd:lcidtoname_downlevel.obj
 0002:0001e24c       ??_C@_1M@MLKIBJOJ@?$AAe?$AAn?$AA?9?$AAP?$AAH?$AA?$AA@ 004cd24c     libucrtd:lcidtoname_downlevel.obj
 0002:0001e25c       ??_C@_1M@BDNIPEND@?$AAe?$AAs?$AA?9?$AAC?$AAL?$AA?$AA@ 004cd25c     libucrtd:lcidtoname_downlevel.obj
 0002:0001e26c       ??_C@_1M@MPNMEKBD@?$AAa?$AAr?$AA?9?$AAA?$AAE?$AA?$AA@ 004cd26c     libucrtd:lcidtoname_downlevel.obj
 0002:0001e27c       ??_C@_1M@KBJALCPI@?$AAe?$AAs?$AA?9?$AAU?$AAY?$AA?$AA@ 004cd27c     libucrtd:lcidtoname_downlevel.obj
 0002:0001e28c       ??_C@_1M@LLCCOAGA@?$AAa?$AAr?$AA?9?$AAB?$AAH?$AA?$AA@ 004cd28c     libucrtd:lcidtoname_downlevel.obj
 0002:0001e29c       ??_C@_1M@PBFNCDEL@?$AAe?$AAs?$AA?9?$AAP?$AAY?$AA?$AA@ 004cd29c     libucrtd:lcidtoname_downlevel.obj
 0002:0001e2ac       ??_C@_1M@EDGINPNP@?$AAa?$AAr?$AA?9?$AAQ?$AAA?$AA?$AA@ 004cd2ac     libucrtd:lcidtoname_downlevel.obj
 0002:0001e2bc       ??_C@_1M@MKDBIIJI@?$AAe?$AAs?$AA?9?$AAB?$AAO?$AA?$AA@ 004cd2bc     libucrtd:lcidtoname_downlevel.obj
 0002:0001e2cc       ??_C@_1M@CPKKEBLD@?$AAe?$AAs?$AA?9?$AAS?$AAV?$AA?$AA@ 004cd2cc     libucrtd:lcidtoname_downlevel.obj
 0002:0001e2dc       ??_C@_1M@NDBGMMJL@?$AAe?$AAs?$AA?9?$AAH?$AAN?$AA?$AA@ 004cd2dc     libucrtd:lcidtoname_downlevel.obj
 0002:0001e2ec       ??_C@_1M@JIJIBHDP@?$AAe?$AAs?$AA?9?$AAN?$AAI?$AA?$AA@ 004cd2ec     libucrtd:lcidtoname_downlevel.obj
 0002:0001e2fc       ??_C@_1M@CGFMKEEK@?$AAe?$AAs?$AA?9?$AAP?$AAR?$AA?$AA@ 004cd2fc     libucrtd:lcidtoname_downlevel.obj
 0002:0001e30c       ??_C@_1O@ICJHKIIK@?$AAz?$AAh?$AA?9?$AAC?$AAH?$AAT?$AA?$AA@ 004cd30c     libucrtd:lcidtoname_downlevel.obj
 0002:0001e31c       ??_C@_15CLNEJCE@?$AAs?$AAr?$AA?$AA@ 004cd31c     libucrtd:lcidtoname_downlevel.obj
 0002:0001ebb4       ??_C@_1M@KAHEKEIG@?$AAa?$AAf?$AA?9?$AAz?$AAa?$AA?$AA@ 004cdbb4     libucrtd:lcidtoname_downlevel.obj
 0002:0001ebc4       ??_C@_1M@GIECOABL@?$AAa?$AAr?$AA?9?$AAa?$AAe?$AA?$AA@ 004cdbc4     libucrtd:lcidtoname_downlevel.obj
 0002:0001ebd4       ??_C@_1M@BMLMEKGI@?$AAa?$AAr?$AA?9?$AAb?$AAh?$AA?$AA@ 004cdbd4     libucrtd:lcidtoname_downlevel.obj
 0002:0001ebe4       ??_C@_1M@DAPFDGGB@?$AAa?$AAr?$AA?9?$AAd?$AAz?$AA?$AA@ 004cdbe4     libucrtd:lcidtoname_downlevel.obj
 0002:0001ebf4       ??_C@_1M@FJNKGKIG@?$AAa?$AAr?$AA?9?$AAe?$AAg?$AA?$AA@ 004cdbf4     libucrtd:lcidtoname_downlevel.obj
 0002:0001ec04       ??_C@_1M@FLGKKCLO@?$AAa?$AAr?$AA?9?$AAi?$AAq?$AA?$AA@ 004cdc04     libucrtd:lcidtoname_downlevel.obj
 0002:0001ec14       ??_C@_1M@GNDIPALM@?$AAa?$AAr?$AA?9?$AAj?$AAo?$AA?$AA@ 004cdc14     libucrtd:lcidtoname_downlevel.obj
 0002:0001ec24       ??_C@_1M@DDMJFMGJ@?$AAa?$AAr?$AA?9?$AAk?$AAw?$AA?$AA@ 004cdc24     libucrtd:lcidtoname_downlevel.obj
 0002:0001ec34       ??_C@_1M@EJALMLHM@?$AAa?$AAr?$AA?9?$AAl?$AAb?$AA?$AA@ 004cdc34     libucrtd:lcidtoname_downlevel.obj
 0002:0001ec44       ??_C@_1M@MOBDBLOC@?$AAa?$AAr?$AA?9?$AAl?$AAy?$AA?$AA@ 004cdc44     libucrtd:lcidtoname_downlevel.obj
 0002:0001ec54       ??_C@_1M@JAOCLHDH@?$AAa?$AAr?$AA?9?$AAm?$AAa?$AA?$AA@ 004cdc54     libucrtd:lcidtoname_downlevel.obj
 0002:0001ec64       ??_C@_1M@JHPMKJIE@?$AAa?$AAr?$AA?9?$AAo?$AAm?$AA?$AA@ 004cdc64     libucrtd:lcidtoname_downlevel.obj
 0002:0001ec74       ??_C@_1M@OEPGHFNH@?$AAa?$AAr?$AA?9?$AAq?$AAa?$AA?$AA@ 004cdc74     libucrtd:lcidtoname_downlevel.obj
 0002:0001ec84       ??_C@_1M@KJDONENM@?$AAa?$AAr?$AA?9?$AAs?$AAa?$AA?$AA@ 004cdc84     libucrtd:lcidtoname_downlevel.obj
 0002:0001ec94       ??_C@_1M@DMJDKLKM@?$AAa?$AAr?$AA?9?$AAs?$AAy?$AA?$AA@ 004cdc94     libucrtd:lcidtoname_downlevel.obj
 0002:0001eca4       ??_C@_1M@OMFIPEDC@?$AAa?$AAr?$AA?9?$AAt?$AAn?$AA?$AA@ 004cdca4     libucrtd:lcidtoname_downlevel.obj
 0002:0001ecb4       ??_C@_1M@IHMHGAON@?$AAa?$AAr?$AA?9?$AAy?$AAe?$AA?$AA@ 004cdcb4     libucrtd:lcidtoname_downlevel.obj
 0002:0001ecc4       ??_C@_1BG@KDCPGJGB@?$AAa?$AAz?$AA?9?$AAa?$AAz?$AA?9?$AAc?$AAy?$AAr?$AAl?$AA?$AA@ 004cdcc4     libucrtd:lcidtoname_downlevel.obj
 0002:0001ece0       ??_C@_1BG@IBCKDDOE@?$AAa?$AAz?$AA?9?$AAa?$AAz?$AA?9?$AAl?$AAa?$AAt?$AAn?$AA?$AA@ 004cdce0     libucrtd:lcidtoname_downlevel.obj
 0002:0001ecfc       ??_C@_1M@EGPFDCPD@?$AAb?$AAe?$AA?9?$AAb?$AAy?$AA?$AA@ 004cdcfc     libucrtd:lcidtoname_downlevel.obj
 0002:0001ed0c       ??_C@_1M@PCMGMCGC@?$AAb?$AAg?$AA?9?$AAb?$AAg?$AA?$AA@ 004cdd0c     libucrtd:lcidtoname_downlevel.obj
 0002:0001ed1c       ??_C@_1M@BJBMFGOB@?$AAb?$AAn?$AA?9?$AAi?$AAn?$AA?$AA@ 004cdd1c     libucrtd:lcidtoname_downlevel.obj
 0002:0001ed2c       ??_C@_1BG@EAKMMACD@?$AAb?$AAs?$AA?9?$AAb?$AAa?$AA?9?$AAl?$AAa?$AAt?$AAn?$AA?$AA@ 004cdd2c     libucrtd:lcidtoname_downlevel.obj
 0002:0001ed48       ??_C@_1M@KGADAODK@?$AAc?$AAa?$AA?9?$AAe?$AAs?$AA?$AA@ 004cdd48     libucrtd:lcidtoname_downlevel.obj
 0002:0001ed58       ??_C@_1M@COAJPDHI@?$AAc?$AAs?$AA?9?$AAc?$AAz?$AA?$AA@ 004cdd58     libucrtd:lcidtoname_downlevel.obj
 0002:0001ed68       ??_C@_1M@DHBHFONH@?$AAc?$AAy?$AA?9?$AAg?$AAb?$AA?$AA@ 004cdd68     libucrtd:lcidtoname_downlevel.obj
 0002:0001ed78       ??_C@_1M@IMGKELGA@?$AAd?$AAa?$AA?9?$AAd?$AAk?$AA?$AA@ 004cdd78     libucrtd:lcidtoname_downlevel.obj
 0002:0001ed88       ??_C@_1M@NNDGDNGA@?$AAd?$AAe?$AA?9?$AAa?$AAt?$AA?$AA@ 004cdd88     libucrtd:lcidtoname_downlevel.obj
 0002:0001ed98       ??_C@_1M@IKDBHEEM@?$AAd?$AAe?$AA?9?$AAc?$AAh?$AA?$AA@ 004cdd98     libucrtd:lcidtoname_downlevel.obj
 0002:0001eda8       ??_C@_1M@GFFOJMCJ@?$AAd?$AAe?$AA?9?$AAd?$AAe?$AA?$AA@ 004cdda8     libucrtd:lcidtoname_downlevel.obj
 0002:0001edb8       ??_C@_1M@MDNLKBPM@?$AAd?$AAe?$AA?9?$AAl?$AAi?$AA?$AA@ 004cddb8     libucrtd:lcidtoname_downlevel.obj
 0002:0001edc8       ??_C@_1M@NJBEEJNL@?$AAd?$AAe?$AA?9?$AAl?$AAu?$AA?$AA@ 004cddc8     libucrtd:lcidtoname_downlevel.obj
 0002:0001edd8       ??_C@_1O@GNNELBAP@?$AAd?$AAi?$AAv?$AA?9?$AAm?$AAv?$AA?$AA@ 004cddd8     libucrtd:lcidtoname_downlevel.obj
 0002:0001ede8       ??_C@_1M@EJLEOGAE@?$AAe?$AAl?$AA?9?$AAg?$AAr?$AA?$AA@ 004cdde8     libucrtd:lcidtoname_downlevel.obj
 0002:0001edf8       ??_C@_1M@GMPONJN@?$AAe?$AAn?$AA?9?$AAa?$AAu?$AA?$AA@ 004cddf8     libucrtd:lcidtoname_downlevel.obj
 0002:0001ee08       ??_C@_1M@NIDIIPGF@?$AAe?$AAn?$AA?9?$AAb?$AAz?$AA?$AA@ 004cde08     libucrtd:lcidtoname_downlevel.obj
 0002:0001ee18       ??_C@_1M@JEHMIMFO@?$AAe?$AAn?$AA?9?$AAc?$AAa?$AA?$AA@ 004cde18     libucrtd:lcidtoname_downlevel.obj
 0002:0001ee28       ??_C@_1M@IGMJCDLA@?$AAe?$AAn?$AA?9?$AAc?$AAb?$AA?$AA@ 004cde28     libucrtd:lcidtoname_downlevel.obj
 0002:0001ee38       ??_C@_1M@BNFIGBKG@?$AAe?$AAn?$AA?9?$AAg?$AAb?$AA?$AA@ 004cde38     libucrtd:lcidtoname_downlevel.obj
 0002:0001ee48       ??_C@_1M@LKIFDIGP@?$AAe?$AAn?$AA?9?$AAi?$AAe?$AA?$AA@ 004cde48     libucrtd:lcidtoname_downlevel.obj
 0002:0001ee58       ??_C@_1M@PJKFGCCO@?$AAe?$AAn?$AA?9?$AAj?$AAm?$AA?$AA@ 004cde58     libucrtd:lcidtoname_downlevel.obj
 0002:0001ee68       ??_C@_1M@KPPKEPBO@?$AAe?$AAn?$AA?9?$AAn?$AAz?$AA?$AA@ 004cde68     libucrtd:lcidtoname_downlevel.obj
 0002:0001ee78       ??_C@_1M@GMDGLDOB@?$AAe?$AAn?$AA?9?$AAp?$AAh?$AA?$AA@ 004cde78     libucrtd:lcidtoname_downlevel.obj
 0002:0001ee88       ??_C@_1M@ONGIBJNA@?$AAe?$AAn?$AA?9?$AAt?$AAt?$AA?$AA@ 004cde88     libucrtd:lcidtoname_downlevel.obj
 0002:0001ee98       ??_C@_1M@LLODPCMM@?$AAe?$AAn?$AA?9?$AAu?$AAs?$AA?$AA@ 004cde98     libucrtd:lcidtoname_downlevel.obj
 0002:0001eea8       ??_C@_1M@LAKFNPAN@?$AAe?$AAn?$AA?9?$AAz?$AAa?$AA?$AA@ 004cdea8     libucrtd:lcidtoname_downlevel.obj
 0002:0001eeb8       ??_C@_1M@MFNHNHEO@?$AAe?$AAn?$AA?9?$AAz?$AAw?$AA?$AA@ 004cdeb8     libucrtd:lcidtoname_downlevel.obj
 0002:0001eec8       ??_C@_1M@EJEINPHM@?$AAe?$AAs?$AA?9?$AAa?$AAr?$AA?$AA@ 004cdec8     libucrtd:lcidtoname_downlevel.obj
 0002:0001eed8       ??_C@_1M@GNKPCCJA@?$AAe?$AAs?$AA?9?$AAb?$AAo?$AA?$AA@ 004cded8     libucrtd:lcidtoname_downlevel.obj
 0002:0001eee8       ??_C@_1M@LEEGFONL@?$AAe?$AAs?$AA?9?$AAc?$AAl?$AA?$AA@ 004cdee8     libucrtd:lcidtoname_downlevel.obj
 0002:0001eef8       ??_C@_1M@KGPDPBDF@?$AAe?$AAs?$AA?9?$AAc?$AAo?$AA?$AA@ 004cdef8     libucrtd:lcidtoname_downlevel.obj
 0002:0001ef08       ??_C@_1M@EIAHOHH@?$AAe?$AAs?$AA?9?$AAc?$AAr?$AA?$AA@ 004cdf08     libucrtd:lcidtoname_downlevel.obj
 0002:0001ef18       ??_C@_1M@LLPGMBIN@?$AAe?$AAs?$AA?9?$AAd?$AAo?$AA?$AA@ 004cdf18     libucrtd:lcidtoname_downlevel.obj
 0002:0001ef28       ??_C@_1M@DKHMKNJA@?$AAe?$AAs?$AA?9?$AAe?$AAc?$AA?$AA@ 004cdf28     libucrtd:lcidtoname_downlevel.obj
 0002:0001ef38       ??_C@_1M@GKGFPKAP@?$AAe?$AAs?$AA?9?$AAe?$AAs?$AA?$AA@ 004cdf38     libucrtd:lcidtoname_downlevel.obj
 0002:0001ef48       ??_C@_1M@LKHKGDLN@?$AAe?$AAs?$AA?9?$AAg?$AAt?$AA?$AA@ 004cdf48     libucrtd:lcidtoname_downlevel.obj
 0002:0001ef58       ??_C@_1M@HEIIGGJD@?$AAe?$AAs?$AA?9?$AAh?$AAn?$AA?$AA@ 004cdf58     libucrtd:lcidtoname_downlevel.obj
 0002:0001ef68       ??_C@_1M@FBDHPPGD@?$AAe?$AAs?$AA?9?$AAm?$AAx?$AA?$AA@ 004cdf68     libucrtd:lcidtoname_downlevel.obj
 0002:0001ef78       ??_C@_1M@DPAGLNDH@?$AAe?$AAs?$AA?9?$AAn?$AAi?$AA?$AA@ 004cdf78     libucrtd:lcidtoname_downlevel.obj
 0002:0001ef88       ??_C@_1M@MDGOPGDD@?$AAe?$AAs?$AA?9?$AAp?$AAa?$AA?$AA@ 004cdf88     libucrtd:lcidtoname_downlevel.obj
 0002:0001ef98       ??_C@_1M@EMAMGBGE@?$AAe?$AAs?$AA?9?$AAp?$AAe?$AA?$AA@ 004cdf98     libucrtd:lcidtoname_downlevel.obj
 0002:0001efa8       ??_C@_1M@IBMCAOEC@?$AAe?$AAs?$AA?9?$AAp?$AAr?$AA?$AA@ 004cdfa8     libucrtd:lcidtoname_downlevel.obj
 0002:0001efb8       ??_C@_1M@FGMDIJED@?$AAe?$AAs?$AA?9?$AAp?$AAy?$AA?$AA@ 004cdfb8     libucrtd:lcidtoname_downlevel.obj
 0002:0001efc8       ??_C@_1M@IIDEOLLL@?$AAe?$AAs?$AA?9?$AAs?$AAv?$AA?$AA@ 004cdfc8     libucrtd:lcidtoname_downlevel.obj
 0002:0001efd8       ??_C@_1M@GAOBIPA@?$AAe?$AAs?$AA?9?$AAu?$AAy?$AA?$AA@ 004cdfd8     libucrtd:lcidtoname_downlevel.obj
 0002:0001efe8       ??_C@_1M@JKFFICHJ@?$AAe?$AAs?$AA?9?$AAv?$AAe?$AA?$AA@ 004cdfe8     libucrtd:lcidtoname_downlevel.obj
 0002:0001eff8       ??_C@_1M@PNMLOJDF@?$AAe?$AAt?$AA?9?$AAe?$AAe?$AA?$AA@ 004cdff8     libucrtd:lcidtoname_downlevel.obj
 0002:0001f008       ??_C@_1M@GHHLIKEI@?$AAe?$AAu?$AA?9?$AAe?$AAs?$AA?$AA@ 004ce008     libucrtd:lcidtoname_downlevel.obj
 0002:0001f018       ??_C@_1M@PBNONODE@?$AAf?$AAa?$AA?9?$AAi?$AAr?$AA?$AA@ 004ce018     libucrtd:lcidtoname_downlevel.obj
 0002:0001f028       ??_C@_1M@JEEHPMIL@?$AAf?$AAi?$AA?9?$AAf?$AAi?$AA?$AA@ 004ce028     libucrtd:lcidtoname_downlevel.obj
 0002:0001f038       ??_C@_1M@LMDCNDBA@?$AAf?$AAo?$AA?9?$AAf?$AAo?$AA?$AA@ 004ce038     libucrtd:lcidtoname_downlevel.obj
 0002:0001f048       ??_C@_1M@JKEOHLDK@?$AAf?$AAr?$AA?9?$AAb?$AAe?$AA?$AA@ 004ce048     libucrtd:lcidtoname_downlevel.obj
 0002:0001f058       ??_C@_1M@NOHADPMI@?$AAf?$AAr?$AA?9?$AAc?$AAa?$AA?$AA@ 004ce058     libucrtd:lcidtoname_downlevel.obj
 0002:0001f068       ??_C@_1M@KDHIHAEC@?$AAf?$AAr?$AA?9?$AAc?$AAh?$AA?$AA@ 004ce068     libucrtd:lcidtoname_downlevel.obj
 0002:0001f078       ??_C@_1M@MMBBFGAK@?$AAf?$AAr?$AA?9?$AAf?$AAr?$AA?$AA@ 004ce078     libucrtd:lcidtoname_downlevel.obj
 0002:0001f088       ??_C@_1M@PAFNENNF@?$AAf?$AAr?$AA?9?$AAl?$AAu?$AA?$AA@ 004ce088     libucrtd:lcidtoname_downlevel.obj
 0002:0001f098       ??_C@_1M@EOHDJGDD@?$AAf?$AAr?$AA?9?$AAm?$AAc?$AA?$AA@ 004ce098     libucrtd:lcidtoname_downlevel.obj
 0002:0001f0a8       ??_C@_1M@FAPLLOPF@?$AAg?$AAl?$AA?9?$AAe?$AAs?$AA?$AA@ 004ce0a8     libucrtd:lcidtoname_downlevel.obj
 0002:0001f0b8       ??_C@_1M@FOPBFLOO@?$AAg?$AAu?$AA?9?$AAi?$AAn?$AA?$AA@ 004ce0b8     libucrtd:lcidtoname_downlevel.obj
 0002:0001f0c8       ??_C@_1M@KBMCINPM@?$AAh?$AAe?$AA?9?$AAi?$AAl?$AA?$AA@ 004ce0c8     libucrtd:lcidtoname_downlevel.obj
 0002:0001f0d8       ??_C@_1M@BBPHKFPJ@?$AAh?$AAi?$AA?9?$AAi?$AAn?$AA?$AA@ 004ce0d8     libucrtd:lcidtoname_downlevel.obj
 0002:0001f0e8       ??_C@_1M@PMBNDPHD@?$AAh?$AAr?$AA?9?$AAb?$AAa?$AA?$AA@ 004ce0e8     libucrtd:lcidtoname_downlevel.obj
 0002:0001f0f8       ??_C@_1M@BPCKOEGE@?$AAh?$AAr?$AA?9?$AAh?$AAr?$AA?$AA@ 004ce0f8     libucrtd:lcidtoname_downlevel.obj
 0002:0001f108       ??_C@_1M@GACBMHKE@?$AAh?$AAu?$AA?9?$AAh?$AAu?$AA?$AA@ 004ce108     libucrtd:lcidtoname_downlevel.obj
 0002:0001f118       ??_C@_1M@MILPAJJC@?$AAh?$AAy?$AA?9?$AAa?$AAm?$AA?$AA@ 004ce118     libucrtd:lcidtoname_downlevel.obj
 0002:0001f128       ??_C@_1M@BABBICEC@?$AAi?$AAd?$AA?9?$AAi?$AAd?$AA?$AA@ 004ce128     libucrtd:lcidtoname_downlevel.obj
 0002:0001f138       ??_C@_1M@BIKNHHPF@?$AAi?$AAs?$AA?9?$AAi?$AAs?$AA?$AA@ 004ce138     libucrtd:lcidtoname_downlevel.obj
 0002:0001f148       ??_C@_1M@NMPCJPHE@?$AAi?$AAt?$AA?9?$AAc?$AAh?$AA?$AA@ 004ce148     libucrtd:lcidtoname_downlevel.obj
 0002:0001f158       ??_C@_1M@GHKGFEDF@?$AAi?$AAt?$AA?9?$AAi?$AAt?$AA?$AA@ 004ce158     libucrtd:lcidtoname_downlevel.obj
 0002:0001f168       ??_C@_1M@NIEJCJJA@?$AAj?$AAa?$AA?9?$AAj?$AAp?$AA?$AA@ 004ce168     libucrtd:lcidtoname_downlevel.obj
 0002:0001f178       ??_C@_1M@JILFNBIM@?$AAk?$AAa?$AA?9?$AAg?$AAe?$AA?$AA@ 004ce178     libucrtd:lcidtoname_downlevel.obj
 0002:0001f188       ??_C@_1M@PACPMGPH@?$AAk?$AAk?$AA?9?$AAk?$AAz?$AA?$AA@ 004ce188     libucrtd:lcidtoname_downlevel.obj
 0002:0001f198       ??_C@_1M@IELFGMHA@?$AAk?$AAn?$AA?9?$AAi?$AAn?$AA?$AA@ 004ce198     libucrtd:lcidtoname_downlevel.obj
 0002:0001f1a8       ??_C@_1O@IBBJHCH@?$AAk?$AAo?$AAk?$AA?9?$AAi?$AAn?$AA?$AA@ 004ce1a8     libucrtd:lcidtoname_downlevel.obj
 0002:0001f1b8       ??_C@_1M@DMHAEOGC@?$AAk?$AAo?$AA?9?$AAk?$AAr?$AA?$AA@ 004ce1b8     libucrtd:lcidtoname_downlevel.obj
 0002:0001f1c8       ??_C@_1M@HBAHBIGA@?$AAk?$AAy?$AA?9?$AAk?$AAg?$AA?$AA@ 004ce1c8     libucrtd:lcidtoname_downlevel.obj
 0002:0001f1d8       ??_C@_1M@KPMILCJG@?$AAl?$AAt?$AA?9?$AAl?$AAt?$AA?$AA@ 004ce1d8     libucrtd:lcidtoname_downlevel.obj
 0002:0001f1e8       ??_C@_1M@BDEKKCA@?$AAl?$AAv?$AA?9?$AAl?$AAv?$AA?$AA@ 004ce1e8     libucrtd:lcidtoname_downlevel.obj
 0002:0001f1f8       ??_C@_1M@ELCKCCJJ@?$AAm?$AAi?$AA?9?$AAn?$AAz?$AA?$AA@ 004ce1f8     libucrtd:lcidtoname_downlevel.obj
 0002:0001f208       ??_C@_1M@CBOOLAPA@?$AAm?$AAk?$AA?9?$AAm?$AAk?$AA?$AA@ 004ce208     libucrtd:lcidtoname_downlevel.obj
 0002:0001f218       ??_C@_1M@GPHNBJKN@?$AAm?$AAl?$AA?9?$AAi?$AAn?$AA?$AA@ 004ce218     libucrtd:lcidtoname_downlevel.obj
 0002:0001f228       ??_C@_1M@PABJILIG@?$AAm?$AAn?$AA?9?$AAm?$AAn?$AA?$AA@ 004ce228     libucrtd:lcidtoname_downlevel.obj
 0002:0001f238       ??_C@_1M@FGBKKIPG@?$AAm?$AAr?$AA?9?$AAi?$AAn?$AA?$AA@ 004ce238     libucrtd:lcidtoname_downlevel.obj
 0002:0001f248       ??_C@_1M@NDBPDDAL@?$AAm?$AAs?$AA?9?$AAb?$AAn?$AA?$AA@ 004ce248     libucrtd:lcidtoname_downlevel.obj
 0002:0001f258       ??_C@_1M@OPIHOOPI@?$AAm?$AAs?$AA?9?$AAm?$AAy?$AA?$AA@ 004ce258     libucrtd:lcidtoname_downlevel.obj
 0002:0001f268       ??_C@_1M@PPDBCNFM@?$AAm?$AAt?$AA?9?$AAm?$AAt?$AA?$AA@ 004ce268     libucrtd:lcidtoname_downlevel.obj
 0002:0001f278       ??_C@_1M@KDJDKMDD@?$AAn?$AAb?$AA?9?$AAn?$AAo?$AA?$AA@ 004ce278     libucrtd:lcidtoname_downlevel.obj
 0002:0001f288       ??_C@_1M@KFCFLMJP@?$AAn?$AAl?$AA?9?$AAb?$AAe?$AA?$AA@ 004ce288     libucrtd:lcidtoname_downlevel.obj
 0002:0001f298       ??_C@_1M@KPOPDDGO@?$AAn?$AAl?$AA?9?$AAn?$AAl?$AA?$AA@ 004ce298     libucrtd:lcidtoname_downlevel.obj
 0002:0001f2a8       ??_C@_1M@LJKPEMLN@?$AAn?$AAn?$AA?9?$AAn?$AAo?$AA?$AA@ 004ce2a8     libucrtd:lcidtoname_downlevel.obj
 0002:0001f2b8       ??_C@_1M@BDGHHBFL@?$AAn?$AAs?$AA?9?$AAz?$AAa?$AA?$AA@ 004ce2b8     libucrtd:lcidtoname_downlevel.obj
 0002:0001f2c8       ??_C@_1M@IDEHOAP@?$AAp?$AAa?$AA?9?$AAi?$AAn?$AA?$AA@ 004ce2c8     libucrtd:lcidtoname_downlevel.obj
 0002:0001f2d8       ??_C@_1M@HDBKGOGH@?$AAp?$AAl?$AA?9?$AAp?$AAl?$AA?$AA@ 004ce2d8     libucrtd:lcidtoname_downlevel.obj
 0002:0001f2e8       ??_C@_1M@LJLLCMEH@?$AAp?$AAt?$AA?9?$AAb?$AAr?$AA?$AA@ 004ce2e8     libucrtd:lcidtoname_downlevel.obj
 0002:0001f2f8       ??_C@_1M@NCMONAAL@?$AAp?$AAt?$AA?9?$AAp?$AAt?$AA?$AA@ 004ce2f8     libucrtd:lcidtoname_downlevel.obj
 0002:0001f308       ??_C@_1O@EAKMAJDN@?$AAq?$AAu?$AAz?$AA?9?$AAb?$AAo?$AA?$AA@ 004ce308     libucrtd:lcidtoname_downlevel.obj
 0002:0001f318       ??_C@_1O@BHHPIGDN@?$AAq?$AAu?$AAz?$AA?9?$AAe?$AAc?$AA?$AA@ 004ce318     libucrtd:lcidtoname_downlevel.obj
 0002:0001f328       ??_C@_1O@GBAPEKMJ@?$AAq?$AAu?$AAz?$AA?9?$AAp?$AAe?$AA?$AA@ 004ce328     libucrtd:lcidtoname_downlevel.obj
 0002:0001f338       ??_C@_1M@CLGLEFBO@?$AAr?$AAo?$AA?9?$AAr?$AAo?$AA?$AA@ 004ce338     libucrtd:lcidtoname_downlevel.obj
 0002:0001f348       ??_C@_1M@CEEDODME@?$AAr?$AAu?$AA?9?$AAr?$AAu?$AA?$AA@ 004ce348     libucrtd:lcidtoname_downlevel.obj
 0002:0001f358       ??_C@_1M@HPKKKMPP@?$AAs?$AAa?$AA?9?$AAi?$AAn?$AA?$AA@ 004ce358     libucrtd:lcidtoname_downlevel.obj
 0002:0001f368       ??_C@_1M@BKMAIGOJ@?$AAs?$AAe?$AA?9?$AAf?$AAi?$AA?$AA@ 004ce368     libucrtd:lcidtoname_downlevel.obj
 0002:0001f378       ??_C@_1M@NDPIFLFI@?$AAs?$AAe?$AA?9?$AAn?$AAo?$AA?$AA@ 004ce378     libucrtd:lcidtoname_downlevel.obj
 0002:0001f388       ??_C@_1M@DANKKHJ@?$AAs?$AAe?$AA?9?$AAs?$AAe?$AA?$AA@ 004ce388     libucrtd:lcidtoname_downlevel.obj
 0002:0001f398       ??_C@_1M@PNBLONPJ@?$AAs?$AAk?$AA?9?$AAs?$AAk?$AA?$AA@ 004ce398     libucrtd:lcidtoname_downlevel.obj
 0002:0001f3a8       ??_C@_1M@LFMODOAL@?$AAs?$AAl?$AA?9?$AAs?$AAi?$AA?$AA@ 004ce3a8     libucrtd:lcidtoname_downlevel.obj
 0002:0001f3b8       ??_C@_1O@DFKOMPG@?$AAs?$AAm?$AAa?$AA?9?$AAn?$AAo?$AA?$AA@ 004ce3b8     libucrtd:lcidtoname_downlevel.obj
 0002:0001f3c8       ??_C@_1O@NDKPBNNH@?$AAs?$AAm?$AAa?$AA?9?$AAs?$AAe?$AA?$AA@ 004ce3c8     libucrtd:lcidtoname_downlevel.obj
 0002:0001f3d8       ??_C@_1O@PLLKBHAB@?$AAs?$AAm?$AAj?$AA?9?$AAn?$AAo?$AA?$AA@ 004ce3d8     libucrtd:lcidtoname_downlevel.obj
 0002:0001f3e8       ??_C@_1O@CLEPOGCA@?$AAs?$AAm?$AAj?$AA?9?$AAs?$AAe?$AA?$AA@ 004ce3e8     libucrtd:lcidtoname_downlevel.obj
 0002:0001f3f8       ??_C@_1O@DLGJGKMK@?$AAs?$AAm?$AAn?$AA?9?$AAf?$AAi?$AA?$AA@ 004ce3f8     libucrtd:lcidtoname_downlevel.obj
 0002:0001f408       ??_C@_1O@OJDJGAJC@?$AAs?$AAm?$AAs?$AA?9?$AAf?$AAi?$AA?$AA@ 004ce408     libucrtd:lcidtoname_downlevel.obj
 0002:0001f418       ??_C@_1M@BOFOGHPB@?$AAs?$AAq?$AA?9?$AAa?$AAl?$AA?$AA@ 004ce418     libucrtd:lcidtoname_downlevel.obj
 0002:0001f428       ??_C@_1BG@LJBBIPGB@?$AAs?$AAr?$AA?9?$AAb?$AAa?$AA?9?$AAc?$AAy?$AAr?$AAl?$AA?$AA@ 004ce428     libucrtd:lcidtoname_downlevel.obj
 0002:0001f444       ??_C@_1BG@JLBENFOE@?$AAs?$AAr?$AA?9?$AAb?$AAa?$AA?9?$AAl?$AAa?$AAt?$AAn?$AA?$AA@ 004ce444     libucrtd:lcidtoname_downlevel.obj
 0002:0001f460       ??_C@_1BG@KODPNHE@?$AAs?$AAr?$AA?9?$AAs?$AAp?$AA?9?$AAc?$AAy?$AAr?$AAl?$AA?$AA@ 004ce460     libucrtd:lcidtoname_downlevel.obj
 0002:0001f47c       ??_C@_1BG@CIOGKHPB@?$AAs?$AAr?$AA?9?$AAs?$AAp?$AA?9?$AAl?$AAa?$AAt?$AAn?$AA?$AA@ 004ce47c     libucrtd:lcidtoname_downlevel.obj
 0002:0001f498       ??_C@_1M@NGFJLMAC@?$AAs?$AAv?$AA?9?$AAf?$AAi?$AA?$AA@ 004ce498     libucrtd:lcidtoname_downlevel.obj
 0002:0001f4a8       ??_C@_1M@MPJEJAJC@?$AAs?$AAv?$AA?9?$AAs?$AAe?$AA?$AA@ 004ce4a8     libucrtd:lcidtoname_downlevel.obj
 0002:0001f4b8       ??_C@_1M@MPNDHLFK@?$AAs?$AAw?$AA?9?$AAk?$AAe?$AA?$AA@ 004ce4b8     libucrtd:lcidtoname_downlevel.obj
 0002:0001f4c8       ??_C@_1O@KOHBJJI@?$AAs?$AAy?$AAr?$AA?9?$AAs?$AAy?$AA?$AA@ 004ce4c8     libucrtd:lcidtoname_downlevel.obj
 0002:0001f4d8       ??_C@_1M@LDCEFHA@?$AAt?$AAa?$AA?9?$AAi?$AAn?$AA?$AA@ 004ce4d8     libucrtd:lcidtoname_downlevel.obj
 0002:0001f4e8       ??_C@_1M@CNJOFAK@?$AAt?$AAe?$AA?9?$AAi?$AAn?$AA?$AA@ 004ce4e8     libucrtd:lcidtoname_downlevel.obj
 0002:0001f4f8       ??_C@_1M@GNAECACD@?$AAt?$AAh?$AA?9?$AAt?$AAh?$AA?$AA@ 004ce4f8     libucrtd:lcidtoname_downlevel.obj
 0002:0001f508       ??_C@_1M@CHBIHOJO@?$AAt?$AAn?$AA?9?$AAz?$AAa?$AA?$AA@ 004ce508     libucrtd:lcidtoname_downlevel.obj
 0002:0001f518       ??_C@_1M@GCCMIGPJ@?$AAt?$AAr?$AA?9?$AAt?$AAr?$AA?$AA@ 004ce518     libucrtd:lcidtoname_downlevel.obj
 0002:0001f528       ??_C@_1M@CELMCNBK@?$AAt?$AAt?$AA?9?$AAr?$AAu?$AA?$AA@ 004ce528     libucrtd:lcidtoname_downlevel.obj
 0002:0001f538       ??_C@_1M@KLMCELGA@?$AAu?$AAk?$AA?9?$AAu?$AAa?$AA?$AA@ 004ce538     libucrtd:lcidtoname_downlevel.obj
 0002:0001f548       ??_C@_1M@EPAJJAJF@?$AAu?$AAr?$AA?9?$AAp?$AAk?$AA?$AA@ 004ce548     libucrtd:lcidtoname_downlevel.obj
 0002:0001f558       ??_C@_1BG@GEGPMCDJ@?$AAu?$AAz?$AA?9?$AAu?$AAz?$AA?9?$AAc?$AAy?$AAr?$AAl?$AA?$AA@ 004ce558     libucrtd:lcidtoname_downlevel.obj
 0002:0001f574       ??_C@_1BG@EGGKJILM@?$AAu?$AAz?$AA?9?$AAu?$AAz?$AA?9?$AAl?$AAa?$AAt?$AAn?$AA?$AA@ 004ce574     libucrtd:lcidtoname_downlevel.obj
 0002:0001f590       ??_C@_1M@GFOCLFF@?$AAv?$AAi?$AA?9?$AAv?$AAn?$AA?$AA@ 004ce590     libucrtd:lcidtoname_downlevel.obj
 0002:0001f5a0       ??_C@_1M@CPAMEDFI@?$AAx?$AAh?$AA?9?$AAz?$AAa?$AA?$AA@ 004ce5a0     libucrtd:lcidtoname_downlevel.obj
 0002:0001f5b0       ??_C@_1O@EBKIFIGN@?$AAz?$AAh?$AA?9?$AAc?$AAh?$AAs?$AA?$AA@ 004ce5b0     libucrtd:lcidtoname_downlevel.obj
 0002:0001f5c0       ??_C@_1O@NMHPGANE@?$AAz?$AAh?$AA?9?$AAc?$AAh?$AAt?$AA?$AA@ 004ce5c0     libucrtd:lcidtoname_downlevel.obj
 0002:0001f5d0       ??_C@_1M@LPINJOMC@?$AAz?$AAh?$AA?9?$AAc?$AAn?$AA?$AA@ 004ce5d0     libucrtd:lcidtoname_downlevel.obj
 0002:0001f5e0       ??_C@_1M@OCJEJODD@?$AAz?$AAh?$AA?9?$AAh?$AAk?$AA?$AA@ 004ce5e0     libucrtd:lcidtoname_downlevel.obj
 0002:0001f5f0       ??_C@_1M@DNDLJINH@?$AAz?$AAh?$AA?9?$AAm?$AAo?$AA?$AA@ 004ce5f0     libucrtd:lcidtoname_downlevel.obj
 0002:0001f600       ??_C@_1M@MBFDNDND@?$AAz?$AAh?$AA?9?$AAs?$AAg?$AA?$AA@ 004ce600     libucrtd:lcidtoname_downlevel.obj
 0002:0001f610       ??_C@_1M@IMEPLEPE@?$AAz?$AAh?$AA?9?$AAt?$AAw?$AA?$AA@ 004ce610     libucrtd:lcidtoname_downlevel.obj
 0002:0001f620       ??_C@_1M@BBGHNHJP@?$AAz?$AAu?$AA?9?$AAz?$AAa?$AA?$AA@ 004ce620     libucrtd:lcidtoname_downlevel.obj
 0002:0001f630       ??_C@_1HO@KHHMOCBO@?$AAm?$AAi?$AAn?$AAk?$AAe?$AAr?$AAn?$AAe?$AAl?$AA?2?$AAc?$AAr?$AAt?$AAs?$AA?2?$AAu?$AAc?$AAr?$AAt?$AA?2?$AAs?$AAr?$AAc?$AA?2?$AAa?$AAp?$AAp?$AAc?$AAr?$AAt?$AA?2?$AAl@ 004ce630     libucrtd:lcidtoname_downlevel.obj
 0002:0001f6c8       ??_C@_1EC@MDFDCHIL@?$AA_?$AA_?$AAa?$AAc?$AAr?$AAt?$AA_?$AAD?$AAo?$AAw?$AAn?$AAl?$AAe?$AAv?$AAe?$AAl?$AAL?$AAC?$AAI?$AAD?$AAT?$AAo?$AAL?$AAo?$AAc?$AAa?$AAl?$AAe?$AAN?$AAa?$AAm?$AAe@ 004ce6c8     libucrtd:lcidtoname_downlevel.obj
 0002:0001f718       ??_C@_1FO@LFACCMJH@?$AAw?$AAc?$AAs?$AAc?$AAp?$AAy?$AA_?$AAs?$AA?$CI?$AAo?$AAu?$AAt?$AAL?$AAo?$AAc?$AAa?$AAl?$AAe?$AAN?$AAa?$AAm?$AAe?$AA?0?$AA?5?$AAc?$AAc?$AAh?$AAL?$AAo?$AAc?$AAa?$AAl@ 004ce718     libucrtd:lcidtoname_downlevel.obj
 0002:0001f788       ??_C@_1CC@IBIHLDLG@?$AAf?$AAi?$AAr?$AAs?$AAt?$AA?5?$AA?$CB?$AA?$DN?$AA?5?$AAn?$AAu?$AAl?$AAl?$AAp?$AAt?$AAr?$AA?$AA@ 004ce788     libucrtd:wcsnicmp.obj
 0002:0001f7b0       ??_C@_1GG@CLJGPGNE@?$AAm?$AAi?$AAn?$AAk?$AAe?$AAr?$AAn?$AAe?$AAl?$AA?2?$AAc?$AAr?$AAt?$AAs?$AA?2?$AAu?$AAc?$AAr?$AAt?$AA?2?$AAs?$AAr?$AAc?$AA?2?$AAa?$AAp?$AAp?$AAc?$AAr?$AAt?$AA?2?$AAs@ 004ce7b0     libucrtd:wcsnicmp.obj
 0002:0001f82c       ??_C@_1BI@KLMFNDBC@?$AA_?$AAw?$AAc?$AAs?$AAn?$AAi?$AAc?$AAm?$AAp?$AA_?$AAl?$AA?$AA@ 004ce82c     libucrtd:wcsnicmp.obj
 0002:0001f848       ??_C@_1CA@GLFIDPNF@?$AAl?$AAa?$AAs?$AAt?$AA?5?$AA?$CB?$AA?$DN?$AA?5?$AAn?$AAu?$AAl?$AAl?$AAp?$AAt?$AAr?$AA?$AA@ 004ce848     libucrtd:wcsnicmp.obj
 0002:0001f870       ??_C@_1BE@JKOKKFEL@?$AA_?$AAw?$AAc?$AAs?$AAn?$AAi?$AAc?$AAm?$AAp?$AA?$AA@ 004ce870     libucrtd:wcsnicmp.obj
 0002:0001f888       ??_C@_1BO@GCPMHDON@?$AAd?$AAs?$AAt?$AA?5?$AA?$CB?$AA?$DN?$AA?5?$AAn?$AAu?$AAl?$AAl?$AAp?$AAt?$AAr?$AA?$AA@ 004ce888     libucrtd:strnicmp.obj
 0002:0001f8b0       ??_C@_1GG@FIFJEMIA@?$AAm?$AAi?$AAn?$AAk?$AAe?$AAr?$AAn?$AAe?$AAl?$AA?2?$AAc?$AAr?$AAt?$AAs?$AA?2?$AAu?$AAc?$AAr?$AAt?$AA?2?$AAs?$AAr?$AAc?$AA?2?$AAa?$AAp?$AAp?$AAc?$AAr?$AAt?$AA?2?$AAs@ 004ce8b0     libucrtd:strnicmp.obj
 0002:0001f92c       ??_C@_1BI@BJLEPLEF@?$AA_?$AAs?$AAt?$AAr?$AAn?$AAi?$AAc?$AAm?$AAp?$AA_?$AAl?$AA?$AA@ 004ce92c     libucrtd:strnicmp.obj
 0002:0001f948       ??_C@_1BO@NEBGDLJE@?$AAs?$AAr?$AAc?$AA?5?$AA?$CB?$AA?$DN?$AA?5?$AAn?$AAu?$AAl?$AAl?$AAp?$AAt?$AAr?$AA?$AA@ 004ce948     libucrtd:strnicmp.obj
 0002:0001f96c       ??_C@_1CC@JLPHKJPH@?$AAc?$AAo?$AAu?$AAn?$AAt?$AA?5?$AA?$DM?$AA?$DN?$AA?5?$AAI?$AAN?$AAT?$AA_?$AAM?$AAA?$AAX?$AA?$AA@ 004ce96c     libucrtd:strnicmp.obj
 0002:0001f994       ??_C@_1BE@BHJDFFNA@?$AA_?$AAs?$AAt?$AAr?$AAn?$AAi?$AAc?$AAm?$AAp?$AA?$AA@ 004ce994     libucrtd:strnicmp.obj
 0002:0001f9ac       ??_C@_1DC@MDAAFACM@?$AA?$CI?$AA?$CC?$AAI?$AAn?$AAv?$AAa?$AAl?$AAi?$AAd?$AA?5?$AAo?$AAp?$AAe?$AAn?$AA?5?$AAf?$AAl?$AAa?$AAg?$AA?$CC?$AA?0?$AA?5?$AA0?$AA?$CJ?$AA?$AA@ 004ce9ac     libucrtd:open.obj
 0002:0001f9e8       ??_C@_1FM@EFELGMIP@?$AAm?$AAi?$AAn?$AAk?$AAe?$AAr?$AAn?$AAe?$AAl?$AA?2?$AAc?$AAr?$AAt?$AAs?$AA?2?$AAu?$AAc?$AAr?$AAt?$AA?2?$AAs?$AAr?$AAc?$AA?2?$AAa?$AAp?$AAp?$AAc?$AAr?$AAt?$AA?2?$AAl@ 004ce9e8     libucrtd:open.obj
 0002:0001fa58       ??_C@_1CI@CBNKIJOA@?$AAd?$AAe?$AAc?$AAo?$AAd?$AAe?$AA_?$AAa?$AAc?$AAc?$AAe?$AAs?$AAs?$AA_?$AAf?$AAl?$AAa?$AAg?$AAs?$AA?$AA@ 004cea58     libucrtd:open.obj
 0002:0001fa88       ??_C@_1DC@MNGJFJEL@?$AAd?$AAe?$AAc?$AAo?$AAd?$AAe?$AA_?$AAo?$AAp?$AAe?$AAn?$AA_?$AAc?$AAr?$AAe?$AAa?$AAt?$AAe?$AA_?$AAf?$AAl?$AAa?$AAg?$AAs?$AA?$AA@ 004cea88     libucrtd:open.obj
 0002:0001fac4       ??_C@_1DI@OAOBKLOM@?$AA?$CI?$AA?$CC?$AAI?$AAn?$AAv?$AAa?$AAl?$AAi?$AAd?$AA?5?$AAs?$AAh?$AAa?$AAr?$AAi?$AAn?$AAg?$AA?5?$AAf?$AAl?$AAa?$AAg?$AA?$CC?$AA?0?$AA?5?$AA0?$AA?$CJ?$AA?$AA@ 004ceac4     libucrtd:open.obj
 0002:0001fb08       ??_C@_1CK@LFHOGGAL@?$AAd?$AAe?$AAc?$AAo?$AAd?$AAe?$AA_?$AAs?$AAh?$AAa?$AAr?$AAi?$AAn?$AAg?$AA_?$AAf?$AAl?$AAa?$AAg?$AAs?$AA?$AA@ 004ceb08     libucrtd:open.obj
 0002:0001fb3c       ??_C@_1BK@MIHMAFGB@?$AAi?$AAs?$AA_?$AAt?$AAe?$AAx?$AAt?$AA_?$AAm?$AAo?$AAd?$AAe?$AA?$AA@ 004ceb3c     libucrtd:open.obj
 0002:0001fb5c       ??_C@_1CG@ICBEBDJJ@?$AA_?$AAg?$AAe?$AAt?$AA_?$AAf?$AAm?$AAo?$AAd?$AAe?$AA?$CI?$AA?$CG?$AAf?$AAm?$AAo?$AAd?$AAe?$AA?$CJ?$AA?$AA@ 004ceb5c     libucrtd:open.obj
 0002:0001fb8c       ??_C@_1CI@FIBMFMKJ@?$AAc?$AAo?$AAn?$AAf?$AAi?$AAg?$AAu?$AAr?$AAe?$AA_?$AAt?$AAe?$AAx?$AAt?$AA_?$AAm?$AAo?$AAd?$AAe?$AA?$AA@ 004ceb8c     libucrtd:open.obj
 0002:0001fbbc       ??_C@_1DM@GAGCJPHI@?$AA?$CI?$AAo?$AAf?$AAl?$AAa?$AAg?$AA?5?$AA?$CG?$AA?5?$AAt?$AAe?$AAx?$AAt?$AA_?$AAm?$AAo?$AAd?$AAe?$AA_?$AAm?$AAa?$AAs?$AAk?$AA?$CJ?$AA?5?$AA?$CB?$AA?$DN?$AA?5?$AA0?$AA?$AA@ 004cebbc     libucrtd:open.obj
 0002:0001fc04       ??_C@_1CM@IDLMKMPG@?$AA0?$AA?5?$AA?$CG?$AA?$CG?$AA?5?$AA?$CC?$AAI?$AAn?$AAt?$AAe?$AAr?$AAn?$AAa?$AAl?$AA?5?$AAE?$AAr?$AAr?$AAo?$AAr?$AA?$CC?$AA?$AA@ 004cec04     libucrtd:open.obj
 0002:0001fc38       ??_C@_1IA@IENOJNJF@?$AA0?$AA?5?$AA?$CG?$AA?$CG?$AA?5?$AA?$CC?$AAO?$AAn?$AAl?$AAy?$AA?5?$AAU?$AAT?$AAF?$AA?9?$AA1?$AA6?$AA?5?$AAl?$AAi?$AAt?$AAt?$AAl?$AAe?$AA?5?$AAe?$AAn?$AAd?$AAi?$AAa?$AAn?$AA?5@ 004cec38     libucrtd:open.obj
 0002:0001fcd4       ??_C@_1BI@HOCKOFKK@?$AAc?$AAo?$AAm?$AAm?$AAo?$AAn?$AA_?$AAo?$AAp?$AAe?$AAn?$AA?$AA@ 004cecd4     libucrtd:open.obj
 0002:0001fcf0       ??_C@_1BO@CKEBPLGM@?$AAp?$AAf?$AAh?$AA?5?$AA?$CB?$AA?$DN?$AA?5?$AAn?$AAu?$AAl?$AAl?$AAp?$AAt?$AAr?$AA?$AA@ 004cecf0     libucrtd:open.obj
 0002:0001fd14       ??_C@_1CM@DJGGMBLF@?$AAc?$AAo?$AAm?$AAm?$AAo?$AAn?$AA_?$AAs?$AAo?$AAp?$AAe?$AAn?$AA_?$AAd?$AAi?$AAs?$AAp?$AAa?$AAt?$AAc?$AAh?$AA?$AA@ 004ced14     libucrtd:open.obj
 0002:0001fd48       ??_C@_1FC@KMHFBDGJ@?$AA?$CI?$AAp?$AAm?$AAo?$AAd?$AAe?$AA?5?$AA?$CG?$AA?5?$AA?$CI?$AA?$HO?$AA?$CI?$AA_?$AAS?$AA_?$AAI?$AAR?$AAE?$AAA?$AAD?$AA?5?$AA?$HM?$AA?5?$AA_?$AAS?$AA_?$AAI?$AAW?$AAR?$AAI?$AAT?$AAE@ 004ced48     libucrtd:open.obj
 0002:0001fdb0       ??_C@_1GA@DEPMKPD@?$AAm?$AAi?$AAn?$AAk?$AAe?$AAr?$AAn?$AAe?$AAl?$AA?2?$AAc?$AAr?$AAt?$AAs?$AA?2?$AAu?$AAc?$AAr?$AAt?$AA?2?$AAs?$AAr?$AAc?$AA?2?$AAa?$AAp?$AAp?$AAc?$AAr?$AAt?$AA?2?$AAl@ 004cedb0     libucrtd:isatty.obj
 0002:0001fe24       ??_C@_1BA@LEBDGIHM@?$AA_?$AAi?$AAs?$AAa?$AAt?$AAt?$AAy?$AA?$AA@ 004cee24     libucrtd:isatty.obj
 0002:0001fe38       ??_C@_1GC@DLDMJFMI@?$AAm?$AAi?$AAn?$AAk?$AAe?$AAr?$AAn?$AAe?$AAl?$AA?2?$AAc?$AAr?$AAt?$AAs?$AA?2?$AAu?$AAc?$AAr?$AAt?$AA?2?$AAs?$AAr?$AAc?$AA?2?$AAa?$AAp?$AAp?$AAc?$AAr?$AAt?$AA?2?$AAs@ 004cee38     libucrtd:_getbuf.obj
 0002:0001feb0       ??_C@_0DB@LKJPMJPL@minkernel?2crts?2ucrt?2src?2appcrt?2s@ 004ceeb0     libucrtd:_getbuf.obj
 0002:0001fef0       ??_C@_1GI@IMEEHIAK@?$AAm?$AAi?$AAn?$AAk?$AAe?$AAr?$AAn?$AAe?$AAl?$AA?2?$AAc?$AAr?$AAt?$AAs?$AA?2?$AAu?$AAc?$AAr?$AAt?$AA?2?$AAs?$AAr?$AAc?$AA?2?$AAa?$AAp?$AAp?$AAc?$AAr?$AAt?$AA?2?$AAc@ 004ceef0     libucrtd:_fptostr.obj
 0002:0001ff6c       ??_C@_1DG@NMGBKPMI@?$AA_?$AA_?$AAa?$AAc?$AAr?$AAt?$AA_?$AAf?$AAp?$AA_?$AAs?$AAt?$AAr?$AAf?$AAl?$AAt?$AA_?$AAt?$AAo?$AA_?$AAs?$AAt?$AAr?$AAi?$AAn?$AAg?$AA?$AA@ 004cef6c     libucrtd:_fptostr.obj
 0002:0001ffac       ??_C@_1CC@ONIJBMJF@?$AAb?$AAu?$AAf?$AAf?$AAe?$AAr?$AA_?$AAc?$AAo?$AAu?$AAn?$AAt?$AA?5?$AA?$DO?$AA?5?$AA0?$AA?$AA@ 004cefac     libucrtd:_fptostr.obj
 0002:0001ffd8       ??_C@_1IE@EAOKIIFP@?$AAb?$AAu?$AAf?$AAf?$AAe?$AAr?$AA_?$AAc?$AAo?$AAu?$AAn?$AAt?$AA?5?$AA?$DO?$AA?5?$AAs?$AAt?$AAa?$AAt?$AAi?$AAc?$AA_?$AAc?$AAa?$AAs?$AAt?$AA?$DM?$AAs?$AAi?$AAz?$AAe?$AA_@ 004cefd8     libucrtd:_fptostr.obj
 0002:00020078       ??_C@_1CA@EDEEBMBB@?$AAp?$AAf?$AAl?$AAt?$AA?5?$AA?$CB?$AA?$DN?$AA?5?$AAn?$AAu?$AAl?$AAl?$AAp?$AAt?$AAr?$AA?$AA@ 004cf078     libucrtd:_fptostr.obj
 0002:000200a0       ?large_power_data@?1??multiply_by_power_of_ten@__crt_strtox@@YA_NAAUbig_integer@2@I@Z@4QBIB 004cf0a0     libucrtd:cfout.obj
 0002:00020b78       ?large_power_indices@?1??multiply_by_power_of_ten@__crt_strtox@@YA_NAAUbig_integer@2@I@Z@4QBUunpack_index@?1??12@YA_N0I@Z@B 004cfb78     libucrtd:cfout.obj
 0002:00020c30       ?small_powers_of_ten@?6??multiply_by_power_of_ten@__crt_strtox@@YA_NAAUbig_integer@2@I@Z@4QBIB 004cfc30     libucrtd:cfout.obj
 0002:00020c5c       ??_C@_1DI@GICAMMFM@?$AA?$CI?$AA?$CC?$AAD?$AAi?$AAv?$AAi?$AAs?$AAi?$AAo?$AAn?$AA?5?$AAb?$AAy?$AA?5?$AAz?$AAe?$AAr?$AAo?$AA?$CC?$AA?0?$AA?5?$AAf?$AAa?$AAl?$AAs?$AAe?$AA?$CJ?$AA?$AA@ 004cfc5c     libucrtd:cfout.obj
 0002:00020ca0       ??_C@_1GO@BFGDDONN@?$AAm?$AAi?$AAn?$AAk?$AAe?$AAr?$AAn?$AAe?$AAl?$AA?2?$AAc?$AAr?$AAt?$AAs?$AA?2?$AAu?$AAc?$AAr?$AAt?$AA?2?$AAi?$AAn?$AAc?$AA?2?$AAc?$AAo?$AAr?$AAe?$AAc?$AAr?$AAt?$AA_@ 004cfca0     libucrtd:cfout.obj
 0002:00020d28       ??_C@_1GC@DDAKNBNC@?$AAm?$AAi?$AAn?$AAk?$AAe?$AAr?$AAn?$AAe?$AAl?$AA?2?$AAc?$AAr?$AAt?$AAs?$AA?2?$AAu?$AAc?$AAr?$AAt?$AA?2?$AAs?$AAr?$AAc?$AA?2?$AAa?$AAp?$AAp?$AAc?$AAr?$AAt?$AA?2?$AAc@ 004cfd28     libucrtd:cfout.obj
 0002:00020da0       ??_C@_1BM@FAAOAKKO@?$AA_?$AA_?$AAa?$AAc?$AAr?$AAt?$AA_?$AAf?$AAl?$AAt?$AAo?$AAu?$AAt?$AA?$AA@ 004cfda0     libucrtd:cfout.obj
 0002:00020dc8       ??_C@_1EI@OACEJKEP@?$AAs?$AAt?$AAr?$AAc?$AAp?$AAy?$AA_?$AAs?$AA?$CI?$AAr?$AAe?$AAs?$AAu?$AAl?$AAt?$AA?0?$AA?5?$AAr?$AAe?$AAs?$AAu?$AAl?$AAt?$AA_?$AAc?$AAo?$AAu?$AAn?$AAt?$AA?0?$AA?5?$AA?$CC@ 004cfdc8     libucrtd:cfout.obj
 0002:00020e20       ??_C@_01GBGANLPD@0?$AA@    004cfe20     libucrtd:cfout.obj
 0002:00020e28       ??_C@_1FC@KIECGFMP@?$AAs?$AAt?$AAr?$AAc?$AAp?$AAy?$AA_?$AAs?$AA?$CI?$AAr?$AAe?$AAs?$AAu?$AAl?$AAt?$AA?0?$AA?5?$AAr?$AAe?$AAs?$AAu?$AAl?$AAt?$AA_?$AAc?$AAo?$AAu?$AAn?$AAt?$AA?0?$AA?5?$AA?$CC@ 004cfe28     libucrtd:cfout.obj
 0002:00020e8c       ??_C@_05DNEBIAHO@1?$CDINF?$AA@ 004cfe8c     libucrtd:cfout.obj
 0002:00020e98       ??_C@_1FC@NFPJEIBD@?$AAs?$AAt?$AAr?$AAc?$AAp?$AAy?$AA_?$AAs?$AA?$CI?$AAr?$AAe?$AAs?$AAu?$AAl?$AAt?$AA?0?$AA?5?$AAr?$AAe?$AAs?$AAu?$AAl?$AAt?$AA_?$AAc?$AAo?$AAu?$AAn?$AAt?$AA?0?$AA?5?$AA?$CC@ 004cfe98     libucrtd:cfout.obj
 0002:00020efc       ??_C@_06IMKFLFPG@1?$CDQNAN?$AA@ 004cfefc     libucrtd:cfout.obj
 0002:00020f08       ??_C@_1FC@DEJHIMLO@?$AAs?$AAt?$AAr?$AAc?$AAp?$AAy?$AA_?$AAs?$AA?$CI?$AAr?$AAe?$AAs?$AAu?$AAl?$AAt?$AA?0?$AA?5?$AAr?$AAe?$AAs?$AAu?$AAl?$AAt?$AA_?$AAc?$AAo?$AAu?$AAn?$AAt?$AA?0?$AA?5?$AA?$CC@ 004cff08     libucrtd:cfout.obj
 0002:00020f6c       ??_C@_06PGGFOGJG@1?$CDSNAN?$AA@ 004cff6c     libucrtd:cfout.obj
 0002:00020f78       ??_C@_1FC@KMLHLFPC@?$AAs?$AAt?$AAr?$AAc?$AAp?$AAy?$AA_?$AAs?$AA?$CI?$AAr?$AAe?$AAs?$AAu?$AAl?$AAt?$AA?0?$AA?5?$AAr?$AAe?$AAs?$AAu?$AAl?$AAt?$AA_?$AAc?$AAo?$AAu?$AAn?$AAt?$AA?0?$AA?5?$AA?$CC@ 004cff78     libucrtd:cfout.obj
 0002:00020fdc       ??_C@_05PHHOCPM@1?$CDIND?$AA@ 004cffdc     libucrtd:cfout.obj
 0002:00020fe4       ??_C@_1DE@KHKADFOO@?$AAm?$AAa?$AAn?$AAt?$AAi?$AAs?$AAs?$AAa?$AA_?$AAb?$AAu?$AAf?$AAf?$AAe?$AAr?$AA_?$AAc?$AAo?$AAu?$AAn?$AAt?$AA?5?$AA?$DO?$AA?5?$AA0?$AA?$AA@ 004cffe4     libucrtd:cfout.obj
 0002:00021028       ??_C@_1FI@LFKLOPAC@?$AA?$CI?$AA?$CC?$AAu?$AAn?$AAe?$AAx?$AAp?$AAe?$AAc?$AAt?$AAe?$AAd?$AA?5?$AAi?$AAn?$AAp?$AAu?$AAt?$AA?5?$AAv?$AAa?$AAl?$AAu?$AAe?$AA?$DL?$AA?5?$AAl?$AAo?$AAg?$AA1?$AA0?$AA?5@ 004d0028     libucrtd:cfout.obj
 0002:00021098       ??_C@_1FG@MLHBDPBG@?$AAq?$AAu?$AAo?$AAt?$AAi?$AAe?$AAn?$AAt?$AA?5?$AA?$DM?$AA?5?$AAd?$AAi?$AAg?$AAi?$AAt?$AAs?$AA_?$AAp?$AAe?$AAr?$AA_?$AAi?$AAt?$AAe?$AAr?$AAa?$AAt?$AAi?$AAo?$AAn?$AA_@ 004d0098     libucrtd:cfout.obj
 0002:00021100       ___dnames                  004d0100     libucrtd:timeset.obj
 0002:0002111c       ___mnames                  004d011c     libucrtd:timeset.obj
 0002:00021148       ??_C@_1GA@DKIAGECB@?$AAm?$AAi?$AAn?$AAk?$AAe?$AAr?$AAn?$AAe?$AAl?$AA?2?$AAc?$AAr?$AAt?$AAs?$AA?2?$AAu?$AAc?$AAr?$AAt?$AA?2?$AAs?$AAr?$AAc?$AA?2?$AAa?$AAp?$AAp?$AAc?$AAr?$AAt?$AA?2?$AAt@ 004d0148     libucrtd:timeset.obj
 0002:000211bc       ??_C@_1BM@FIMHBHEB@?$AA_?$AAg?$AAe?$AAt?$AA_?$AAd?$AAa?$AAy?$AAl?$AAi?$AAg?$AAh?$AAt?$AA?$AA@ 004d01bc     libucrtd:timeset.obj
 0002:000211e0       ??_C@_1BK@EMODDHEE@?$AA_?$AAg?$AAe?$AAt?$AA_?$AAd?$AAs?$AAt?$AAb?$AAi?$AAa?$AAs?$AA?$AA@ 004d01e0     libucrtd:timeset.obj
 0002:00021200       ??_C@_1BM@MGEAKPEJ@?$AA_?$AAg?$AAe?$AAt?$AA_?$AAt?$AAi?$AAm?$AAe?$AAz?$AAo?$AAn?$AAe?$AA?$AA@ 004d0200     libucrtd:timeset.obj
 0002:00021228       ??_C@_1KM@BFLODGGL@?$AA?$CI?$AAb?$AAu?$AAf?$AAf?$AAe?$AAr?$AA?5?$AA?$CB?$AA?$DN?$AA?5?$AAn?$AAu?$AAl?$AAl?$AAp?$AAt?$AAr?$AA?5?$AA?$CG?$AA?$CG?$AA?5?$AAs?$AAi?$AAz?$AAe?$AA_?$AAi?$AAn?$AA_?$AAb?$AAy@ 004d0228     libucrtd:timeset.obj
 0002:000212f8       ??_C@_1BI@BHCKCCFA@?$AA_?$AAg?$AAe?$AAt?$AA_?$AAt?$AAz?$AAn?$AAa?$AAm?$AAe?$AA?$AA@ 004d02f8     libucrtd:timeset.obj
 0002:00021314       ??_C@_1CE@HBFOGCFH@?$AAl?$AAe?$AAn?$AAg?$AAt?$AAh?$AA?5?$AA?$CB?$AA?$DN?$AA?5?$AAn?$AAu?$AAl?$AAl?$AAp?$AAt?$AAr?$AA?$AA@ 004d0314     libucrtd:timeset.obj
 0002:00021340       ??_C@_1DC@BDANNIGD@?$AAi?$AAn?$AAd?$AAe?$AAx?$AA?5?$AA?$DN?$AA?$DN?$AA?5?$AA0?$AA?5?$AA?$HM?$AA?$HM?$AA?5?$AAi?$AAn?$AAd?$AAe?$AAx?$AA?5?$AA?$DN?$AA?$DN?$AA?5?$AA1?$AA?$AA@ 004d0340     libucrtd:timeset.obj
 0002:0002137c       __days                     004d037c     libucrtd:days.obj
 0002:000213bc       __lpdays                   004d03bc     libucrtd:days.obj
 0002:000213fc       ??_C@_0CP@FHPLDAFF@minkernel?2crts?2ucrt?2src?2appcrt?2t@ 004d03fc     libucrtd:gmtime.obj
 0002:00021438       ??_C@_1FO@DEFNKBNP@?$AAm?$AAi?$AAn?$AAk?$AAe?$AAr?$AAn?$AAe?$AAl?$AA?2?$AAc?$AAr?$AAt?$AAs?$AA?2?$AAu?$AAc?$AAr?$AAt?$AA?2?$AAs?$AAr?$AAc?$AA?2?$AAa?$AAp?$AAp?$AAc?$AAr?$AAt?$AA?2?$AAt@ 004d0438     libucrtd:gmtime.obj
 0002:000214a8       ??_C@_1CA@MFJJHIBL@?$AAc?$AAo?$AAm?$AAm?$AAo?$AAn?$AA_?$AAg?$AAm?$AAt?$AAi?$AAm?$AAe?$AA_?$AAs?$AA?$AA@ 004d04a8     libucrtd:gmtime.obj
 0002:000214d0       ??_C@_1CA@JELLNKMB@?$AAt?$AAi?$AAm?$AAp?$AA?5?$AA?$CB?$AA?$DN?$AA?5?$AAn?$AAu?$AAl?$AAl?$AAp?$AAt?$AAr?$AA?$AA@ 004d04d0     libucrtd:gmtime.obj
 0002:000214f8       ??_C@_02CLFPBFFP@TZ?$AA@   004d04f8     libucrtd:tzset.obj
 0002:000214fc       ??_C@_0CO@HGDJNALE@minkernel?2crts?2ucrt?2src?2appcrt?2t@ 004d04fc     libucrtd:tzset.obj
 0002:00021538       ??_C@_1FM@MDNOKAGD@?$AAm?$AAi?$AAn?$AAk?$AAe?$AAr?$AAn?$AAe?$AAl?$AA?2?$AAc?$AAr?$AAt?$AAs?$AA?2?$AAu?$AAc?$AAr?$AAt?$AA?2?$AAs?$AAr?$AAc?$AA?2?$AAa?$AAp?$AAp?$AAc?$AAr?$AAt?$AA?2?$AAt@ 004d0538     libucrtd:tzset.obj
 0002:000215a8       ??_C@_1DC@MADCMBHA@?$AAt?$AAz?$AAs?$AAe?$AAt?$AA_?$AAf?$AAr?$AAo?$AAm?$AA_?$AAs?$AAy?$AAs?$AAt?$AAe?$AAm?$AA_?$AAn?$AAo?$AAl?$AAo?$AAc?$AAk?$AA?$AA@ 004d05a8     libucrtd:tzset.obj
 0002:000215e4       ??_C@_1DM@PDIFNGHB@?$AAt?$AAz?$AAs?$AAe?$AAt?$AA_?$AAf?$AAr?$AAo?$AAm?$AA_?$AAe?$AAn?$AAv?$AAi?$AAr?$AAo?$AAn?$AAm?$AAe?$AAn?$AAt?$AA_?$AAn?$AAo?$AAl?$AAo?$AAc?$AAk?$AA?$AA@ 004d05e4     libucrtd:tzset.obj
 0002:00021630       ??_C@_1FM@FKGLLBKA@?$AAs?$AAt?$AAr?$AAc?$AAp?$AAy?$AA_?$AAs?$AA?$CI?$AAl?$AAa?$AAs?$AAt?$AA_?$AAt?$AAz?$AA?0?$AA?5?$AAs?$AAt?$AAr?$AAl?$AAe?$AAn?$AA?$CI?$AAt?$AAz?$AA_?$AAe?$AAn?$AAv?$AA?$CJ@ 004d0630     libucrtd:tzset.obj
 0002:000216a0       ??_C@_1GC@LDOKJLO@?$AAs?$AAt?$AAr?$AAn?$AAc?$AAp?$AAy?$AA_?$AAs?$AA?$CI?$AAt?$AAz?$AAn?$AAa?$AAm?$AAe?$AA?$FL?$AA0?$AA?$FN?$AA?0?$AA?5?$AA6?$AA4?$AA?0?$AA?5?$AAt?$AAz?$AA_?$AAe?$AAn?$AAv?$AA?0@ 004d06a0     libucrtd:tzset.obj
 0002:00021718       ??_C@_1EI@MGFBHDFD@?$AAs?$AAt?$AAr?$AAn?$AAc?$AAp?$AAy?$AA_?$AAs?$AA?$CI?$AAt?$AAz?$AAn?$AAa?$AAm?$AAe?$AA?$FL?$AA1?$AA?$FN?$AA?0?$AA?5?$AA6?$AA4?$AA?0?$AA?5?$AAt?$AAz?$AA_?$AAe?$AAn?$AAv?$AA?0@ 004d0718     libucrtd:tzset.obj
 0002:00021770       ??_C@_1BA@GOCKIDGO@?$AAc?$AAv?$AAt?$AAd?$AAa?$AAt?$AAe?$AA?$AA@ 004d0770     libucrtd:tzset.obj
 0002:00021784       ??_C@_1CO@IMMOMMCB@?$AA_?$AAg?$AAe?$AAt?$AA_?$AAd?$AAs?$AAt?$AAb?$AAi?$AAa?$AAs?$AA?$CI?$AA?$CG?$AAd?$AAs?$AAt?$AAb?$AAi?$AAa?$AAs?$AA?$CJ?$AA?$AA@ 004d0784     libucrtd:tzset.obj
 0002:000217bc       ??_C@_1CA@GOLIIEDM@?$AA_?$AAi?$AAs?$AAi?$AAn?$AAd?$AAs?$AAt?$AA_?$AAn?$AAo?$AAl?$AAo?$AAc?$AAk?$AA?$AA@ 004d07bc     libucrtd:tzset.obj
 0002:000217e4       ??_C@_1DI@OOEEHOBJ@?$AAb?$AAa?$AAs?$AAe?$AA?5?$AA?$CB?$AA?$DN?$AA?5?$AAn?$AAu?$AAl?$AAl?$AAp?$AAt?$AAr?$AA?5?$AA?$HM?$AA?$HM?$AA?5?$AAn?$AAu?$AAm?$AA?5?$AA?$DN?$AA?$DN?$AA?5?$AA0?$AA?$AA@ 004d07e4     libucrtd:qsort.obj
 0002:00021828       ??_C@_1GA@KPPCKKGE@?$AAm?$AAi?$AAn?$AAk?$AAe?$AAr?$AAn?$AAe?$AAl?$AA?2?$AAc?$AAr?$AAt?$AAs?$AA?2?$AAu?$AAc?$AAr?$AAt?$AA?2?$AAs?$AAr?$AAc?$AA?2?$AAa?$AAp?$AAp?$AAc?$AAr?$AAt?$AA?2?$AAs@ 004d0828     libucrtd:qsort.obj
 0002:0002189c       ??_C@_1M@INMHODIG@?$AAq?$AAs?$AAo?$AAr?$AAt?$AA?$AA@ 004d089c     libucrtd:qsort.obj
 0002:000218ac       ??_C@_1BE@NJBEBBME@?$AAw?$AAi?$AAd?$AAt?$AAh?$AA?5?$AA?$DO?$AA?5?$AA0?$AA?$AA@ 004d08ac     libucrtd:qsort.obj
 0002:000218c4       ??_C@_1CA@LIDFOMIN@?$AAc?$AAo?$AAm?$AAp?$AA?5?$AA?$CB?$AA?$DN?$AA?5?$AAn?$AAu?$AAl?$AAl?$AAp?$AAt?$AAr?$AA?$AA@ 004d08c4     libucrtd:qsort.obj
 0002:000218f0       ??_C@_1GO@DDOMFNGF@?$AAm?$AAi?$AAn?$AAk?$AAe?$AAr?$AAn?$AAe?$AAl?$AA?2?$AAc?$AAr?$AAt?$AAs?$AA?2?$AAu?$AAc?$AAr?$AAt?$AA?2?$AAs?$AAr?$AAc?$AA?2?$AAd?$AAe?$AAs?$AAk?$AAt?$AAo?$AAp?$AAc@ 004d08f0     libucrtd:mbsdec.obj
 0002:00021974       ??_C@_1BE@KLNCOLCD@?$AA_?$AAm?$AAb?$AAs?$AAd?$AAe?$AAc?$AA_?$AAl?$AA?$AA@ 004d0974     libucrtd:mbsdec.obj
 0002:0002198c       ??_C@_1CG@CMGPGAOD@?$AAc?$AAu?$AAr?$AAr?$AAe?$AAn?$AAt?$AA?5?$AA?$CB?$AA?$DN?$AA?5?$AAn?$AAu?$AAl?$AAl?$AAp?$AAt?$AAr?$AA?$AA@ 004d098c     libucrtd:mbsdec.obj
 0002:000219bc       ??_C@_1CI@CCKDLILB@?$AA_?$AAs?$AAt?$AAr?$AAi?$AAn?$AAg?$AA1?$AA?5?$AA?$CB?$AA?$DN?$AA?5?$AAn?$AAu?$AAl?$AAl?$AAp?$AAt?$AAr?$AA?$AA@ 004d09bc     libucrtd:wcsnicol.obj
 0002:000219f0       ??_C@_1GG@MDOKJCAE@?$AAm?$AAi?$AAn?$AAk?$AAe?$AAr?$AAn?$AAe?$AAl?$AA?2?$AAc?$AAr?$AAt?$AAs?$AA?2?$AAu?$AAc?$AAr?$AAt?$AA?2?$AAs?$AAr?$AAc?$AA?2?$AAa?$AAp?$AAp?$AAc?$AAr?$AAt?$AA?2?$AAs@ 004d09f0     libucrtd:wcsnicol.obj
 0002:00021a6c       ??_C@_1BK@EONLMOKH@?$AA_?$AAw?$AAc?$AAs?$AAn?$AAi?$AAc?$AAo?$AAl?$AAl?$AA_?$AAl?$AA?$AA@ 004d0a6c     libucrtd:wcsnicol.obj
 0002:00021a8c       ??_C@_1CI@NAPEFFEJ@?$AA_?$AAs?$AAt?$AAr?$AAi?$AAn?$AAg?$AA2?$AA?5?$AA?$CB?$AA?$DN?$AA?5?$AAn?$AAu?$AAl?$AAl?$AAp?$AAt?$AAr?$AA?$AA@ 004d0a8c     libucrtd:wcsnicol.obj
 0002:00021abc       ??_C@_1BG@PCPANGGF@?$AA_?$AAw?$AAc?$AAs?$AAn?$AAi?$AAc?$AAo?$AAl?$AAl?$AA?$AA@ 004d0abc     libucrtd:wcsnicol.obj
 0002:00021ad8       ??_C@_1GG@LACFCIFA@?$AAm?$AAi?$AAn?$AAk?$AAe?$AAr?$AAn?$AAe?$AAl?$AA?2?$AAc?$AAr?$AAt?$AAs?$AA?2?$AAu?$AAc?$AAr?$AAt?$AA?2?$AAs?$AAr?$AAc?$AA?2?$AAa?$AAp?$AAp?$AAc?$AAr?$AAt?$AA?2?$AAs@ 004d0ad8     libucrtd:strnicol.obj
 0002:00021b54       ??_C@_1BK@IOJEBPLP@?$AA_?$AAs?$AAt?$AAr?$AAn?$AAi?$AAc?$AAo?$AAl?$AAl?$AA_?$AAl?$AA?$AA@ 004d0b54     libucrtd:strnicol.obj
 0002:00021b74       ??_C@_0DJ@JBBOOIAE@minkernel?2crts?2ucrt?2src?2appcrt?2l@ 004d0b74     libucrtd:getlocaleinfoa.obj
 0002:00021bb8       ??_C@_1HC@KAIIOBKJ@?$AAm?$AAi?$AAn?$AAk?$AAe?$AAr?$AAn?$AAe?$AAl?$AA?2?$AAc?$AAr?$AAt?$AAs?$AA?2?$AAu?$AAc?$AAr?$AAt?$AA?2?$AAs?$AAr?$AAc?$AA?2?$AAa?$AAp?$AAp?$AAc?$AAr?$AAt?$AA?2?$AAl@ 004d0bb8     libucrtd:getlocaleinfoa.obj
 0002:00021c40       ??_C@_1CM@LGLMFNOK@?$AA_?$AA_?$AAa?$AAc?$AAr?$AAt?$AA_?$AAG?$AAe?$AAt?$AAL?$AAo?$AAc?$AAa?$AAl?$AAe?$AAI?$AAn?$AAf?$AAo?$AAA?$AA?$AA@ 004d0c40     libucrtd:getlocaleinfoa.obj
 0002:00021c78       ??_C@_1IM@HJPPDDKJ@?$AAs?$AAt?$AAr?$AAn?$AAc?$AAp?$AAy?$AA_?$AAs?$AA?$CI?$AA?$CK?$AAc?$AAh?$AAa?$AAr?$AA_?$AAr?$AAe?$AAs?$AAu?$AAl?$AAt?$AA?0?$AA?5?$AAl?$AAo?$AAc?$AAa?$AAl?$AA_?$AAl?$AAe@ 004d0c78     libucrtd:getlocaleinfoa.obj
 0002:00021d20       ??_C@_1GA@HBEFGMHK@?$AAm?$AAi?$AAn?$AAk?$AAe?$AAr?$AAn?$AAe?$AAl?$AA?2?$AAc?$AAr?$AAt?$AAs?$AA?2?$AAu?$AAc?$AAr?$AAt?$AA?2?$AAs?$AAr?$AAc?$AA?2?$AAa?$AAp?$AAp?$AAc?$AAr?$AAt?$AA?2?$AAc@ 004d0d20     libucrtd:xtoa.obj
 0002:00021d94       ??_C@_1BM@HMPEMLNP@?$AAc?$AAo?$AAm?$AAm?$AAo?$AAn?$AA_?$AAx?$AAt?$AAo?$AAx?$AA_?$AAs?$AA?$AA@ 004d0d94     libucrtd:xtoa.obj
 0002:00021db8       ??_C@_1HA@JFIOFNKD@?$AAb?$AAu?$AAf?$AAf?$AAe?$AAr?$AA_?$AAc?$AAo?$AAu?$AAn?$AAt?$AA?5?$AA?$DO?$AA?5?$AAs?$AAt?$AAa?$AAt?$AAi?$AAc?$AA_?$AAc?$AAa?$AAs?$AAt?$AA?$DM?$AAs?$AAi?$AAz?$AAe?$AA_@ 004d0db8     libucrtd:xtoa.obj
 0002:00021e40       ??_C@_1DE@PCJGDBBD@?$AA2?$AA?5?$AA?$DM?$AA?$DN?$AA?5?$AAr?$AAa?$AAd?$AAi?$AAx?$AA?5?$AA?$CG?$AA?$CG?$AA?5?$AAr?$AAa?$AAd?$AAi?$AAx?$AA?5?$AA?$DM?$AA?$DN?$AA?5?$AA3?$AA6?$AA?$AA@ 004d0e40     libucrtd:xtoa.obj
 0002:00021e80       ??_C@_1CM@LONILNIJ@?$AAl?$AAe?$AAn?$AAg?$AAt?$AAh?$AA?5?$AA?$DM?$AA?5?$AAb?$AAu?$AAf?$AAf?$AAe?$AAr?$AA_?$AAc?$AAo?$AAu?$AAn?$AAt?$AA?$AA@ 004d0e80     libucrtd:xtoa.obj
 0002:00021eb4       ??_C@_1BI@OLPLFKOE@?$AAc?$AAo?$AAm?$AAm?$AAo?$AAn?$AA_?$AAx?$AAt?$AAo?$AAx?$AA?$AA@ 004d0eb4     libucrtd:xtoa.obj
 0002:00021ed0       ??_C@_1GE@FNNJGCGI@?$AAm?$AAi?$AAn?$AAk?$AAe?$AAr?$AAn?$AAe?$AAl?$AA?2?$AAc?$AAr?$AAt?$AAs?$AA?2?$AAu?$AAc?$AAr?$AAt?$AA?2?$AAs?$AAr?$AAc?$AA?2?$AAa?$AAp?$AAp?$AAc?$AAr?$AAt?$AA?2?$AAs@ 004d0ed0     libucrtd:wcsicmp.obj
 0002:00021f48       ??_C@_1BG@EELGPCPD@?$AA_?$AAw?$AAc?$AAs?$AAi?$AAc?$AAm?$AAp?$AA_?$AAl?$AA?$AA@ 004d0f48     libucrtd:wcsicmp.obj
 0002:00021f64       ??_C@_1BC@NHIBDOMC@?$AA_?$AAw?$AAc?$AAs?$AAi?$AAc?$AAm?$AAp?$AA?$AA@ 004d0f64     libucrtd:wcsicmp.obj
 0002:00021f7c       ??_C@_1BK@FPAMLIDG@?$AAs?$AA?5?$AA?$CB?$AA?$DN?$AA?5?$AAn?$AAu?$AAl?$AAl?$AAp?$AAt?$AAr?$AA?$AA@ 004d0f7c     libucrtd:mbstowcs.obj
 0002:00021fa0       ??_C@_1GI@KABMHNPH@?$AAm?$AAi?$AAn?$AAk?$AAe?$AAr?$AAn?$AAe?$AAl?$AA?2?$AAc?$AAr?$AAt?$AAs?$AA?2?$AAu?$AAc?$AAr?$AAt?$AA?2?$AAs?$AAr?$AAc?$AA?2?$AAa?$AAp?$AAp?$AAc?$AAr?$AAt?$AA?2?$AAc@ 004d0fa0     libucrtd:mbstowcs.obj
 0002:0002201c       ??_C@_1CG@JEHFHLNG@?$AA_?$AAm?$AAb?$AAs?$AAt?$AAo?$AAw?$AAc?$AAs?$AA_?$AAl?$AA_?$AAh?$AAe?$AAl?$AAp?$AAe?$AAr?$AA?$AA@ 004d101c     libucrtd:mbstowcs.obj
 0002:00022050       ??_C@_1JM@MEKBACIG@?$AA?$CI?$AAp?$AAw?$AAc?$AAs?$AA?5?$AA?$DN?$AA?$DN?$AA?5?$AAn?$AAu?$AAl?$AAl?$AAp?$AAt?$AAr?$AA?5?$AA?$CG?$AA?$CG?$AA?5?$AAs?$AAi?$AAz?$AAe?$AAI?$AAn?$AAW?$AAo?$AAr?$AAd?$AAs?$AA?5@ 004d1050     libucrtd:mbstowcs.obj
 0002:0002210c       ??_C@_1BM@PHENIGHD@?$AA_?$AAm?$AAb?$AAs?$AAt?$AAo?$AAw?$AAc?$AAs?$AA_?$AAs?$AA_?$AAl?$AA?$AA@ 004d110c     libucrtd:mbstowcs.obj
 0002:00022130       ??_C@_1CM@LLECFMFH@?$AAb?$AAu?$AAf?$AAf?$AAe?$AAr?$AAS?$AAi?$AAz?$AAe?$AA?5?$AA?$DM?$AA?$DN?$AA?5?$AAI?$AAN?$AAT?$AA_?$AAM?$AAA?$AAX?$AA?$AA@ 004d1130     libucrtd:mbstowcs.obj
 0002:00022164       ??_C@_1CO@JNPEPJAL@?$AAr?$AAe?$AAt?$AAs?$AAi?$AAz?$AAe?$AA?5?$AA?$DM?$AA?$DN?$AA?5?$AAs?$AAi?$AAz?$AAe?$AAI?$AAn?$AAW?$AAo?$AAr?$AAd?$AAs?$AA?$AA@ 004d1164     libucrtd:mbstowcs.obj
 0002:0002219c       ??_C@_1CA@NOKNKDIG@?$AAp?$AAw?$AAc?$AAs?$AA?5?$AA?$CB?$AA?$DN?$AA?5?$AAn?$AAu?$AAl?$AAl?$AAp?$AAt?$AAr?$AA?$AA@ 004d119c     libucrtd:wcstombs.obj
 0002:000221c8       ??_C@_1GI@EEJDEALP@?$AAm?$AAi?$AAn?$AAk?$AAe?$AAr?$AAn?$AAe?$AAl?$AA?2?$AAc?$AAr?$AAt?$AAs?$AA?2?$AAu?$AAc?$AAr?$AAt?$AA?2?$AAs?$AAr?$AAc?$AA?2?$AAa?$AAp?$AAp?$AAc?$AAr?$AAt?$AA?2?$AAc@ 004d11c8     libucrtd:wcstombs.obj
 0002:00022244       ??_C@_1CG@LLJCAOHF@?$AA_?$AAw?$AAc?$AAs?$AAt?$AAo?$AAm?$AAb?$AAs?$AA_?$AAl?$AA_?$AAh?$AAe?$AAl?$AAp?$AAe?$AAr?$AA?$AA@ 004d1244     libucrtd:wcstombs.obj
 0002:00022278       ??_C@_1JI@DFNKFCLG@?$AA?$CI?$AAd?$AAs?$AAt?$AA?5?$AA?$CB?$AA?$DN?$AA?5?$AAn?$AAu?$AAl?$AAl?$AAp?$AAt?$AAr?$AA?5?$AA?$CG?$AA?$CG?$AA?5?$AAs?$AAi?$AAz?$AAe?$AAI?$AAn?$AAB?$AAy?$AAt?$AAe?$AAs?$AA?5?$AA?$DO@ 004d1278     libucrtd:wcstombs.obj
 0002:00022330       ??_C@_1BM@BDMCLLDL@?$AA_?$AAw?$AAc?$AAs?$AAt?$AAo?$AAm?$AAb?$AAs?$AA_?$AAs?$AA_?$AAl?$AA?$AA@ 004d1330     libucrtd:wcstombs.obj
 0002:00022354       ??_C@_1CM@KEOGBFLI@?$AAs?$AAi?$AAz?$AAe?$AAI?$AAn?$AAB?$AAy?$AAt?$AAe?$AAs?$AA?5?$AA?$DO?$AA?5?$AAr?$AAe?$AAt?$AAs?$AAi?$AAz?$AAe?$AA?$AA@ 004d1354     libucrtd:wcstombs.obj
 0002:00022388       ??_C@_1GA@EAHLKLIP@?$AAm?$AAi?$AAn?$AAk?$AAe?$AAr?$AAn?$AAe?$AAl?$AA?2?$AAc?$AAr?$AAt?$AAs?$AA?2?$AAu?$AAc?$AAr?$AAt?$AA?2?$AAs?$AAr?$AAc?$AA?2?$AAa?$AAp?$AAp?$AAc?$AAr?$AAt?$AA?2?$AAl@ 004d1388     libucrtd:chsize.obj
 0002:000223fc       ??_C@_1BE@MAFDNGED@?$AA_?$AAc?$AAh?$AAs?$AAi?$AAz?$AAe?$AA_?$AAs?$AA?$AA@ 004d13fc     libucrtd:chsize.obj
 0002:00022414       ??_C@_1BI@GALBKMKE@?$AA?$CI?$AAs?$AAi?$AAz?$AAe?$AA?5?$AA?$DO?$AA?$DN?$AA?5?$AA0?$AA?$CJ?$AA?$AA@ 004d1414     libucrtd:chsize.obj
 0002:00022430       ??_C@_0DA@IEKPAGFB@minkernel?2crts?2ucrt?2src?2appcrt?2l@ 004d1430     libucrtd:chsize.obj
 0002:0002246c       ??_C@_1CI@BIJNNBKA@?$AAo?$AAl?$AAd?$AA_?$AAm?$AAo?$AAd?$AAe?$AA?5?$AA?$CB?$AA?$DN?$AA?5?$AAn?$AAu?$AAl?$AAl?$AAp?$AAt?$AAr?$AA?$AA@ 004d146c     libucrtd:umask.obj
 0002:000224a0       ??_C@_1FO@MNDCKOEA@?$AAm?$AAi?$AAn?$AAk?$AAe?$AAr?$AAn?$AAe?$AAl?$AA?2?$AAc?$AAr?$AAt?$AAs?$AA?2?$AAu?$AAc?$AAr?$AAt?$AA?2?$AAs?$AAr?$AAc?$AA?2?$AAa?$AAp?$AAp?$AAc?$AAr?$AAt?$AA?2?$AAl@ 004d14a0     libucrtd:umask.obj
 0002:00022510       ??_C@_1BC@MDPHDOJO@?$AA_?$AAu?$AAm?$AAa?$AAs?$AAk?$AA_?$AAs?$AA?$AA@ 004d1510     libucrtd:umask.obj
 0002:00022528       ??_C@_1EM@IJPIKCNL@?$AA?$CI?$AAm?$AAo?$AAd?$AAe?$AA?5?$AA?$CG?$AA?5?$AA?$HO?$AA?$CI?$AA_?$AAS?$AA_?$AAI?$AAR?$AAE?$AAA?$AAD?$AA?5?$AA?$HM?$AA?5?$AA_?$AAS?$AA_?$AAI?$AAW?$AAR?$AAI?$AAT?$AAE?$AA?$CJ?$AA?$CJ@ 004d1528     libucrtd:umask.obj
 0002:000225f8       ??_C@_1BA@BALFACEM@?$AAC?$AAO?$AAN?$AAO?$AAU?$AAT?$AA$?$AA?$AA@ 004d15f8     libucrtd:initcon.obj
 0002:0002260c       ??_C@_1CA@NJOPIFJ@?$AAn?$AAa?$AAm?$AAe?$AA?5?$AA?$CB?$AA?$DN?$AA?5?$AAn?$AAu?$AAl?$AAl?$AAp?$AAt?$AAr?$AA?$AA@ 004d160c     libucrtd:getenv.obj
 0002:00022638       ??_C@_1GE@DJLBMNJO@?$AAm?$AAi?$AAn?$AAk?$AAe?$AAr?$AAn?$AAe?$AAl?$AA?2?$AAc?$AAr?$AAt?$AAs?$AA?2?$AAu?$AAc?$AAr?$AAt?$AA?2?$AAs?$AAr?$AAc?$AA?2?$AAd?$AAe?$AAs?$AAk?$AAt?$AAo?$AAp?$AAc@ 004d1638     libucrtd:getenv.obj
 0002:000226b0       ??_C@_1BM@BLGHJIAJ@?$AAc?$AAo?$AAm?$AAm?$AAo?$AAn?$AA_?$AAg?$AAe?$AAt?$AAe?$AAn?$AAv?$AA?$AA@ 004d16b0     libucrtd:getenv.obj
 0002:000226d8       ??_C@_1FG@CANGEKNF@?$AAt?$AAr?$AAa?$AAi?$AAt?$AAs?$AA?3?$AA?3?$AAt?$AAc?$AAs?$AAn?$AAl?$AAe?$AAn?$AA?$CI?$AAn?$AAa?$AAm?$AAe?$AA?0?$AA?5?$AA_?$AAM?$AAA?$AAX?$AA_?$AAE?$AAN?$AAV?$AA?$CJ?$AA?5@ 004d16d8     libucrtd:getenv.obj
 0002:00022740       ??_C@_1IC@PEEDPIJE@?$AAt?$AAr?$AAa?$AAi?$AAt?$AAs?$AA?3?$AA?3?$AAt?$AAc?$AAs?$AAn?$AAl?$AAe?$AAn?$AA?$CI?$AA?$CK?$AAc?$AAu?$AAr?$AAr?$AAe?$AAn?$AAt?$AA?5?$AA?$CL?$AA?5?$AAn?$AAa?$AAm?$AAe?$AA_@ 004d1740     libucrtd:getenv.obj
 0002:000227dc       ??_C@_1DE@LLCEPHKC@?$AAr?$AAe?$AAq?$AAu?$AAi?$AAr?$AAe?$AAd?$AA_?$AAc?$AAo?$AAu?$AAn?$AAt?$AA?5?$AA?$CB?$AA?$DN?$AA?5?$AAn?$AAu?$AAl?$AAl?$AAp?$AAt?$AAr?$AA?$AA@ 004d17dc     libucrtd:getenv.obj
 0002:0002281c       ??_C@_1CO@JMMLKGAM@?$AAc?$AAo?$AAm?$AAm?$AAo?$AAn?$AA_?$AAg?$AAe?$AAt?$AAe?$AAn?$AAv?$AA_?$AAs?$AA_?$AAn?$AAo?$AAl?$AAo?$AAc?$AAk?$AA?$AA@ 004d181c     libucrtd:getenv.obj
 0002:00022858       ??_C@_1KI@FAGLHDFF@?$AA?$CI?$AAb?$AAu?$AAf?$AAf?$AAe?$AAr?$AA?5?$AA?$CB?$AA?$DN?$AA?5?$AAn?$AAu?$AAl?$AAl?$AAp?$AAt?$AAr?$AA?5?$AA?$CG?$AA?$CG?$AA?5?$AAb?$AAu?$AAf?$AAf?$AAe?$AAr?$AA_?$AAc?$AAo?$AAu@ 004d1858     libucrtd:getenv.obj
 0002:00022928       ??_C@_1FM@PFPBILLI@?$AAt?$AAr?$AAa?$AAi?$AAt?$AAs?$AA?3?$AA?3?$AAt?$AAc?$AAs?$AAc?$AAp?$AAy?$AA_?$AAs?$AA?$CI?$AAb?$AAu?$AAf?$AAf?$AAe?$AAr?$AA?0?$AA?5?$AAb?$AAu?$AAf?$AAf?$AAe?$AAr?$AA_@ 004d1928     libucrtd:getenv.obj
 0002:00022998       ??_C@_1DE@DFBNADNF@?$AAb?$AAu?$AAf?$AAf?$AAe?$AAr?$AA_?$AAp?$AAo?$AAi?$AAn?$AAt?$AAe?$AAr?$AA?5?$AA?$CB?$AA?$DN?$AA?5?$AAn?$AAu?$AAl?$AAl?$AAp?$AAt?$AAr?$AA?$AA@ 004d1998     libucrtd:getenv.obj
 0002:000229d8       ??_C@_1CO@CDOPGGMF@?$AAc?$AAo?$AAm?$AAm?$AAo?$AAn?$AA_?$AAd?$AAu?$AAp?$AAe?$AAn?$AAv?$AA_?$AAs?$AA_?$AAn?$AAo?$AAl?$AAo?$AAc?$AAk?$AA?$AA@ 004d19d8     libucrtd:getenv.obj
 0002:00022a10       ??_C@_1GM@ELJFOHM@?$AAt?$AAr?$AAa?$AAi?$AAt?$AAs?$AA?3?$AA?3?$AAt?$AAc?$AAs?$AAc?$AAp?$AAy?$AA_?$AAs?$AA?$CI?$AA?$CK?$AAb?$AAu?$AAf?$AAf?$AAe?$AAr?$AA_?$AAp?$AAo?$AAi?$AAn?$AAt?$AAe?$AAr@ 004d1a10     libucrtd:getenv.obj
 0002:00022a98       ??_C@_1HK@ELDMAMK@?$AAc?$AAc?$AAh?$AAC?$AAo?$AAu?$AAn?$AAt?$AA1?$AA?$DN?$AA?$DN?$AA0?$AA?5?$AA?$CG?$AA?$CG?$AA?5?$AAc?$AAc?$AAh?$AAC?$AAo?$AAu?$AAn?$AAt?$AA2?$AA?$DN?$AA?$DN?$AA1?$AA?5?$AA?$HM?$AA?$HM?$AA?5@ 004d1a98     libucrtd:comparestringa.obj
 0002:00022b30       ??_C@_1HC@NLKDIKED@?$AAm?$AAi?$AAn?$AAk?$AAe?$AAr?$AAn?$AAe?$AAl?$AA?2?$AAc?$AAr?$AAt?$AAs?$AA?2?$AAu?$AAc?$AAr?$AAt?$AA?2?$AAs?$AAr?$AAc?$AA?2?$AAa?$AAp?$AAp?$AAc?$AAr?$AAt?$AA?2?$AAl@ 004d1b30     libucrtd:comparestringa.obj
 0002:00022bb8       ??_C@_0DJ@MBLHFEOE@minkernel?2crts?2ucrt?2src?2appcrt?2l@ 004d1bb8     libucrtd:comparestringa.obj
 0002:00022d40       __infinity                 004d1d40     libucrtd:87tran.obj
 0002:00022d4a       __minfinity                004d1d4a     libucrtd:87tran.obj
 0002:00022d54       __logemax                  004d1d54     libucrtd:87tran.obj
 0002:00022d7a       __OP_EXPjmptab             004d1d7a     libucrtd:87tran.obj
 0002:00022db0       __indefinite               004d1db0     libucrtd:87disp.obj
 0002:00022dba       __piby2                    004d1dba     libucrtd:87disp.obj
 0002:00022dc4       __piby4                    004d1dc4     libucrtd:87disp.obj
 0002:00022e08       __DEFAULT_CW_in_mem        004d1e08     libucrtd:common.obj
 0002:00022e0a       __pi_by_2_to_61            004d1e0a     libucrtd:common.obj
 0002:00022ef0       ___acrt_log10_table_t      004d1ef0     libucrtd:log10_tables.obj
 0002:000233d0       ___acrt_log10_table_cb     004d23d0     libucrtd:log10_tables.obj
 0002:000238b0       __real@4000000000000000    004d28b0     libucrtd:powhlp.obj
 0002:000238bc       __real@00000000            004d28bc     libucrtd:ieeemisc.obj
 0002:00023934       ??_7type_info@@6B@         004d2934     LIBCMTD:std_type_info_static.obj
 0002:0002393c       __pDestructExceptionObject 004d293c     libvcruntimed:frame.obj
 0002:00023944       ??_7exception@std@@6B@     004d2944     libvcruntimed:frame.obj
 0002:00023950       ??_C@_0BC@EOODALEL@Unknown?5exception?$AA@ 004d2950     libvcruntimed:frame.obj
 0002:0002396c       ??_7bad_exception@std@@6B@ 004d296c     libvcruntimed:frame.obj
 0002:00023978       ??_C@_0O@DPKOEFFH@bad?5exception?$AA@ 004d2978     libvcruntimed:frame.obj
 0002:00023988       ??_C@_1FK@OACNEHHA@?$AAt?$AAo?$AA?9?$AA?$DO?$AA_?$AAW?$AAh?$AAa?$AAt?$AA?5?$AA?$DN?$AA?$DN?$AA?5?$AAn?$AAu?$AAl?$AAl?$AAp?$AAt?$AAr?$AA?5?$AA?$CG?$AA?$CG?$AA?5?$AAt?$AAo?$AA?9?$AA?$DO?$AA_?$AAD?$AAo?$AAF@ 004d2988     libvcruntimed:std_exception.obj
 0002:000239f8       ??_C@_1GK@GJEBHBCE@?$AAf?$AA?3?$AA?2?$AAd?$AAd?$AA?2?$AAv?$AAc?$AAt?$AAo?$AAo?$AAl?$AAs?$AA?2?$AAc?$AAr?$AAt?$AA?2?$AAv?$AAc?$AAr?$AAu?$AAn?$AAt?$AAi?$AAm?$AAe?$AA?2?$AAs?$AAr?$AAc?$AA?2@ 004d29f8     libvcruntimed:std_exception.obj
 0002:00023ad8       __load_config_used         004d2ad8     LIBCMTD:loadcfg.obj
 0002:0002421c       ??_R4DNameNode@@6B@        004d321c     libvcruntimed:undname.obj
 0002:00024234       ??_R3DNameNode@@8          004d3234     libvcruntimed:undname.obj
 0002:00024248       ??_R2DNameNode@@8          004d3248     libvcruntimed:undname.obj
 0002:00024250       ??_R1A@?0A@EA@DNameNode@@8 004d3250     libvcruntimed:undname.obj
 0002:00024274       ??_R4charNode@@6B@         004d3274     libvcruntimed:undname.obj
 0002:0002428c       ??_R3charNode@@8           004d328c     libvcruntimed:undname.obj
 0002:000242a0       ??_R2charNode@@8           004d32a0     libvcruntimed:undname.obj
 0002:000242ac       ??_R1A@?0A@EA@charNode@@8  004d32ac     libvcruntimed:undname.obj
 0002:000242d0       ??_R4pcharNode@@6B@        004d32d0     libvcruntimed:undname.obj
 0002:000242e8       ??_R3pcharNode@@8          004d32e8     libvcruntimed:undname.obj
 0002:000242fc       ??_R2pcharNode@@8          004d32fc     libvcruntimed:undname.obj
 0002:00024308       ??_R1A@?0A@EA@pcharNode@@8 004d3308     libvcruntimed:undname.obj
 0002:0002432c       ??_R4pDNameNode@@6B@       004d332c     libvcruntimed:undname.obj
 0002:00024344       ??_R3pDNameNode@@8         004d3344     libvcruntimed:undname.obj
 0002:00024358       ??_R2pDNameNode@@8         004d3358     libvcruntimed:undname.obj
 0002:00024364       ??_R1A@?0A@EA@pDNameNode@@8 004d3364     libvcruntimed:undname.obj
 0002:00024388       ??_R4DNameStatusNode@@6B@  004d3388     libvcruntimed:undname.obj
 0002:000243a0       ??_R3DNameStatusNode@@8    004d33a0     libvcruntimed:undname.obj
 0002:000243b4       ??_R2DNameStatusNode@@8    004d33b4     libvcruntimed:undname.obj
 0002:000243c0       ??_R1A@?0A@EA@DNameStatusNode@@8 004d33c0     libvcruntimed:undname.obj
 0002:000243e4       ??_R4pairNode@@6B@         004d33e4     libvcruntimed:undname.obj
 0002:000243fc       ??_R3pairNode@@8           004d33fc     libvcruntimed:undname.obj
 0002:00024410       ??_R2pairNode@@8           004d3410     libvcruntimed:undname.obj
 0002:0002441c       ??_R1A@?0A@EA@pairNode@@8  004d341c     libvcruntimed:undname.obj
 0002:00024440       ??_R4type_info@@6B@        004d3440     LIBCMTD:std_type_info_static.obj
 0002:00024458       ??_R3type_info@@8          004d3458     LIBCMTD:std_type_info_static.obj
 0002:0002446c       ??_R2type_info@@8          004d346c     LIBCMTD:std_type_info_static.obj
 0002:00024474       ??_R1A@?0A@EA@type_info@@8 004d3474     LIBCMTD:std_type_info_static.obj
 0002:00024498       ??_R4exception@std@@6B@    004d3498     libvcruntimed:frame.obj
 0002:000244b0       ??_R3exception@std@@8      004d34b0     libvcruntimed:frame.obj
 0002:000244c4       ??_R2exception@std@@8      004d34c4     libvcruntimed:frame.obj
 0002:000244cc       ??_R1A@?0A@EA@exception@std@@8 004d34cc     libvcruntimed:frame.obj
 0002:000244f0       ??_R4bad_exception@std@@6B@ 004d34f0     libvcruntimed:frame.obj
 0002:00024508       ??_R3bad_exception@std@@8  004d3508     libvcruntimed:frame.obj
 0002:0002451c       ??_R2bad_exception@std@@8  004d351c     libvcruntimed:frame.obj
 0002:00024528       ??_R1A@?0A@EA@bad_exception@std@@8 004d3528     libvcruntimed:frame.obj
 0002:00024660       ___safe_se_handler_table   004d3660     <linker-defined>
 0002:00024948       ___rtc_iaa                 004d3948     LIBCMTD:_initsect_.obj
 0002:00024a4c       ___rtc_izz                 004d3a4c     LIBCMTD:_initsect_.obj
 0002:00024b50       ___rtc_taa                 004d3b50     LIBCMTD:_initsect_.obj
 0002:00024c54       ___rtc_tzz                 004d3c54     LIBCMTD:_initsect_.obj
 0002:00025af8       __TI2?AVbad_exception@std@@ 004d4af8     libvcruntimed:frame.obj
 0002:00025b0c       __CTA2?AVbad_exception@std@@ 004d4b0c     libvcruntimed:frame.obj
 0002:00025b1c       __CT??_R0?AVbad_exception@std@@@8??0bad_exception@std@@QAE@ABV01@@Z12 004d4b1c     libvcruntimed:frame.obj
 0002:00025b3c       __CT??_R0?AVexception@std@@@8??0exception@std@@QAE@ABV01@@Z12 004d4b3c     libvcruntimed:frame.obj
 0003:00000010       _directives                004d5010     l_precomp.obj
 0003:000000b0       _dollardirectives          004d50b0     l_precomp.obj
 0003:00000190       _default_punctuations      004d5190     l_script.obj
 0003:0000048c       ___security_cookie_complement 004d548c     LIBCMTD:gs_cookie.obj
 0003:00000490       ___security_cookie         004d5490     LIBCMTD:gs_cookie.obj
 0003:000004a0       __fltused                  004d54a0     LIBCMTD:fltused.obj
 0003:000004a4       ___scrt_native_dllmain_reason 004d54a4     LIBCMTD:utility.obj
 0003:000004a8       ___scrt_default_matherr    004d54a8     LIBCMTD:matherr.obj
 0003:000004ac       ___isa_enabled             004d54ac     LIBCMTD:_cpu_disp_.obj
 0003:000004c0       __NLG_Destination          004d54c0     libvcruntimed:_exsup_.obj
 0003:000004d8       __iob                      004d54d8     libucrtd:_file.obj
 0003:000005b8       __crtDbgFlag               004d55b8     libucrtd:debug_heap.obj
 0003:000005bc       __crtBreakAlloc            004d55bc     libucrtd:debug_heap.obj
 0003:000005c0       ___abort_behavior          004d55c0     libucrtd:abort.obj
 0003:000005d0       ___badioinfo               004d55d0     libucrtd:ioinit.obj
 0003:00000610       __lookuptrailbytes         004d5610     libucrtd:read.obj
 0003:0000074c       ___mb_cur_max              004d574c     libucrtd:nlsdata.obj
 0003:00000750       ___acrt_initial_locale_data 004d5750     libucrtd:nlsdata.obj
 0003:0000082c       ___acrt_initial_locale_pointers 004d582c     libucrtd:nlsdata.obj
 0003:00000838       ___acrt_wide_c_locale_string 004d5838     libucrtd:nlsdata.obj
 0003:00000968       __mbctype                  004d5968     libucrtd:mbctype.obj
 0003:00000aa0       __mbcasemap                004d5aa0     libucrtd:mbctype.obj
 0003:00000bd8       ___acrt_initial_multibyte_data 004d5bd8     libucrtd:mbctype.obj
 0003:00000e64       ___acrt_current_multibyte_data 004d5e64     libucrtd:mbctype.obj
 0003:00000e68       __pctype                   004d5e68     libucrtd:ctype.obj
 0003:00000e6c       __pwctype                  004d5e6c     libucrtd:ctype.obj
 0003:00000e70       ___acrt_lconv_static_decimal 004d5e70     libucrtd:localeconv.obj
 0003:00000e74       ___acrt_lconv_static_W_decimal 004d5e74     libucrtd:localeconv.obj
 0003:00000e78       ___acrt_lconv_c            004d5e78     libucrtd:localeconv.obj
 0003:00000ed8       ___acrt_lconv              004d5ed8     libucrtd:localeconv.obj
 0003:00000edc       ___globallocalestatus      004d5edc     libucrtd:glstatus.obj
 0003:00000ee4       __pfnAllocHook             004d5ee4     libucrtd:debug_heap_hook.obj
 0003:00000ee8       __CrtDbgMode               004d5ee8     libucrtd:dbgrptt.obj
 0003:00000ef8       __CrtDbgFile               004d5ef8     libucrtd:dbgrptt.obj
 0003:00000f08       __crtAssertBusy            004d5f08     libucrtd:dbgrptt.obj
 0003:00000fe0       ___dcrt_lowio_console_output_handle 004d5fe0     libucrtd:initcon.obj
 0003:00001128       ??_R0?AVDNameNode@@@8      004d6128     libvcruntimed:undname.obj
 0003:00001144       ??_R0?AVcharNode@@@8       004d6144     libvcruntimed:undname.obj
 0003:00001160       ??_R0?AVpcharNode@@@8      004d6160     libvcruntimed:undname.obj
 0003:0000117c       ??_R0?AVpDNameNode@@@8     004d617c     libvcruntimed:undname.obj
 0003:0000119c       ??_R0?AVDNameStatusNode@@@8 004d619c     libvcruntimed:undname.obj
 0003:000011c0       ??_R0?AVpairNode@@@8       004d61c0     libvcruntimed:undname.obj
 0003:000011dc       ??_R0?AVtype_info@@@8      004d61dc     LIBCMTD:std_type_info_static.obj
 0003:000011f8       ??_R0?AVbad_exception@std@@@8 004d61f8     libvcruntimed:frame.obj
 0003:00001220       ??_R0?AVexception@std@@@8  004d6220     libvcruntimed:frame.obj
 0003:00001244       ??_R0?AVbad_alloc@std@@@8  004d6244     libvcruntimed:frame.obj
 0003:00001380       _verbose                   004d6380     extractfuncs.obj
 0003:00001384       _tokenListHead             004d6384     extractfuncs.obj
 0003:0000174c       ___scrt_current_native_startup_state 004d674c     LIBCMTD:utility.obj
 0003:00001750       ___scrt_native_startup_lock 004d6750     LIBCMTD:utility.obj
 0003:00001778       ?__type_info_root_node@@3U__type_info_node@@A 004d6778     LIBCMTD:tncleanup.obj
 0003:00001788       ?_OptionsStorage@?1??__local_stdio_printf_options@@9@4_KA 004d6788     LIBCMTD:default_local_stdio_options.obj
 0003:00001798       ?_OptionsStorage@?1??__local_stdio_scanf_options@@9@4_KA 004d6798     LIBCMTD:default_local_stdio_options.obj
 0003:000017a4       ___scrt_debugger_hook_flag 004d67a4     LIBCMTD:utility_desktop.obj
 0003:000017a8       ___isa_available           004d67a8     LIBCMTD:_cpu_disp_.obj
 0003:000017ac       ___favor                   004d67ac     LIBCMTD:_cpu_disp_.obj
 0003:00001848       ___pPurecall               004d6848     libvcruntimed:purevirt_data.obj
 0003:0000184c       ?pArgList@UnDecorator@@0PAVReplicator@@A 004d684c     libvcruntimed:undname.obj
 0003:00001850       ?pZNameList@UnDecorator@@0PAVReplicator@@A 004d6850     libvcruntimed:undname.obj
 0003:00001854       ?pTemplateArgList@UnDecorator@@0PAVReplicator@@A 004d6854     libvcruntimed:undname.obj
 0003:00001858       ?gName@UnDecorator@@0PBDB  004d6858     libvcruntimed:undname.obj
 0003:0000185c       ?name@UnDecorator@@0PBDB   004d685c     libvcruntimed:undname.obj
 0003:00001860       ?outputString@UnDecorator@@0PADA 004d6860     libvcruntimed:undname.obj
 0003:00001864       ?maxStringLength@UnDecorator@@0HA 004d6864     libvcruntimed:undname.obj
 0003:00001868       ?disableFlags@UnDecorator@@0KA 004d6868     libvcruntimed:undname.obj
 0003:0000186c       ?fExplicitTemplateParams@UnDecorator@@0_NA 004d686c     libvcruntimed:undname.obj
 0003:0000186d       ?fGetTemplateArgumentList@UnDecorator@@0_NA 004d686d     libvcruntimed:undname.obj
 0003:00001870       ?m_pGetParameter@UnDecorator@@0P6APADJ@ZA 004d6870     libvcruntimed:undname.obj
 0003:000018f8       ?nodes@?1??make@DNameStatusNode@@SAPAV2@W4DNameStatus@@@Z@4PAV2@A 004d68f8     libvcruntimed:undname.obj
 0003:00001934       ??_B?1??make@DNameStatusNode@@SAPAV1@W4DNameStatus@@@Z@51 004d6934     libvcruntimed:undname.obj
 0003:00001938       __nstream                  004d6938     libucrtd:_file.obj
 0003:0000193c       ___piob                    004d693c     libucrtd:_file.obj
 0003:00001944       __cflush                   004d6944     libucrtd:_file.obj
 0003:00002474       __environ_table            004d7474     libucrtd:environment_initialization.obj
 0003:00002478       __wenviron_table           004d7478     libucrtd:environment_initialization.obj
 0003:00002480       ___dcrt_initial_wide_environment 004d7480     libucrtd:environment_initialization.obj
 0003:00002484       ___dcrt_initial_narrow_environment 004d7484     libucrtd:environment_initialization.obj
 0003:00002488       ___argc                    004d7488     libucrtd:argv_data.obj
 0003:0000248c       ___argv                    004d748c     libucrtd:argv_data.obj
 0003:00002490       ___wargv                   004d7490     libucrtd:argv_data.obj
 0003:00002494       __acmdln                   004d7494     libucrtd:argv_data.obj
 0003:00002498       __wcmdln                   004d7498     libucrtd:argv_data.obj
 0003:0000249c       __pgmptr                   004d749c     libucrtd:argv_data.obj
 0003:000024a0       __wpgmptr                  004d74a0     libucrtd:argv_data.obj
 0003:000024a4       ___acrt_locale_changed_data 004d74a4     libucrtd:wsetlocale.obj
 0003:000024ac       __commode                  004d74ac     libucrtd:ncommode.obj
 0003:000024b0       ___acrt_atexit_table       004d74b0     libucrtd:onexit.obj
 0003:000024c0       ___acrt_at_quick_exit_table 004d74c0     libucrtd:onexit.obj
 0003:000024ec       __pfnDumpClient            004d74ec     libucrtd:debug_heap.obj
 0003:00002600       ___pioinfo                 004d7600     libucrtd:ioinit.obj
 0003:00002868       __nhandle                  004d7868     libucrtd:ioinit.obj
 0003:00002870       ___acrt_stdout_buffer      004d7870     libucrtd:_sftbuf.obj
 0003:00002874       ___acrt_stderr_buffer      004d7874     libucrtd:_sftbuf.obj
 0003:00002878       ___acrt_current_locale_data 004d7878     libucrtd:nlsdata.obj
 0003:00002a60       ___mbcodepage              004d7a60     libucrtd:mbctype.obj
 0003:00002a64       ___ismbcodepage            004d7a64     libucrtd:mbctype.obj
 0003:00002a68       ___mbulinfo                004d7a68     libucrtd:mbctype.obj
 0003:00002a7c       ___mblocalename            004d7a7c     libucrtd:mbctype.obj
 0003:00002a84       __fmode                    004d7a84     libucrtd:txtmode.obj
 0003:00002a88       ___acrt_lconv_static_null  004d7a88     libucrtd:localeconv.obj
 0003:00002a8c       ___acrt_lconv_static_W_null 004d7a8c     libucrtd:localeconv.obj
 0003:00002a90       ___acrt_heap               004d7a90     libucrtd:heap_handle.obj
 0003:00002ab0       __pReportHookListW         004d7ab0     libucrtd:dbgrptt.obj
 0003:00002ab4       __pfnReportHook            004d7ab4     libucrtd:dbgrptt.obj
 0003:00002ab8       __pReportHookList          004d7ab8     libucrtd:dbgrptt.obj
 0003:00002ac0       ?_timezone@@3V?$dual_state_global@J@__crt_state_management@@A 004d7ac0     libucrtd:timeset.obj
 0003:00002ac4       ?_daylight@@3V?$dual_state_global@H@__crt_state_management@@A 004d7ac4     libucrtd:timeset.obj
 0003:00002ac8       ?_dstbias@@3V?$dual_state_global@J@__crt_state_management@@A 004d7ac8     libucrtd:timeset.obj
 0003:00002bb4       __umaskval                 004d7bb4     libucrtd:umask.obj
 0003:00002bb8       ___fastflag                004d7bb8     libucrtd:fp_flags.obj
 0003:00002bc0       ?g_OutOfMemoryExceptionCallback@@3P6GPAXXZA 004d7bc0     libvcruntimed:frame.obj
 0003:00002bc4       _globaldefines             004d7bc4     <common>
 0003:00002bd4       _numtokens                 004d7bd4     <common>
 0003:00002bd8       _numblocks                 004d7bd8     <common>
 0003:00002be8       _totalmemorysize           004d7be8     <common>
 0003:00002bec       _allocatedmemory           004d7bec     <common>
 0003:00002c00       _logfile                   004d7c00     <common>
 0003:000030e0       ?_OptionsStorage@?1??__local_stdio_printf_options@@9@9 004d80e0     <common>
 0003:00006700       _tokenList                 004db700     <common>
 0003:00017500       _numfuncs                  004ec500     <common>
 0003:00017504       _replacefuncs              004ec504     <common>
 0003:00017508       ___scrt_ucrt_dll_is_in_use 004ec508     <common>
 0003:00017514       ___dyn_tls_dtor_callback   004ec514     <common>
 0003:00017520       ___dyn_tls_init_callback   004ec520     <common>
 0003:0001752c       __pmatherr                 004ec52c     <common>
 0003:00017538       ___use_sse2_mathfcns       004ec538     <common>
 0004:00000000       __imp__FindFirstFileA@8    004ed000     kernel32:KERNEL32.dll
 0004:00000004       __imp__FindNextFileA@8     004ed004     kernel32:KERNEL32.dll
 0004:00000008       __imp__UnhandledExceptionFilter@4 004ed008     kernel32:KERNEL32.dll
 0004:0000000c       __imp__SetUnhandledExceptionFilter@4 004ed00c     kernel32:KERNEL32.dll
 0004:00000010       __imp__GetCurrentProcess@0 004ed010     kernel32:KERNEL32.dll
 0004:00000014       __imp__TerminateProcess@8  004ed014     kernel32:KERNEL32.dll
 0004:00000018       __imp__IsProcessorFeaturePresent@4 004ed018     kernel32:KERNEL32.dll
 0004:0000001c       __imp__QueryPerformanceCounter@4 004ed01c     kernel32:KERNEL32.dll
 0004:00000020       __imp__GetCurrentProcessId@0 004ed020     kernel32:KERNEL32.dll
 0004:00000024       __imp__GetCurrentThreadId@0 004ed024     kernel32:KERNEL32.dll
 0004:00000028       __imp__GetSystemTimeAsFileTime@4 004ed028     kernel32:KERNEL32.dll
 0004:0000002c       __imp__InitializeSListHead@4 004ed02c     kernel32:KERNEL32.dll
 0004:00000030       __imp__IsDebuggerPresent@0 004ed030     kernel32:KERNEL32.dll
 0004:00000034       __imp__GetStartupInfoW@4   004ed034     kernel32:KERNEL32.dll
 0004:00000038       __imp__GetModuleHandleW@4  004ed038     kernel32:KERNEL32.dll
 0004:0000003c       __imp__InterlockedPushEntrySList@8 004ed03c     kernel32:KERNEL32.dll
 0004:00000040       __imp__InterlockedFlushSList@4 004ed040     kernel32:KERNEL32.dll
 0004:00000044       __imp__RtlUnwind@16        004ed044     kernel32:KERNEL32.dll
 0004:00000048       __imp__GetLastError@0      004ed048     kernel32:KERNEL32.dll
 0004:0000004c       __imp__SetLastError@4      004ed04c     kernel32:KERNEL32.dll
 0004:00000050       __imp__EnterCriticalSection@4 004ed050     kernel32:KERNEL32.dll
 0004:00000054       __imp__LeaveCriticalSection@4 004ed054     kernel32:KERNEL32.dll
 0004:00000058       __imp__DeleteCriticalSection@4 004ed058     kernel32:KERNEL32.dll
 0004:0000005c       __imp__InitializeCriticalSectionAndSpinCount@8 004ed05c     kernel32:KERNEL32.dll
 0004:00000060       __imp__TlsAlloc@0          004ed060     kernel32:KERNEL32.dll
 0004:00000064       __imp__TlsGetValue@4       004ed064     kernel32:KERNEL32.dll
 0004:00000068       __imp__TlsSetValue@8       004ed068     kernel32:KERNEL32.dll
 0004:0000006c       __imp__TlsFree@4           004ed06c     kernel32:KERNEL32.dll
 0004:00000070       __imp__FreeLibrary@4       004ed070     kernel32:KERNEL32.dll
 0004:00000074       __imp__GetProcAddress@8    004ed074     kernel32:KERNEL32.dll
 0004:00000078       __imp__LoadLibraryExW@12   004ed078     kernel32:KERNEL32.dll
 0004:0000007c       __imp__ReadFile@20         004ed07c     kernel32:KERNEL32.dll
 0004:00000080       __imp__MultiByteToWideChar@24 004ed080     kernel32:KERNEL32.dll
 0004:00000084       __imp__ExitProcess@4       004ed084     kernel32:KERNEL32.dll
 0004:00000088       __imp__GetModuleHandleExW@12 004ed088     kernel32:KERNEL32.dll
 0004:0000008c       __imp__RaiseException@16   004ed08c     kernel32:KERNEL32.dll
 0004:00000090       __imp__GetStdHandle@4      004ed090     kernel32:KERNEL32.dll
 0004:00000094       __imp__WriteFile@20        004ed094     kernel32:KERNEL32.dll
 0004:00000098       __imp__GetModuleFileNameW@12 004ed098     kernel32:KERNEL32.dll
 0004:0000009c       __imp__GetModuleFileNameA@12 004ed09c     kernel32:KERNEL32.dll
 0004:000000a0       __imp__WideCharToMultiByte@32 004ed0a0     kernel32:KERNEL32.dll
 0004:000000a4       __imp__GetCommandLineA@0   004ed0a4     kernel32:KERNEL32.dll
 0004:000000a8       __imp__GetCommandLineW@0   004ed0a8     kernel32:KERNEL32.dll
 0004:000000ac       __imp__GetACP@0            004ed0ac     kernel32:KERNEL32.dll
 0004:000000b0       __imp__HeapAlloc@12        004ed0b0     kernel32:KERNEL32.dll
 0004:000000b4       __imp__HeapValidate@12     004ed0b4     kernel32:KERNEL32.dll
 0004:000000b8       __imp__GetSystemInfo@4     004ed0b8     kernel32:KERNEL32.dll
 0004:000000bc       __imp__GetDateFormatW@24   004ed0bc     kernel32:KERNEL32.dll
 0004:000000c0       __imp__GetTimeFormatW@24   004ed0c0     kernel32:KERNEL32.dll
 0004:000000c4       __imp__CompareStringW@24   004ed0c4     kernel32:KERNEL32.dll
 0004:000000c8       __imp__LCMapStringW@24     004ed0c8     kernel32:KERNEL32.dll
 0004:000000cc       __imp__GetLocaleInfoW@16   004ed0cc     kernel32:KERNEL32.dll
 0004:000000d0       __imp__IsValidLocale@8     004ed0d0     kernel32:KERNEL32.dll
 0004:000000d4       __imp__GetUserDefaultLCID@0 004ed0d4     kernel32:KERNEL32.dll
 0004:000000d8       __imp__EnumSystemLocalesW@8 004ed0d8     kernel32:KERNEL32.dll
 0004:000000dc       __imp__GetFileType@4       004ed0dc     kernel32:KERNEL32.dll
 0004:000000e0       __imp__CloseHandle@4       004ed0e0     kernel32:KERNEL32.dll
 0004:000000e4       __imp__GetConsoleMode@8    004ed0e4     kernel32:KERNEL32.dll
 0004:000000e8       __imp__ReadConsoleW@20     004ed0e8     kernel32:KERNEL32.dll
 0004:000000ec       __imp__SetFilePointerEx@20 004ed0ec     kernel32:KERNEL32.dll
 0004:000000f0       __imp__DeleteFileW@4       004ed0f0     kernel32:KERNEL32.dll
 0004:000000f4       __imp__MoveFileExW@12      004ed0f4     kernel32:KERNEL32.dll
 0004:000000f8       __imp__GetCurrentThread@0  004ed0f8     kernel32:KERNEL32.dll
 0004:000000fc       __imp__FlushFileBuffers@4  004ed0fc     kernel32:KERNEL32.dll
 0004:00000100       __imp__GetConsoleCP@0      004ed100     kernel32:KERNEL32.dll
 0004:00000104       __imp__OutputDebugStringA@4 004ed104     kernel32:KERNEL32.dll
 0004:00000108       __imp__OutputDebugStringW@4 004ed108     kernel32:KERNEL32.dll
 0004:0000010c       __imp__WaitForSingleObjectEx@12 004ed10c     kernel32:KERNEL32.dll
 0004:00000110       __imp__CreateThread@24     004ed110     kernel32:KERNEL32.dll
 0004:00000114       __imp__FindClose@4         004ed114     kernel32:KERNEL32.dll
 0004:00000118       __imp__FindFirstFileExA@24 004ed118     kernel32:KERNEL32.dll
 0004:0000011c       __imp__FindFirstFileExW@24 004ed11c     kernel32:KERNEL32.dll
 0004:00000120       __imp__FindNextFileW@8     004ed120     kernel32:KERNEL32.dll
 0004:00000124       __imp__IsValidCodePage@4   004ed124     kernel32:KERNEL32.dll
 0004:00000128       __imp__GetOEMCP@0          004ed128     kernel32:KERNEL32.dll
 0004:0000012c       __imp__GetCPInfo@8         004ed12c     kernel32:KERNEL32.dll
 0004:00000130       __imp__GetEnvironmentStringsW@0 004ed130     kernel32:KERNEL32.dll
 0004:00000134       __imp__FreeEnvironmentStringsW@4 004ed134     kernel32:KERNEL32.dll
 0004:00000138       __imp__SetEnvironmentVariableA@8 004ed138     kernel32:KERNEL32.dll
 0004:0000013c       __imp__SetEnvironmentVariableW@8 004ed13c     kernel32:KERNEL32.dll
 0004:00000140       __imp__SetStdHandle@8      004ed140     kernel32:KERNEL32.dll
 0004:00000144       __imp__GetStringTypeW@16   004ed144     kernel32:KERNEL32.dll
 0004:00000148       __imp__GetProcessHeap@0    004ed148     kernel32:KERNEL32.dll
 0004:0000014c       __imp__SetConsoleCtrlHandler@8 004ed14c     kernel32:KERNEL32.dll
 0004:00000150       __imp__HeapFree@12         004ed150     kernel32:KERNEL32.dll
 0004:00000154       __imp__HeapReAlloc@16      004ed154     kernel32:KERNEL32.dll
 0004:00000158       __imp__HeapSize@12         004ed158     kernel32:KERNEL32.dll
 0004:0000015c       __imp__HeapQueryInformation@20 004ed15c     kernel32:KERNEL32.dll
 0004:00000160       __imp__WriteConsoleW@20    004ed160     kernel32:KERNEL32.dll
 0004:00000164       __imp__CreateFileW@28      004ed164     kernel32:KERNEL32.dll
 0004:00000168       __imp__GetTimeZoneInformation@4 004ed168     kernel32:KERNEL32.dll
 0004:0000016c       __imp__SetEndOfFile@4      004ed16c     kernel32:KERNEL32.dll
 0004:00000170       __imp__EncodePointer@4     004ed170     kernel32:KERNEL32.dll
 0004:00000174       __imp__DecodePointer@4     004ed174     kernel32:KERNEL32.dll
 0004:00000178       \177KERNEL32_NULL_THUNK_DATA 004ed178     kernel32:KERNEL32.dll
 0004:000001ec       __IMPORT_DESCRIPTOR_KERNEL32 004ed1ec     kernel32:KERNEL32.dll
 0004:00000200       __NULL_IMPORT_DESCRIPTOR   004ed200     kernel32:KERNEL32.dll
 0006:00000000       ___guard_check_icall_fptr  004ef000     LIBCMTD:guard_support.obj
